 capldll

 Timestamp is 629d7c2c (Mon Jun  6 12:01:48 2022)

 Preferred load address is 10000000

 Start         Length     Name                   Class
 0001:00000000 00000740H .text$di                CODE
 0001:00000740 00109340H .text$mn                CODE
 0001:00109a80 00008470H .text$x                 CODE
 0001:00111ef0 0000011fH .text$yd                CODE
 0002:00000000 000001a0H .idata$5                DATA
 0002:000001a0 00000004H .00cfg                  DATA
 0002:000001a4 00000004H .CRT$XCA                DATA
 0002:000001a8 0000008cH .CRT$XCC                DATA
 0002:00000234 0000001cH .CRT$XCL                DATA
 0002:00000250 00000028H .CRT$XCU                DATA
 0002:00000278 00000004H .CRT$XCZ                DATA
 0002:0000027c 00000004H .CRT$XIA                DATA
 0002:00000280 00000018H .CRT$XIC                DATA
 0002:00000298 00000004H .CRT$XIZ                DATA
 0002:0000029c 00000004H .CRT$XLA                DATA
 0002:000002a0 00000004H .CRT$XLZ                DATA
 0002:000002a4 00000004H .CRT$XPA                DATA
 0002:000002a8 00000008H .CRT$XPX                DATA
 0002:000002b0 00000004H .CRT$XPXA               DATA
 0002:000002b4 00000004H .CRT$XPZ                DATA
 0002:000002b8 00000004H .CRT$XTA                DATA
 0002:000002bc 00000004H .CRT$XTZ                DATA
 0002:000002c0 00000000H .gfids$y                DATA
 0002:000002c0 00032458H .rdata                  DATA
 0002:00032718 00000018H .rdata$T                DATA
 0002:00032730 00001d20H .rdata$r                DATA
 0002:00034450 000009f8H .rdata$sxdata           DATA
 0002:00034e48 0000040cH .rdata$zzzdbg           DATA
 0002:00035254 00000004H .rtc$IAA                DATA
 0002:00035258 0000000cH .rtc$IMZ                DATA
 0002:00035264 00000004H .rtc$IZZ                DATA
 0002:00035268 00000004H .rtc$TAA                DATA
 0002:0003526c 0000000cH .rtc$TMZ                DATA
 0002:00035278 00000004H .rtc$TZZ                DATA
 0002:0003527c 00000004H .tls                    DATA
 0002:00035280 00000004H .tls$                   DATA
 0002:00035284 00000004H .tls$ZZZ                DATA
 0002:00035288 00009108H .xdata$x                DATA
 0002:0003e390 00000b28H .edata                  DATA
 0002:0003eeb8 00000028H .idata$2                DATA
 0002:0003eee0 00000014H .idata$3                DATA
 0002:0003eef4 000001a0H .idata$4                DATA
 0002:0003f094 000006caH .idata$6                DATA
 0003:00000000 00009080H .data                   DATA
 0003:00009080 00001028H .data$r                 DATA
 0003:0000a0a8 00001e70H .bss                    DATA
 0004:00000000 00000060H .rsrc$01                DATA
 0004:00000060 00000180H .rsrc$02                DATA

  Address         Publics by Value              Rva+Base       Lib:Object

 0000:00000000       ___dynamic_value_reloc_table 00000000     <absolute>
 0000:00000000       ___guard_iat_table         00000000     <absolute>
 0000:00000000       ___guard_longjmp_table     00000000     <absolute>
 0000:00000000       ___volatile_metadata       00000000     <absolute>
 0000:00000000       ___guard_longjmp_count     00000000     <absolute>
 0000:00000000       ___guard_iat_count         00000000     <absolute>
 0000:00000000       ___guard_fids_count        00000000     <absolute>
 0000:00000000       ___hybrid_code_map         00000000     <absolute>
 0000:00000000       ___guard_fids_table        00000000     <absolute>
 0000:00000000       ___hybrid_code_map_count   00000000     <absolute>
 0000:00000000       ___hybrid_auxiliary_iat    00000000     <absolute>
 0000:00000000       __except_list              00000000     <absolute>
 0000:00000000       ___enclave_config          00000000     <absolute>
 0000:0000002c       __tls_array                0000002c     <absolute>
 0000:00000100       ___guard_flags             00000100     <absolute>
 0000:0000027e       ___safe_se_handler_count   0000027e     <absolute>
 0000:00000000       ___ImageBase               10000000     <linker-defined>
 0001:00000750       _VIARegisterCDLL@4         10001750 f   capldll.obj
 0001:000007a0       ??0CaplInstanceData@@QAE@PAVVIACapl@@@Z 100017a0 f   capldll.obj
 0001:000007f0       ?GetCallbackFunctions@CaplInstanceData@@QAEXXZ 100017f0 f   capldll.obj
 0001:000008a0       ?ReleaseCallbackFunctions@CaplInstanceData@@QAEXXZ 100018a0 f   capldll.obj
 0001:00000970       ?ShowValue@CaplInstanceData@@QAEII@Z 10001970 f   capldll.obj
 0001:000009c0       ?ShowDates@CaplInstanceData@@QAEIFIF@Z 100019c0 f   capldll.obj
 0001:00000a50       ?DllInfo@CaplInstanceData@@QAEXPBD@Z 10001a50 f   capldll.obj
 0001:00000ae0       ?ArrayValues@CaplInstanceData@@QAEXIIQAEE@Z 10001ae0 f   capldll.obj
 0001:00000b80       ?DllVersion@CaplInstanceData@@QAEXPBD@Z 10001b80 f   capldll.obj
 0001:00000d40       ?GetCaplInstanceData@@YAPAVCaplInstanceData@@I@Z 10001d40 f   capldll.obj
 0001:00000e20       ?appInit@@YGXI@Z           10001e20 f   capldll.obj
 0001:00000f90       ?appEnd@@YGXI@Z            10001f90 f   capldll.obj
 0001:00000ff0       ?appSetValue@@YGHIH@Z      10001ff0 f   capldll.obj
 0001:00001020       ?appReadData@@YGHIH@Z      10002020 f   capldll.obj
 0001:00001110       ?ClearAll@@YAXXZ           10002110 f   capldll.obj
 0001:00001260       ?appSetLongtitude@@YGXH@Z  10002260 f   capldll.obj
 0001:00001390       ?appSetLatiude@@YGXH@Z     10002390 f   capldll.obj
 0001:000014c0       ?appSetTransmissionState@@YGXH@Z 100024c0 f   capldll.obj
 0001:000015f0       ?appSetSpeed@@YGXH@Z       100025f0 f   capldll.obj
 0001:00001720       ?appSetHeading@@YGXH@Z     10002720 f   capldll.obj
 0001:00001850       ?appSetLatAcceleration@@YGXH@Z 10002850 f   capldll.obj
 0001:00001980       ?appSetLongAcceleration@@YGXH@Z 10002980 f   capldll.obj
 0001:00001ab0       ?appSetBasicVehicleClass@@YGXH@Z 10002ab0 f   capldll.obj
 0001:00001be0       ?appSetEvent@@YGXPAD@Z     10002be0 f   capldll.obj
 0001:00001d10       ?appSetEmergencyExtensionsResponseType@@YGXH@Z 10002d10 f   capldll.obj
 0001:00001e40       ?appSetEmergencyExtensionsLightBarInUse@@YGXH@Z 10002e40 f   capldll.obj
 0001:00001f70       ?appSetId@@YGXPAD@Z        10002f70 f   capldll.obj
 0001:000020a0       ?appSetSecMark@@YGXH@Z     100030a0 f   capldll.obj
 0001:000021d0       ?appSetElevation@@YGXH@Z   100031d0 f   capldll.obj
 0001:00002300       ?appSetSemiMajor@@YGXH@Z   10003300 f   capldll.obj
 0001:00002430       ?appSetSemiMinor@@YGXH@Z   10003430 f   capldll.obj
 0001:00002560       ?appSetOrientation@@YGXH@Z 10003560 f   capldll.obj
 0001:00002690       ?appSetConfidencePosition@@YGXH@Z 10003690 f   capldll.obj
 0001:000027c0       ?appSetConfidenceElevation@@YGXH@Z 100037c0 f   capldll.obj
 0001:000028f0       ?appSetWheelAngle@@YGXH@Z  100038f0 f   capldll.obj
 0001:00002a20       ?appSetVertAcceleration@@YGXH@Z 10003a20 f   capldll.obj
 0001:00002b50       ?appSetYawAcceleration@@YGXH@Z 10003b50 f   capldll.obj
 0001:00002c80       ?appSetBrakePadel@@YGXH@Z  10003c80 f   capldll.obj
 0001:00002db0       ?appSetWheelBrakes@@YGXPAD@Z 10003db0 f   capldll.obj
 0001:00002ee0       ?appSetTraction@@YGXH@Z    10003ee0 f   capldll.obj
 0001:00003010       ?appSetABS@@YGXH@Z         10004010 f   capldll.obj
 0001:00003140       ?appSetSCS@@YGXH@Z         10004140 f   capldll.obj
 0001:00003270       ?appSetBrakeBoost@@YGXH@Z  10004270 f   capldll.obj
 0001:000033a0       ?appSetAuxBrakes@@YGXH@Z   100043a0 f   capldll.obj
 0001:000034d0       ?appSetVehicleWidth@@YGXH@Z 100044d0 f   capldll.obj
 0001:00003600       ?appSetVehicleLenth@@YGXH@Z 10004600 f   capldll.obj
 0001:00003730       ?appSetVehicleHeight@@YGXH@Z 10004730 f   capldll.obj
 0001:00003860       ?appSetVehicleFuelType@@YGXH@Z 10004860 f   capldll.obj
 0001:00003990       ?appSetLights@@YGXPAD@Z    10004990 f   capldll.obj
 0001:00003ac0       ?appSetSirenUse@@YGXH@Z    10004ac0 f   capldll.obj
 0001:00003bf0       ?appGetLatiude@@YGHXZ      10004bf0 f   capldll.obj
 0001:00003d30       ?appGetLongtitude@@YGHXZ   10004d30 f   capldll.obj
 0001:00003e70       ?appGetTransmissionState@@YGHXZ 10004e70 f   capldll.obj
 0001:00003fb0       ?appGetSpeed@@YGHXZ        10004fb0 f   capldll.obj
 0001:000040f0       ?appGetHeading@@YGHXZ      100050f0 f   capldll.obj
 0001:00004230       ?appGetLatAcceleration@@YGHXZ 10005230 f   capldll.obj
 0001:00004370       ?appGetLongAcceleration@@YGHXZ 10005370 f   capldll.obj
 0001:000044b0       ?appGetBasicVehicleClass@@YGHXZ 100054b0 f   capldll.obj
 0001:000045f0       ?appGetEvent@@YGHXZ        100055f0 f   capldll.obj
 0001:00004730       ?appGetEmergencyExtensionsResponseType@@YGHXZ 10005730 f   capldll.obj
 0001:00004870       ?appGetEmergencyExtensionsLightBarInUse@@YGHXZ 10005870 f   capldll.obj
 0001:000049b0       ?appGetId@@YGHXZ           100059b0 f   capldll.obj
 0001:00004af0       ?appGetSecMark@@YGHXZ      10005af0 f   capldll.obj
 0001:00004c30       ?appGetElevation@@YGHXZ    10005c30 f   capldll.obj
 0001:00004d70       ?appGetSemiMajor@@YGHXZ    10005d70 f   capldll.obj
 0001:00004eb0       ?appGetSemiMinor@@YGHXZ    10005eb0 f   capldll.obj
 0001:00004ff0       ?appGetOrientation@@YGHXZ  10005ff0 f   capldll.obj
 0001:00005130       ?appGetConfidencePosition@@YGHXZ 10006130 f   capldll.obj
 0001:00005270       ?appGetConfidenceElevation@@YGHXZ 10006270 f   capldll.obj
 0001:000053b0       ?appGetWheelAngle@@YGHXZ   100063b0 f   capldll.obj
 0001:000054f0       ?appGetVertAcceleration@@YGHXZ 100064f0 f   capldll.obj
 0001:00005630       ?appGetYawAcceleration@@YGHXZ 10006630 f   capldll.obj
 0001:00005770       ?appGetBrakePadel@@YGHXZ   10006770 f   capldll.obj
 0001:000058b0       ?appGetWheelBrakes@@YGHXZ  100068b0 f   capldll.obj
 0001:000059f0       ?appGetTraction@@YGHXZ     100069f0 f   capldll.obj
 0001:00005b30       ?appGetABS@@YGHXZ          10006b30 f   capldll.obj
 0001:00005c70       ?appGetSCS@@YGHXZ          10006c70 f   capldll.obj
 0001:00005db0       ?appGetBrakeBoost@@YGHXZ   10006db0 f   capldll.obj
 0001:00005ef0       ?appGetAuxBrakes@@YGHXZ    10006ef0 f   capldll.obj
 0001:00006030       ?appGetVehicleWidth@@YGHXZ 10007030 f   capldll.obj
 0001:00006170       ?appGetVehicleLenth@@YGHXZ 10007170 f   capldll.obj
 0001:000062b0       ?appGetVehicleHeight@@YGHXZ 100072b0 f   capldll.obj
 0001:000063f0       ?appGetVehicleFuelType@@YGHXZ 100073f0 f   capldll.obj
 0001:00006530       ?appGetLights@@YGHXZ       10007530 f   capldll.obj
 0001:00006670       ?appGetSirenUse@@YGHXZ     10007670 f   capldll.obj
 0001:000067b0       ??$?0$$V@?$_Compressed_pair@V?$allocator@D@std@@V?$_String_val@U?$_Simple_types@D@std@@@2@$00@std@@QAE@U_Zero_then_variadic_args_t@1@@Z 100077b0 f i capldll.obj
 0001:000067d0       ??$?0$$V@?$_Compressed_pair@V?$allocator@U?$_Tree_node@U?$pair@$$CBIPAVCaplInstanceData@@@std@@PAX@std@@@std@@V?$_Tree_val@U?$_Tree_simple_types@U?$pair@$$CBIPAVCaplInstanceData@@@std@@@std@@@2@$00@std@@QAE@U_Zero_then_variadic_args_t@1@@Z 100077d0 f i capldll.obj
 0001:000067f0       ??$?0$$V@?$_Compressed_pair@V?$allocator@U?$_Tree_node@U?$pair@$$CBIPAVVIACapl@@@std@@PAX@std@@@std@@V?$_Tree_val@U?$_Tree_simple_types@U?$pair@$$CBIPAVVIACapl@@@std@@@std@@@2@$00@std@@QAE@U_Zero_then_variadic_args_t@1@@Z 100077f0 f i capldll.obj
 0001:00006810       ??$?0AAV?$_Tree_const_iterator@V?$_Tree_val@U?$_Tree_simple_types@U?$pair@$$CBIPAVCaplInstanceData@@@std@@@std@@@std@@@std@@AAV01@$0A@@?$pair@V?$_Tree_const_iterator@V?$_Tree_val@U?$_Tree_simple_types@U?$pair@$$CBIPAVCaplInstanceData@@@std@@@std@@@std@@@std@@V12@@std@@QAE@AAV?$_Tree_const_iterator@V?$_Tree_val@U?$_Tree_simple_types@U?$pair@$$CBIPAVCaplInstanceData@@@std@@@std@@@std@@@1@0@Z 10007810 f i capldll.obj
 0001:00006850       ??$?0AAV?$_Tree_iterator@V?$_Tree_val@U?$_Tree_simple_types@U?$pair@$$CBIPAVCaplInstanceData@@@std@@@std@@@std@@@std@@AAV01@$0A@@?$pair@V?$_Tree_iterator@V?$_Tree_val@U?$_Tree_simple_types@U?$pair@$$CBIPAVCaplInstanceData@@@std@@@std@@@std@@@std@@V12@@std@@QAE@AAV?$_Tree_iterator@V?$_Tree_val@U?$_Tree_simple_types@U?$pair@$$CBIPAVCaplInstanceData@@@std@@@std@@@std@@@1@0@Z 10007850 f i capldll.obj
 0001:00006890       ??$?0AAV?$_Tree_iterator@V?$_Tree_val@U?$_Tree_simple_types@U?$pair@$$CBIPAVCaplInstanceData@@@std@@@std@@@std@@@std@@_N$0A@@?$pair@V?$_Tree_iterator@V?$_Tree_val@U?$_Tree_simple_types@U?$pair@$$CBIPAVCaplInstanceData@@@std@@@std@@@std@@@std@@_N@std@@QAE@AAV?$_Tree_iterator@V?$_Tree_val@U?$_Tree_simple_types@U?$pair@$$CBIPAVCaplInstanceData@@@std@@@std@@@std@@@1@$$QA_N@Z 10007890 f i capldll.obj
 0001:000068d0       ??$?0AAV?$_Tree_iterator@V?$_Tree_val@U?$_Tree_simple_types@U?$pair@$$CBIPAVVIACapl@@@std@@@std@@@std@@@std@@_N$0A@@?$pair@V?$_Tree_iterator@V?$_Tree_val@U?$_Tree_simple_types@U?$pair@$$CBIPAVVIACapl@@@std@@@std@@@std@@@std@@_N@std@@QAE@AAV?$_Tree_iterator@V?$_Tree_val@U?$_Tree_simple_types@U?$pair@$$CBIPAVVIACapl@@@std@@@std@@@std@@@1@$$QA_N@Z 100078d0 f i capldll.obj
 0001:00006910       ??$?0ABI$$Z$$V@?$pair@$$CBIPAVCaplInstanceData@@@std@@QAE@Upiecewise_construct_t@1@V?$tuple@ABI@1@V?$tuple@$$V@1@@Z 10007910 f i capldll.obj
 0001:00006940       ??$?0ABI$$Z$$V@?$pair@$$CBIPAVVIACapl@@@std@@QAE@Upiecewise_construct_t@1@V?$tuple@ABI@1@V?$tuple@$$V@1@@Z 10007940 f i capldll.obj
 0001:00006970       ??$?0ABI$0A@@?$tuple@ABI@std@@QAE@ABI@Z 10007970 f i capldll.obj
 0001:000069d0       ??$?0ABI@?$_Tuple_val@ABI@std@@QAE@ABI@Z 100079d0 f i capldll.obj
 0001:00006a00       ??$?0ABU?$less@I@std@@U_Zero_then_variadic_args_t@1@@?$_Compressed_pair@U?$less@I@std@@V?$_Compressed_pair@V?$allocator@U?$_Tree_node@U?$pair@$$CBIPAVCaplInstanceData@@@std@@PAX@std@@@std@@V?$_Tree_val@U?$_Tree_simple_types@U?$pair@$$CBIPAVCaplInstanceData@@@std@@@std@@@2@$00@2@$00@std@@QAE@U_One_then_variadic_args_t@1@ABU?$less@I@1@$$QAU_Zero_then_variadic_args_t@1@@Z 10007a00 f i capldll.obj
 0001:00006a40       ??$?0ABU?$less@I@std@@U_Zero_then_variadic_args_t@1@@?$_Compressed_pair@U?$less@I@std@@V?$_Compressed_pair@V?$allocator@U?$_Tree_node@U?$pair@$$CBIPAVVIACapl@@@std@@PAX@std@@@std@@V?$_Tree_val@U?$_Tree_simple_types@U?$pair@$$CBIPAVVIACapl@@@std@@@std@@@2@$00@2@$00@std@@QAE@U_One_then_variadic_args_t@1@ABU?$less@I@1@$$QAU_Zero_then_variadic_args_t@1@@Z 10007a40 f i capldll.obj
 0001:00006a80       ??$?0D@?$allocator@U_Container_proxy@std@@@std@@QAE@ABV?$allocator@D@1@@Z 10007a80 f i capldll.obj
 0001:00006a90       ??$?0PAVValue@Json@@@?$allocator@PAPAVValue@Json@@@std@@QAE@ABV?$allocator@PAVValue@Json@@@1@@Z 10007a90 f i capldll.obj
 0001:00006aa0       ??$?0PAVValue@Json@@@?$allocator@U_Container_proxy@std@@@std@@QAE@ABV?$allocator@PAVValue@Json@@@1@@Z 10007aa0 f i capldll.obj
 0001:00006ab0       ??$?0U?$_Tree_node@U?$pair@$$CBIPAVCaplInstanceData@@@std@@PAX@std@@@?$allocator@U_Container_proxy@std@@@std@@QAE@ABV?$allocator@U?$_Tree_node@U?$pair@$$CBIPAVCaplInstanceData@@@std@@PAX@std@@@1@@Z 10007ab0 f i capldll.obj
 0001:00006ac0       ??$?0U?$_Tree_node@U?$pair@$$CBIPAVVIACapl@@@std@@PAX@std@@@?$allocator@U_Container_proxy@std@@@std@@QAE@ABV?$allocator@U?$_Tree_node@U?$pair@$$CBIPAVVIACapl@@@std@@PAX@std@@@1@@Z 10007ac0 f i capldll.obj
 0001:00006ad0       ??$?0U_Exact_args_t@std@@$0A@@?$tuple@$$V@std@@QAE@U_Exact_args_t@1@@Z 10007ad0 f i capldll.obj
 0001:00006ae0       ??$?0U_Exact_args_t@std@@ABI$$V$0A@@?$tuple@ABI@std@@QAE@U_Exact_args_t@1@ABI@Z 10007ae0 f i capldll.obj
 0001:00006b20       ??$?0V?$_Tree_iterator@V?$_Tree_val@U?$_Tree_simple_types@U?$pair@$$CBIPAVCaplInstanceData@@@std@@@std@@@std@@@std@@_N$0A@@?$pair@V?$_Tree_iterator@V?$_Tree_val@U?$_Tree_simple_types@U?$pair@$$CBIPAVCaplInstanceData@@@std@@@std@@@std@@@std@@_N@std@@QAE@$$QAV?$_Tree_iterator@V?$_Tree_val@U?$_Tree_simple_types@U?$pair@$$CBIPAVCaplInstanceData@@@std@@@std@@@std@@@1@$$QA_N@Z 10007b20 f i capldll.obj
 0001:00006b60       ??$?0V?$_Tree_iterator@V?$_Tree_val@U?$_Tree_simple_types@U?$pair@$$CBIPAVVIACapl@@@std@@@std@@@std@@@std@@_N$0A@@?$pair@V?$_Tree_iterator@V?$_Tree_val@U?$_Tree_simple_types@U?$pair@$$CBIPAVVIACapl@@@std@@@std@@@std@@@std@@_N@std@@QAE@$$QAV?$_Tree_iterator@V?$_Tree_val@U?$_Tree_simple_types@U?$pair@$$CBIPAVVIACapl@@@std@@@std@@@std@@@1@$$QA_N@Z 10007b60 f i capldll.obj
 0001:00006ba0       ??$?0V?$basic_string@DU?$char_traits@D@std@@V?$allocator@D@2@@std@@@?$allocator@U_Container_proxy@std@@@std@@QAE@ABV?$allocator@V?$basic_string@DU?$char_traits@D@std@@V?$allocator@D@2@@std@@@1@@Z 10007ba0 f i capldll.obj
 0001:00006bb0       ??$?0V?$tuple@ABI@std@@V?$tuple@$$V@1@$0A@$$Z$S@?$pair@$$CBIPAVCaplInstanceData@@@std@@QAE@AAV?$tuple@ABI@1@AAV?$tuple@$$V@1@U?$integer_sequence@I$0A@@1@U?$integer_sequence@I$S@1@@Z 10007bb0 f i capldll.obj
 0001:00006bf0       ??$?0V?$tuple@ABI@std@@V?$tuple@$$V@1@$0A@$$Z$S@?$pair@$$CBIPAVVIACapl@@@std@@QAE@AAV?$tuple@ABI@1@AAV?$tuple@$$V@1@U?$integer_sequence@I$0A@@1@U?$integer_sequence@I$S@1@@Z 10007bf0 f i capldll.obj
 0001:00006c30       ??$?0VErrorInfo@Reader@Json@@@?$allocator@PAVErrorInfo@Reader@Json@@@std@@QAE@ABV?$allocator@VErrorInfo@Reader@Json@@@1@@Z 10007c30 f i capldll.obj
 0001:00006c40       ??$?0VErrorInfo@Reader@Json@@@?$allocator@U_Container_proxy@std@@@std@@QAE@ABV?$allocator@VErrorInfo@Reader@Json@@@1@@Z 10007c40 f i capldll.obj
 0001:00006c50       ??$_Allocate@$07U_Default_allocate_traits@std@@$0A@@std@@YAPAXI@Z 10007c50 f i capldll.obj
 0001:00006c90       ??$_Allocate_manually_vector_aligned@U_Default_allocate_traits@std@@@std@@YAPAXI@Z 10007c90 f i capldll.obj
 0001:00006d50       ??$_Buy_if_not_node@AAU?$pair@$$CBIPAVCaplInstanceData@@@std@@@?$_Tree@V?$_Tmap_traits@IPAVCaplInstanceData@@U?$less@I@std@@V?$allocator@U?$pair@$$CBIPAVCaplInstanceData@@@std@@@3@$0A@@std@@@std@@IAEPAU?$_Tree_node@U?$pair@$$CBIPAVCaplInstanceData@@@std@@PAX@1@PAU21@AAU?$pair@$$CBIPAVCaplInstanceData@@@1@@Z 10007d50 f i capldll.obj
 0001:00006d60       ??$_Buy_if_not_node@AAU?$pair@$$CBIPAVVIACapl@@@std@@@?$_Tree@V?$_Tmap_traits@IPAVVIACapl@@U?$less@I@std@@V?$allocator@U?$pair@$$CBIPAVVIACapl@@@std@@@3@$0A@@std@@@std@@IAEPAU?$_Tree_node@U?$pair@$$CBIPAVVIACapl@@@std@@PAX@1@PAU21@AAU?$pair@$$CBIPAVVIACapl@@@1@@Z 10007d60 f i capldll.obj
 0001:00006d70       ??$_Buynode@ABUpiecewise_construct_t@std@@V?$tuple@ABI@2@V?$tuple@$$V@2@@?$_Tree_comp_alloc@V?$_Tmap_traits@IPAVCaplInstanceData@@U?$less@I@std@@V?$allocator@U?$pair@$$CBIPAVCaplInstanceData@@@std@@@3@$0A@@std@@@std@@QAEPAU?$_Tree_node@U?$pair@$$CBIPAVCaplInstanceData@@@std@@PAX@1@ABUpiecewise_construct_t@1@$$QAV?$tuple@ABI@1@$$QAV?$tuple@$$V@1@@Z 10007d70 f i capldll.obj
 0001:00006e50       ??$_Buynode@ABUpiecewise_construct_t@std@@V?$tuple@ABI@2@V?$tuple@$$V@2@@?$_Tree_comp_alloc@V?$_Tmap_traits@IPAVVIACapl@@U?$less@I@std@@V?$allocator@U?$pair@$$CBIPAVVIACapl@@@std@@@3@$0A@@std@@@std@@QAEPAU?$_Tree_node@U?$pair@$$CBIPAVVIACapl@@@std@@PAX@1@ABUpiecewise_construct_t@1@$$QAV?$tuple@ABI@1@$$QAV?$tuple@$$V@1@@Z 10007e50 f i capldll.obj
 0001:00006f30       ??$_Convert_size@I@std@@YAII@Z 10007f30 f i capldll.obj
 0001:00006f40       ??$_Deallocate@$07$0A@@std@@YAXPAXI@Z 10007f40 f i capldll.obj
 0001:00006f70       ??$_Deallocate_plain@V?$allocator@U_Container_proxy@std@@@std@@$0A@@std@@YAXAAV?$allocator@U_Container_proxy@std@@@0@QAU_Container_proxy@0@@Z 10007f70 f i capldll.obj
 0001:00006f90       ??$_Debug_lt_pred@AAU?$less@I@std@@ABIABI@std@@YA_NAAU?$less@I@0@ABI1@Z 10007f90 f i capldll.obj
 0001:00007020       ??$_Debug_lt_pred@ABU?$less@I@std@@ABIABI@std@@YA_NABU?$less@I@0@ABI1@Z 10008020 f i capldll.obj
 0001:000070b0       ??$_Destroy_range1@V?$allocator@V?$basic_string@DU?$char_traits@D@std@@V?$allocator@D@2@@std@@@std@@@std@@YAXPAV?$basic_string@DU?$char_traits@D@std@@V?$allocator@D@2@@0@0AAV?$allocator@V?$basic_string@DU?$char_traits@D@std@@V?$allocator@D@2@@std@@@0@U?$integral_constant@_N$0A@@0@@Z 100080b0 f i capldll.obj
 0001:000070f0       ??$_Destroy_range@V?$allocator@V?$basic_string@DU?$char_traits@D@std@@V?$allocator@D@2@@std@@@std@@@std@@YAXPAV?$basic_string@DU?$char_traits@D@std@@V?$allocator@D@2@@0@0AAV?$allocator@V?$basic_string@DU?$char_traits@D@std@@V?$allocator@D@2@@std@@@0@@Z 100080f0 f i capldll.obj
 0001:00007120       ??$_Distance1@V?$_Tree_iterator@V?$_Tree_val@U?$_Tree_simple_types@U?$pair@$$CBIPAVCaplInstanceData@@@std@@@std@@@std@@@std@@@std@@YAHV?$_Tree_iterator@V?$_Tree_val@U?$_Tree_simple_types@U?$pair@$$CBIPAVCaplInstanceData@@@std@@@std@@@std@@@0@0Uinput_iterator_tag@0@@Z 10008120 f i capldll.obj
 0001:000071b0       ??$_Eqrange@I@?$_Tree@V?$_Tmap_traits@IPAVCaplInstanceData@@U?$less@I@std@@V?$allocator@U?$pair@$$CBIPAVCaplInstanceData@@@std@@@3@$0A@@std@@@std@@IAE?AU?$pair@V?$_Tree_iterator@V?$_Tree_val@U?$_Tree_simple_types@U?$pair@$$CBIPAVCaplInstanceData@@@std@@@std@@@std@@@std@@V12@@1@ABI@Z 100081b0 f i capldll.obj
 0001:00007280       ??$_Eqrange@I@?$_Tree@V?$_Tmap_traits@IPAVCaplInstanceData@@U?$less@I@std@@V?$allocator@U?$pair@$$CBIPAVCaplInstanceData@@@std@@@3@$0A@@std@@@std@@IBE?AU?$pair@V?$_Tree_const_iterator@V?$_Tree_val@U?$_Tree_simple_types@U?$pair@$$CBIPAVCaplInstanceData@@@std@@@std@@@std@@@std@@V12@@1@ABI@Z 10008280 f i capldll.obj
 0001:00007460       ??$_Freenode0@V?$allocator@U?$_Tree_node@U?$pair@$$CBIPAVCaplInstanceData@@@std@@PAX@std@@@std@@@?$_Tree_node@U?$pair@$$CBIPAVCaplInstanceData@@@std@@PAX@std@@SAXAAV?$allocator@U?$_Tree_node@U?$pair@$$CBIPAVCaplInstanceData@@@std@@PAX@std@@@1@PAU01@@Z 10008460 f i capldll.obj
 0001:00007500       ??$_Freenode0@V?$allocator@U?$_Tree_node@U?$pair@$$CBIPAVVIACapl@@@std@@PAX@std@@@std@@@?$_Tree_node@U?$pair@$$CBIPAVVIACapl@@@std@@PAX@std@@SAXAAV?$allocator@U?$_Tree_node@U?$pair@$$CBIPAVVIACapl@@@std@@PAX@std@@@1@PAU01@@Z 10008500 f i capldll.obj
 0001:000075a0       ??$_Get_size_of_n@$00@std@@YAII@Z 100085a0 f i capldll.obj
 0001:000075b0       ??$_Get_size_of_n@$07@std@@YAII@Z 100085b0 f i capldll.obj
 0001:000075e0       ??$_Get_size_of_n@$0BI@@std@@YAII@Z 100085e0 f i capldll.obj
 0001:00007610       ??$_Insert_at@AAU?$pair@$$CBIPAVCaplInstanceData@@@std@@PAU?$_Tree_node@U?$pair@$$CBIPAVCaplInstanceData@@@std@@PAX@2@@?$_Tree@V?$_Tmap_traits@IPAVCaplInstanceData@@U?$less@I@std@@V?$allocator@U?$pair@$$CBIPAVCaplInstanceData@@@std@@@3@$0A@@std@@@std@@IAE?AV?$_Tree_iterator@V?$_Tree_val@U?$_Tree_simple_types@U?$pair@$$CBIPAVCaplInstanceData@@@std@@@std@@@std@@@1@_NPAU?$_Tree_node@U?$pair@$$CBIPAVCaplInstanceData@@@std@@PAX@1@AAU?$pair@$$CBIPAVCaplInstanceData@@@1@1@Z 10008610 f i capldll.obj
 0001:000078b0       ??$_Insert_at@AAU?$pair@$$CBIPAVVIACapl@@@std@@PAU?$_Tree_node@U?$pair@$$CBIPAVVIACapl@@@std@@PAX@2@@?$_Tree@V?$_Tmap_traits@IPAVVIACapl@@U?$less@I@std@@V?$allocator@U?$pair@$$CBIPAVVIACapl@@@std@@@3@$0A@@std@@@std@@IAE?AV?$_Tree_iterator@V?$_Tree_val@U?$_Tree_simple_types@U?$pair@$$CBIPAVVIACapl@@@std@@@std@@@std@@@1@_NPAU?$_Tree_node@U?$pair@$$CBIPAVVIACapl@@@std@@PAX@1@AAU?$pair@$$CBIPAVVIACapl@@@1@1@Z 100088b0 f i capldll.obj
 0001:00007b50       ??$_Insert_hint@AAU?$pair@$$CBIPAVCaplInstanceData@@@std@@PAU?$_Tree_node@U?$pair@$$CBIPAVCaplInstanceData@@@std@@PAX@2@@?$_Tree@V?$_Tmap_traits@IPAVCaplInstanceData@@U?$less@I@std@@V?$allocator@U?$pair@$$CBIPAVCaplInstanceData@@@std@@@3@$0A@@std@@@std@@IAE?AV?$_Tree_iterator@V?$_Tree_val@U?$_Tree_simple_types@U?$pair@$$CBIPAVCaplInstanceData@@@std@@@std@@@std@@@1@V?$_Tree_const_iterator@V?$_Tree_val@U?$_Tree_simple_types@U?$pair@$$CBIPAVCaplInstanceData@@@std@@@std@@@std@@@1@AAU?$pair@$$CBIPAVCaplInstanceData@@@1@PAU?$_Tree_node@U?$pair@$$CBIPAVCaplInstanceData@@@std@@PAX@1@@Z 10008b50 f i capldll.obj
 0001:00008800       ??$_Insert_hint@AAU?$pair@$$CBIPAVVIACapl@@@std@@PAU?$_Tree_node@U?$pair@$$CBIPAVVIACapl@@@std@@PAX@2@@?$_Tree@V?$_Tmap_traits@IPAVVIACapl@@U?$less@I@std@@V?$allocator@U?$pair@$$CBIPAVVIACapl@@@std@@@3@$0A@@std@@@std@@IAE?AV?$_Tree_iterator@V?$_Tree_val@U?$_Tree_simple_types@U?$pair@$$CBIPAVVIACapl@@@std@@@std@@@std@@@1@V?$_Tree_const_iterator@V?$_Tree_val@U?$_Tree_simple_types@U?$pair@$$CBIPAVVIACapl@@@std@@@std@@@std@@@1@AAU?$pair@$$CBIPAVVIACapl@@@1@PAU?$_Tree_node@U?$pair@$$CBIPAVVIACapl@@@std@@PAX@1@@Z 10009800 f i capldll.obj
 0001:000094b0       ??$_Insert_nohint@AAU?$pair@$$CBIPAVCaplInstanceData@@@std@@PAU?$_Tree_node@U?$pair@$$CBIPAVCaplInstanceData@@@std@@PAX@2@@?$_Tree@V?$_Tmap_traits@IPAVCaplInstanceData@@U?$less@I@std@@V?$allocator@U?$pair@$$CBIPAVCaplInstanceData@@@std@@@3@$0A@@std@@@std@@IAE?AU?$pair@V?$_Tree_iterator@V?$_Tree_val@U?$_Tree_simple_types@U?$pair@$$CBIPAVCaplInstanceData@@@std@@@std@@@std@@@std@@_N@1@_NAAU?$pair@$$CBIPAVCaplInstanceData@@@1@PAU?$_Tree_node@U?$pair@$$CBIPAVCaplInstanceData@@@std@@PAX@1@@Z 1000a4b0 f i capldll.obj
 0001:00009870       ??$_Insert_nohint@AAU?$pair@$$CBIPAVVIACapl@@@std@@PAU?$_Tree_node@U?$pair@$$CBIPAVVIACapl@@@std@@PAX@2@@?$_Tree@V?$_Tmap_traits@IPAVVIACapl@@U?$less@I@std@@V?$allocator@U?$pair@$$CBIPAVVIACapl@@@std@@@3@$0A@@std@@@std@@IAE?AU?$pair@V?$_Tree_iterator@V?$_Tree_val@U?$_Tree_simple_types@U?$pair@$$CBIPAVVIACapl@@@std@@@std@@@std@@@std@@_N@1@_NAAU?$pair@$$CBIPAVVIACapl@@@1@PAU?$_Tree_node@U?$pair@$$CBIPAVVIACapl@@@std@@PAX@1@@Z 1000a870 f i capldll.obj
 0001:00009c30       ??$_Kfn@$$CBIPAVCaplInstanceData@@@?$_Tmap_traits@IPAVCaplInstanceData@@U?$less@I@std@@V?$allocator@U?$pair@$$CBIPAVCaplInstanceData@@@std@@@3@$0A@@std@@SAABIABU?$pair@$$CBIPAVCaplInstanceData@@@1@@Z 1000ac30 f i capldll.obj
 0001:00009c40       ??$_Kfn@$$CBIPAVVIACapl@@@?$_Tmap_traits@IPAVVIACapl@@U?$less@I@std@@V?$allocator@U?$pair@$$CBIPAVVIACapl@@@std@@@3@$0A@@std@@SAABIABU?$pair@$$CBIPAVVIACapl@@@1@@Z 1000ac40 f i capldll.obj
 0001:00009c50       ??$_Lbound@I@?$_Tree@V?$_Tmap_traits@IPAVCaplInstanceData@@U?$less@I@std@@V?$allocator@U?$pair@$$CBIPAVCaplInstanceData@@@std@@@3@$0A@@std@@@std@@IBEPAU?$_Tree_node@U?$pair@$$CBIPAVCaplInstanceData@@@std@@PAX@1@ABI@Z 1000ac50 f i capldll.obj
 0001:00009cc0       ??$_Lbound@I@?$_Tree@V?$_Tmap_traits@IPAVVIACapl@@U?$less@I@std@@V?$allocator@U?$pair@$$CBIPAVVIACapl@@@std@@@3@$0A@@std@@@std@@IBEPAU?$_Tree_node@U?$pair@$$CBIPAVVIACapl@@@std@@PAX@1@ABI@Z 1000acc0 f i capldll.obj
 0001:00009d30       ??$_Max_value@I@std@@YAABIABI0@Z 1000ad30 f i capldll.obj
 0001:00009d60       ??$_Min_value@I@std@@YAABIABI0@Z 1000ad60 f i capldll.obj
 0001:00009d90       ??$_Reallocate_for@V<lambda_9366063389c5f42a00a5088cf24e69de>@@PBD@?$basic_string@DU?$char_traits@D@std@@V?$allocator@D@2@@std@@QAEAAV01@IV<lambda_9366063389c5f42a00a5088cf24e69de>@@PBD@Z 1000ad90 f i capldll.obj
 0001:00009e80       ??$_Try_emplace@ABI$$V@?$map@IPAVCaplInstanceData@@U?$less@I@std@@V?$allocator@U?$pair@$$CBIPAVCaplInstanceData@@@std@@@3@@std@@QAE?AU?$pair@V?$_Tree_iterator@V?$_Tree_val@U?$_Tree_simple_types@U?$pair@$$CBIPAVCaplInstanceData@@@std@@@std@@@std@@@std@@_N@1@ABI@Z 1000ae80 f i capldll.obj
 0001:0000a050       ??$_Try_emplace@ABI$$V@?$map@IPAVVIACapl@@U?$less@I@std@@V?$allocator@U?$pair@$$CBIPAVVIACapl@@@std@@@3@@std@@QAE?AU?$pair@V?$_Tree_iterator@V?$_Tree_val@U?$_Tree_simple_types@U?$pair@$$CBIPAVVIACapl@@@std@@@std@@@std@@@std@@_N@1@ABI@Z 1000b050 f i capldll.obj
 0001:0000a220       ??$_Unfancy@D@std@@YAPADPAD@Z 1000b220 f i capldll.obj
 0001:0000a230       ??$_Unfancy@PAVValue@Json@@@std@@YAPAPAVValue@Json@@PAPAV12@@Z 1000b230 f i capldll.obj
 0001:0000a240       ??$_Unfancy@U_Container_proxy@std@@@std@@YAPAU_Container_proxy@0@PAU10@@Z 1000b240 f i capldll.obj
 0001:0000a250       ??$_Unfancy@V?$basic_string@DU?$char_traits@D@std@@V?$allocator@D@2@@std@@@std@@YAPAV?$basic_string@DU?$char_traits@D@std@@V?$allocator@D@2@@0@PAV10@@Z 1000b250 f i capldll.obj
 0001:0000a260       ??$_Unfancy@VErrorInfo@Reader@Json@@@std@@YAPAVErrorInfo@Reader@Json@@PAV123@@Z 1000b260 f i capldll.obj
 0001:0000a270       ??$addressof@$$CBV?$_Tree_val@U?$_Tree_simple_types@U?$pair@$$CBIPAVCaplInstanceData@@@std@@@std@@@std@@@std@@YAPBV?$_Tree_val@U?$_Tree_simple_types@U?$pair@$$CBIPAVCaplInstanceData@@@std@@@std@@@0@ABV10@@Z 1000b270 f i capldll.obj
 0001:0000a280       ??$addressof@PAD@std@@YAPAPADAAPAD@Z 1000b280 f i capldll.obj
 0001:0000a290       ??$addressof@PAPAVValue@Json@@@std@@YAPAPAPAVValue@Json@@AAPAPAV12@@Z 1000b290 f i capldll.obj
 0001:0000a2a0       ??$addressof@PAU?$_Tree_node@U?$pair@$$CBIPAVCaplInstanceData@@@std@@PAX@std@@@std@@YAPAPAU?$_Tree_node@U?$pair@$$CBIPAVCaplInstanceData@@@std@@PAX@0@AAPAU10@@Z 1000b2a0 f i capldll.obj
 0001:0000a2b0       ??$addressof@PAU?$_Tree_node@U?$pair@$$CBIPAVVIACapl@@@std@@PAX@std@@@std@@YAPAPAU?$_Tree_node@U?$pair@$$CBIPAVVIACapl@@@std@@PAX@0@AAPAU10@@Z 1000b2b0 f i capldll.obj
 0001:0000a2c0       ??$addressof@PAVErrorInfo@Reader@Json@@@std@@YAPAPAVErrorInfo@Reader@Json@@AAPAV123@@Z 1000b2c0 f i capldll.obj
 0001:0000a2d0       ??$addressof@U?$pair@$$CBIPAVCaplInstanceData@@@std@@@std@@YAPAU?$pair@$$CBIPAVCaplInstanceData@@@0@AAU10@@Z 1000b2d0 f i capldll.obj
 0001:0000a2e0       ??$addressof@U?$pair@$$CBIPAVVIACapl@@@std@@@std@@YAPAU?$pair@$$CBIPAVVIACapl@@@0@AAU10@@Z 1000b2e0 f i capldll.obj
 0001:0000a2f0       ??$addressof@V?$_String_val@U?$_Simple_types@D@std@@@std@@@std@@YAPAV?$_String_val@U?$_Simple_types@D@std@@@0@AAV10@@Z 1000b2f0 f i capldll.obj
 0001:0000a300       ??$addressof@V?$_Tree_val@U?$_Tree_simple_types@U?$pair@$$CBIPAVCaplInstanceData@@@std@@@std@@@std@@@std@@YAPAV?$_Tree_val@U?$_Tree_simple_types@U?$pair@$$CBIPAVCaplInstanceData@@@std@@@std@@@0@AAV10@@Z 1000b300 f i capldll.obj
 0001:0000a310       ??$addressof@V?$_Tree_val@U?$_Tree_simple_types@U?$pair@$$CBIPAVVIACapl@@@std@@@std@@@std@@@std@@YAPAV?$_Tree_val@U?$_Tree_simple_types@U?$pair@$$CBIPAVVIACapl@@@std@@@std@@@0@AAV10@@Z 1000b310 f i capldll.obj
 0001:0000a320       ??$construct@PADABQAD@?$_Default_allocator_traits@V?$allocator@D@std@@@std@@SAXAAV?$allocator@D@1@QAPADABQAD@Z 1000b320 f i capldll.obj
 0001:0000a350       ??$construct@PAU?$_Tree_node@U?$pair@$$CBIPAVCaplInstanceData@@@std@@PAX@std@@AAPAU12@@?$_Default_allocator_traits@V?$allocator@U?$_Tree_node@U?$pair@$$CBIPAVCaplInstanceData@@@std@@PAX@std@@@std@@@std@@SAXAAV?$allocator@U?$_Tree_node@U?$pair@$$CBIPAVCaplInstanceData@@@std@@PAX@std@@@1@QAPAU?$_Tree_node@U?$pair@$$CBIPAVCaplInstanceData@@@std@@PAX@1@AAPAU31@@Z 1000b350 f i capldll.obj
 0001:0000a380       ??$construct@PAU?$_Tree_node@U?$pair@$$CBIPAVVIACapl@@@std@@PAX@std@@AAPAU12@@?$_Default_allocator_traits@V?$allocator@U?$_Tree_node@U?$pair@$$CBIPAVVIACapl@@@std@@PAX@std@@@std@@@std@@SAXAAV?$allocator@U?$_Tree_node@U?$pair@$$CBIPAVVIACapl@@@std@@PAX@std@@@1@QAPAU?$_Tree_node@U?$pair@$$CBIPAVVIACapl@@@std@@PAX@1@AAPAU31@@Z 1000b380 f i capldll.obj
 0001:0000a3b0       ??$construct@U?$pair@$$CBIPAVCaplInstanceData@@@std@@ABUpiecewise_construct_t@2@V?$tuple@ABI@2@V?$tuple@$$V@2@@?$_Default_allocator_traits@V?$allocator@U?$_Tree_node@U?$pair@$$CBIPAVCaplInstanceData@@@std@@PAX@std@@@std@@@std@@SAXAAV?$allocator@U?$_Tree_node@U?$pair@$$CBIPAVCaplInstanceData@@@std@@PAX@std@@@1@QAU?$pair@$$CBIPAVCaplInstanceData@@@1@ABUpiecewise_construct_t@1@$$QAV?$tuple@ABI@1@$$QAV?$tuple@$$V@1@@Z 1000b3b0 f i capldll.obj
 0001:0000a420       ??$construct@U?$pair@$$CBIPAVVIACapl@@@std@@ABUpiecewise_construct_t@2@V?$tuple@ABI@2@V?$tuple@$$V@2@@?$_Default_allocator_traits@V?$allocator@U?$_Tree_node@U?$pair@$$CBIPAVVIACapl@@@std@@PAX@std@@@std@@@std@@SAXAAV?$allocator@U?$_Tree_node@U?$pair@$$CBIPAVVIACapl@@@std@@PAX@std@@@1@QAU?$pair@$$CBIPAVVIACapl@@@1@ABUpiecewise_construct_t@1@$$QAV?$tuple@ABI@1@$$QAV?$tuple@$$V@1@@Z 1000b420 f i capldll.obj
 0001:0000a490       ??$construct@U_Container_proxy@std@@U12@@?$_Default_allocator_traits@V?$allocator@U_Container_proxy@std@@@std@@@std@@SAXAAV?$allocator@U_Container_proxy@std@@@1@QAU_Container_proxy@1@$$QAU31@@Z 1000b490 f i capldll.obj
 0001:0000a4d0       ??$destroy@PAD@?$_Default_allocator_traits@V?$allocator@D@std@@@std@@SAXAAV?$allocator@D@1@QAPAD@Z 1000b4d0 f i capldll.obj
 0001:0000a4e0       ??$destroy@PAPAVValue@Json@@@?$_Default_allocator_traits@V?$allocator@PAPAVValue@Json@@@std@@@std@@SAXAAV?$allocator@PAPAVValue@Json@@@1@QAPAPAVValue@Json@@@Z 1000b4e0 f i capldll.obj
 0001:0000a4f0       ??$destroy@PAU?$_Tree_node@U?$pair@$$CBIPAVCaplInstanceData@@@std@@PAX@std@@@?$_Default_allocator_traits@V?$allocator@U?$_Tree_node@U?$pair@$$CBIPAVCaplInstanceData@@@std@@PAX@std@@@std@@@std@@SAXAAV?$allocator@U?$_Tree_node@U?$pair@$$CBIPAVCaplInstanceData@@@std@@PAX@std@@@1@QAPAU?$_Tree_node@U?$pair@$$CBIPAVCaplInstanceData@@@std@@PAX@1@@Z 1000b4f0 f i capldll.obj
 0001:0000a500       ??$destroy@PAU?$_Tree_node@U?$pair@$$CBIPAVVIACapl@@@std@@PAX@std@@@?$_Default_allocator_traits@V?$allocator@U?$_Tree_node@U?$pair@$$CBIPAVVIACapl@@@std@@PAX@std@@@std@@@std@@SAXAAV?$allocator@U?$_Tree_node@U?$pair@$$CBIPAVVIACapl@@@std@@PAX@std@@@1@QAPAU?$_Tree_node@U?$pair@$$CBIPAVVIACapl@@@std@@PAX@1@@Z 1000b500 f i capldll.obj
 0001:0000a510       ??$destroy@PAVErrorInfo@Reader@Json@@@?$_Default_allocator_traits@V?$allocator@PAVErrorInfo@Reader@Json@@@std@@@std@@SAXAAV?$allocator@PAVErrorInfo@Reader@Json@@@1@QAPAVErrorInfo@Reader@Json@@@Z 1000b510 f i capldll.obj
 0001:0000a520       ??$destroy@PAVValue@Json@@@?$_Default_allocator_traits@V?$allocator@PAVValue@Json@@@std@@@std@@SAXAAV?$allocator@PAVValue@Json@@@1@QAPAVValue@Json@@@Z 1000b520 f i capldll.obj
 0001:0000a530       ??$destroy@U?$pair@$$CBIPAVCaplInstanceData@@@std@@@?$_Default_allocator_traits@V?$allocator@U?$_Tree_node@U?$pair@$$CBIPAVCaplInstanceData@@@std@@PAX@std@@@std@@@std@@SAXAAV?$allocator@U?$_Tree_node@U?$pair@$$CBIPAVCaplInstanceData@@@std@@PAX@std@@@1@QAU?$pair@$$CBIPAVCaplInstanceData@@@1@@Z 1000b530 f i capldll.obj
 0001:0000a540       ??$destroy@U?$pair@$$CBIPAVVIACapl@@@std@@@?$_Default_allocator_traits@V?$allocator@U?$_Tree_node@U?$pair@$$CBIPAVVIACapl@@@std@@PAX@std@@@std@@@std@@SAXAAV?$allocator@U?$_Tree_node@U?$pair@$$CBIPAVVIACapl@@@std@@PAX@std@@@1@QAU?$pair@$$CBIPAVVIACapl@@@1@@Z 1000b540 f i capldll.obj
 0001:0000a550       ??$destroy@U_Container_proxy@std@@@?$_Default_allocator_traits@V?$allocator@U_Container_proxy@std@@@std@@@std@@SAXAAV?$allocator@U_Container_proxy@std@@@1@QAU_Container_proxy@1@@Z 1000b550 f i capldll.obj
 0001:0000a560       ??$destroy@V?$basic_string@DU?$char_traits@D@std@@V?$allocator@D@2@@std@@@?$_Default_allocator_traits@V?$allocator@V?$basic_string@DU?$char_traits@D@std@@V?$allocator@D@2@@std@@@std@@@std@@SAXAAV?$allocator@V?$basic_string@DU?$char_traits@D@std@@V?$allocator@D@2@@std@@@1@QAV?$basic_string@DU?$char_traits@D@std@@V?$allocator@D@2@@1@@Z 1000b560 f i capldll.obj
 0001:0000a570       ??$destroy@VErrorInfo@Reader@Json@@@?$_Default_allocator_traits@V?$allocator@VErrorInfo@Reader@Json@@@std@@@std@@SAXAAV?$allocator@VErrorInfo@Reader@Json@@@1@QAVErrorInfo@Reader@Json@@@Z 1000b570 f i capldll.obj
 0001:0000a580       ??$distance@V?$_Tree_iterator@V?$_Tree_val@U?$_Tree_simple_types@U?$pair@$$CBIPAVCaplInstanceData@@@std@@@std@@@std@@@std@@@std@@YAHV?$_Tree_iterator@V?$_Tree_val@U?$_Tree_simple_types@U?$pair@$$CBIPAVCaplInstanceData@@@std@@@std@@@std@@@0@0@Z 1000b580 f i capldll.obj
 0001:0000a620       ??$emplace_hint@ABUpiecewise_construct_t@std@@V?$tuple@ABI@2@V?$tuple@$$V@2@@?$_Tree@V?$_Tmap_traits@IPAVCaplInstanceData@@U?$less@I@std@@V?$allocator@U?$pair@$$CBIPAVCaplInstanceData@@@std@@@3@$0A@@std@@@std@@QAE?AV?$_Tree_iterator@V?$_Tree_val@U?$_Tree_simple_types@U?$pair@$$CBIPAVCaplInstanceData@@@std@@@std@@@std@@@1@V?$_Tree_const_iterator@V?$_Tree_val@U?$_Tree_simple_types@U?$pair@$$CBIPAVCaplInstanceData@@@std@@@std@@@std@@@1@ABUpiecewise_construct_t@1@$$QAV?$tuple@ABI@1@$$QAV?$tuple@$$V@1@@Z 1000b620 f i capldll.obj
 0001:0000a6e0       ??$emplace_hint@ABUpiecewise_construct_t@std@@V?$tuple@ABI@2@V?$tuple@$$V@2@@?$_Tree@V?$_Tmap_traits@IPAVVIACapl@@U?$less@I@std@@V?$allocator@U?$pair@$$CBIPAVVIACapl@@@std@@@3@$0A@@std@@@std@@QAE?AV?$_Tree_iterator@V?$_Tree_val@U?$_Tree_simple_types@U?$pair@$$CBIPAVVIACapl@@@std@@@std@@@std@@@1@V?$_Tree_const_iterator@V?$_Tree_val@U?$_Tree_simple_types@U?$pair@$$CBIPAVVIACapl@@@std@@@std@@@std@@@1@ABUpiecewise_construct_t@1@$$QAV?$tuple@ABI@1@$$QAV?$tuple@$$V@1@@Z 1000b6e0 f i capldll.obj
 0001:0000a7a0       ??$forward@AAPAU?$_Tree_node@U?$pair@$$CBIPAVCaplInstanceData@@@std@@PAX@std@@@std@@YAAAPAU?$_Tree_node@U?$pair@$$CBIPAVCaplInstanceData@@@std@@PAX@0@AAPAU10@@Z 1000b7a0 f i capldll.obj
 0001:0000a7b0       ??$forward@AAPAU?$_Tree_node@U?$pair@$$CBIPAVVIACapl@@@std@@PAX@std@@@std@@YAAAPAU?$_Tree_node@U?$pair@$$CBIPAVVIACapl@@@std@@PAX@0@AAPAU10@@Z 1000b7b0 f i capldll.obj
 0001:0000a7c0       ??$forward@AAU?$pair@$$CBIPAVCaplInstanceData@@@std@@@std@@YAAAU?$pair@$$CBIPAVCaplInstanceData@@@0@AAU10@@Z 1000b7c0 f i capldll.obj
 0001:0000a7d0       ??$forward@AAU?$pair@$$CBIPAVVIACapl@@@std@@@std@@YAAAU?$pair@$$CBIPAVVIACapl@@@0@AAU10@@Z 1000b7d0 f i capldll.obj
 0001:0000a7e0       ??$forward@AAV?$_Tree_const_iterator@V?$_Tree_val@U?$_Tree_simple_types@U?$pair@$$CBIPAVCaplInstanceData@@@std@@@std@@@std@@@std@@@std@@YAAAV?$_Tree_const_iterator@V?$_Tree_val@U?$_Tree_simple_types@U?$pair@$$CBIPAVCaplInstanceData@@@std@@@std@@@std@@@0@AAV10@@Z 1000b7e0 f i capldll.obj
 0001:0000a7f0       ??$forward@AAV?$_Tree_iterator@V?$_Tree_val@U?$_Tree_simple_types@U?$pair@$$CBIPAVCaplInstanceData@@@std@@@std@@@std@@@std@@@std@@YAAAV?$_Tree_iterator@V?$_Tree_val@U?$_Tree_simple_types@U?$pair@$$CBIPAVCaplInstanceData@@@std@@@std@@@std@@@0@AAV10@@Z 1000b7f0 f i capldll.obj
 0001:0000a800       ??$forward@AAV?$_Tree_iterator@V?$_Tree_val@U?$_Tree_simple_types@U?$pair@$$CBIPAVVIACapl@@@std@@@std@@@std@@@std@@@std@@YAAAV?$_Tree_iterator@V?$_Tree_val@U?$_Tree_simple_types@U?$pair@$$CBIPAVVIACapl@@@std@@@std@@@std@@@0@AAV10@@Z 1000b800 f i capldll.obj
 0001:0000a810       ??$forward@ABI@std@@YAABIABI@Z 1000b810 f i capldll.obj
 0001:0000a820       ??$forward@ABQAD@std@@YAABQADABQAD@Z 1000b820 f i capldll.obj
 0001:0000a830       ??$forward@ABU?$less@I@std@@@std@@YAABU?$less@I@0@ABU10@@Z 1000b830 f i capldll.obj
 0001:0000a840       ??$forward@ABUpiecewise_construct_t@std@@@std@@YAABUpiecewise_construct_t@0@ABU10@@Z 1000b840 f i capldll.obj
 0001:0000a850       ??$forward@U_Container_proxy@std@@@std@@YA$$QAU_Container_proxy@0@AAU10@@Z 1000b850 f i capldll.obj
 0001:0000a860       ??$forward@U_Zero_then_variadic_args_t@std@@@std@@YA$$QAU_Zero_then_variadic_args_t@0@AAU10@@Z 1000b860 f i capldll.obj
 0001:0000a870       ??$forward@V?$_Tree_iterator@V?$_Tree_val@U?$_Tree_simple_types@U?$pair@$$CBIPAVCaplInstanceData@@@std@@@std@@@std@@@std@@@std@@YA$$QAV?$_Tree_iterator@V?$_Tree_val@U?$_Tree_simple_types@U?$pair@$$CBIPAVCaplInstanceData@@@std@@@std@@@std@@@0@AAV10@@Z 1000b870 f i capldll.obj
 0001:0000a880       ??$forward@V?$_Tree_iterator@V?$_Tree_val@U?$_Tree_simple_types@U?$pair@$$CBIPAVVIACapl@@@std@@@std@@@std@@@std@@@std@@YA$$QAV?$_Tree_iterator@V?$_Tree_val@U?$_Tree_simple_types@U?$pair@$$CBIPAVVIACapl@@@std@@@std@@@std@@@0@AAV10@@Z 1000b880 f i capldll.obj
 0001:0000a890       ??$forward@V?$tuple@$$V@std@@@std@@YA$$QAV?$tuple@$$V@0@AAV10@@Z 1000b890 f i capldll.obj
 0001:0000a8a0       ??$forward@V?$tuple@ABI@std@@@std@@YA$$QAV?$tuple@ABI@0@AAV10@@Z 1000b8a0 f i capldll.obj
 0001:0000a8b0       ??$forward@_N@std@@YA$$QA_NAA_N@Z 1000b8b0 f i capldll.obj
 0001:0000a8c0       ??$forward_as_tuple@$$V@std@@YA?AV?$tuple@$$V@0@XZ 1000b8c0 f i capldll.obj
 0001:0000a8d0       ??$forward_as_tuple@ABI@std@@YA?AV?$tuple@ABI@0@ABI@Z 1000b8d0 f i capldll.obj
 0001:0000a8f0       ??$get@$0A@ABI@std@@YAABI$$QAV?$tuple@ABI@0@@Z 1000b8f0 f i capldll.obj
 0001:0000a910       ??$move@AAD@std@@YA$$QADAAD@Z 1000b910 f i capldll.obj
 0001:0000a920       ??$move@AAV?$tuple@ABI@std@@@std@@YA$$QAV?$tuple@ABI@0@AAV10@@Z 1000b920 f i capldll.obj
 0001:0000a930       ??$swap@DX@std@@YAXAAD0@Z  1000b930 f i capldll.obj
 0001:0000a970       ??$try_emplace@$$V@?$map@IPAVCaplInstanceData@@U?$less@I@std@@V?$allocator@U?$pair@$$CBIPAVCaplInstanceData@@@std@@@3@@std@@QAE?AU?$pair@V?$_Tree_iterator@V?$_Tree_val@U?$_Tree_simple_types@U?$pair@$$CBIPAVCaplInstanceData@@@std@@@std@@@std@@@std@@_N@1@ABI@Z 1000b970 f i capldll.obj
 0001:0000a9b0       ??$try_emplace@$$V@?$map@IPAVVIACapl@@U?$less@I@std@@V?$allocator@U?$pair@$$CBIPAVVIACapl@@@std@@@3@@std@@QAE?AU?$pair@V?$_Tree_iterator@V?$_Tree_val@U?$_Tree_simple_types@U?$pair@$$CBIPAVVIACapl@@@std@@@std@@@std@@@std@@_N@1@ABI@Z 1000b9b0 f i capldll.obj
 0001:0000a9f0       ??0?$_String_alloc@U?$_String_base_types@DV?$allocator@D@std@@@std@@@std@@QAE@XZ 1000b9f0 f i capldll.obj
 0001:0000aa50       ??0?$_String_val@U?$_Simple_types@D@std@@@std@@QAE@XZ 1000ba50 f i capldll.obj
 0001:0000aa90       ??0?$_Tree@V?$_Tmap_traits@IPAVCaplInstanceData@@U?$less@I@std@@V?$allocator@U?$pair@$$CBIPAVCaplInstanceData@@@std@@@3@$0A@@std@@@std@@QAE@ABU?$less@I@1@@Z 1000ba90 f i capldll.obj
 0001:0000aab0       ??0?$_Tree@V?$_Tmap_traits@IPAVVIACapl@@U?$less@I@std@@V?$allocator@U?$pair@$$CBIPAVVIACapl@@@std@@@3@$0A@@std@@@std@@QAE@ABU?$less@I@1@@Z 1000bab0 f i capldll.obj
 0001:0000aad0       ??0?$_Tree_comp_alloc@V?$_Tmap_traits@IPAVCaplInstanceData@@U?$less@I@std@@V?$allocator@U?$pair@$$CBIPAVCaplInstanceData@@@std@@@3@$0A@@std@@@std@@QAE@ABU?$less@I@1@@Z 1000bad0 f i capldll.obj
 0001:0000ab00       ??0?$_Tree_comp_alloc@V?$_Tmap_traits@IPAVVIACapl@@U?$less@I@std@@V?$allocator@U?$pair@$$CBIPAVVIACapl@@@std@@@3@$0A@@std@@@std@@QAE@ABU?$less@I@1@@Z 1000bb00 f i capldll.obj
 0001:0000ab30       ??0?$_Tree_const_iterator@V?$_Tree_val@U?$_Tree_simple_types@U?$pair@$$CBIPAVCaplInstanceData@@@std@@@std@@@std@@@std@@QAE@$$QAV01@@Z 1000bb30 f i capldll.obj
 0001:0000ab50       ??0?$_Tree_const_iterator@V?$_Tree_val@U?$_Tree_simple_types@U?$pair@$$CBIPAVCaplInstanceData@@@std@@@std@@@std@@@std@@QAE@ABV01@@Z 1000bb50 f i capldll.obj
 0001:0000ab70       ??0?$_Tree_const_iterator@V?$_Tree_val@U?$_Tree_simple_types@U?$pair@$$CBIPAVCaplInstanceData@@@std@@@std@@@std@@@std@@QAE@PAU?$_Tree_node@U?$pair@$$CBIPAVCaplInstanceData@@@std@@PAX@1@PBV?$_Tree_val@U?$_Tree_simple_types@U?$pair@$$CBIPAVCaplInstanceData@@@std@@@std@@@1@@Z 1000bb70 f i capldll.obj
 0001:0000ab90       ??0?$_Tree_const_iterator@V?$_Tree_val@U?$_Tree_simple_types@U?$pair@$$CBIPAVCaplInstanceData@@@std@@@std@@@std@@@std@@QAE@XZ 1000bb90 f i capldll.obj
 0001:0000abb0       ??0?$_Tree_const_iterator@V?$_Tree_val@U?$_Tree_simple_types@U?$pair@$$CBIPAVVIACapl@@@std@@@std@@@std@@@std@@QAE@$$QAV01@@Z 1000bbb0 f i capldll.obj
 0001:0000abd0       ??0?$_Tree_const_iterator@V?$_Tree_val@U?$_Tree_simple_types@U?$pair@$$CBIPAVVIACapl@@@std@@@std@@@std@@@std@@QAE@ABV01@@Z 1000bbd0 f i capldll.obj
 0001:0000abf0       ??0?$_Tree_const_iterator@V?$_Tree_val@U?$_Tree_simple_types@U?$pair@$$CBIPAVVIACapl@@@std@@@std@@@std@@@std@@QAE@PAU?$_Tree_node@U?$pair@$$CBIPAVVIACapl@@@std@@PAX@1@PBV?$_Tree_val@U?$_Tree_simple_types@U?$pair@$$CBIPAVVIACapl@@@std@@@std@@@1@@Z 1000bbf0 f i capldll.obj
 0001:0000ac10       ??0?$_Tree_const_iterator@V?$_Tree_val@U?$_Tree_simple_types@U?$pair@$$CBIPAVVIACapl@@@std@@@std@@@std@@@std@@QAE@XZ 1000bc10 f i capldll.obj
 0001:0000ac30       ??0?$_Tree_iterator@V?$_Tree_val@U?$_Tree_simple_types@U?$pair@$$CBIPAVCaplInstanceData@@@std@@@std@@@std@@@std@@QAE@$$QAV01@@Z 1000bc30 f i capldll.obj
 0001:0000ac50       ??0?$_Tree_iterator@V?$_Tree_val@U?$_Tree_simple_types@U?$pair@$$CBIPAVCaplInstanceData@@@std@@@std@@@std@@@std@@QAE@ABV01@@Z 1000bc50 f i capldll.obj
 0001:0000ac70       ??0?$_Tree_iterator@V?$_Tree_val@U?$_Tree_simple_types@U?$pair@$$CBIPAVCaplInstanceData@@@std@@@std@@@std@@@std@@QAE@PAU?$_Tree_node@U?$pair@$$CBIPAVCaplInstanceData@@@std@@PAX@1@PBV?$_Tree_val@U?$_Tree_simple_types@U?$pair@$$CBIPAVCaplInstanceData@@@std@@@std@@@1@@Z 1000bc70 f i capldll.obj
 0001:0000ac90       ??0?$_Tree_iterator@V?$_Tree_val@U?$_Tree_simple_types@U?$pair@$$CBIPAVVIACapl@@@std@@@std@@@std@@@std@@QAE@$$QAV01@@Z 1000bc90 f i capldll.obj
 0001:0000acb0       ??0?$_Tree_iterator@V?$_Tree_val@U?$_Tree_simple_types@U?$pair@$$CBIPAVVIACapl@@@std@@@std@@@std@@@std@@QAE@ABV01@@Z 1000bcb0 f i capldll.obj
 0001:0000acd0       ??0?$_Tree_iterator@V?$_Tree_val@U?$_Tree_simple_types@U?$pair@$$CBIPAVVIACapl@@@std@@@std@@@std@@@std@@QAE@PAU?$_Tree_node@U?$pair@$$CBIPAVVIACapl@@@std@@PAX@1@PBV?$_Tree_val@U?$_Tree_simple_types@U?$pair@$$CBIPAVVIACapl@@@std@@@std@@@1@@Z 1000bcd0 f i capldll.obj
 0001:0000acf0       ??0?$_Tree_unchecked_const_iterator@V?$_Tree_val@U?$_Tree_simple_types@U?$pair@$$CBIPAVCaplInstanceData@@@std@@@std@@@std@@U_Iterator_base12@2@@std@@QAE@$$QAV01@@Z 1000bcf0 f i capldll.obj
 0001:0000ad20       ??0?$_Tree_unchecked_const_iterator@V?$_Tree_val@U?$_Tree_simple_types@U?$pair@$$CBIPAVCaplInstanceData@@@std@@@std@@@std@@U_Iterator_base12@2@@std@@QAE@ABV01@@Z 1000bd20 f i capldll.obj
 0001:0000ad50       ??0?$_Tree_unchecked_const_iterator@V?$_Tree_val@U?$_Tree_simple_types@U?$pair@$$CBIPAVCaplInstanceData@@@std@@@std@@@std@@U_Iterator_base12@2@@std@@QAE@PAU?$_Tree_node@U?$pair@$$CBIPAVCaplInstanceData@@@std@@PAX@1@PBV?$_Tree_val@U?$_Tree_simple_types@U?$pair@$$CBIPAVCaplInstanceData@@@std@@@std@@@1@@Z 1000bd50 f i capldll.obj
 0001:0000ad80       ??0?$_Tree_unchecked_const_iterator@V?$_Tree_val@U?$_Tree_simple_types@U?$pair@$$CBIPAVCaplInstanceData@@@std@@@std@@@std@@U_Iterator_base12@2@@std@@QAE@XZ 1000bd80 f i capldll.obj
 0001:0000ada0       ??0?$_Tree_unchecked_const_iterator@V?$_Tree_val@U?$_Tree_simple_types@U?$pair@$$CBIPAVVIACapl@@@std@@@std@@@std@@U_Iterator_base12@2@@std@@QAE@$$QAV01@@Z 1000bda0 f i capldll.obj
 0001:0000add0       ??0?$_Tree_unchecked_const_iterator@V?$_Tree_val@U?$_Tree_simple_types@U?$pair@$$CBIPAVVIACapl@@@std@@@std@@@std@@U_Iterator_base12@2@@std@@QAE@ABV01@@Z 1000bdd0 f i capldll.obj
 0001:0000ae00       ??0?$_Tree_unchecked_const_iterator@V?$_Tree_val@U?$_Tree_simple_types@U?$pair@$$CBIPAVVIACapl@@@std@@@std@@@std@@U_Iterator_base12@2@@std@@QAE@PAU?$_Tree_node@U?$pair@$$CBIPAVVIACapl@@@std@@PAX@1@PBV?$_Tree_val@U?$_Tree_simple_types@U?$pair@$$CBIPAVVIACapl@@@std@@@std@@@1@@Z 1000be00 f i capldll.obj
 0001:0000ae30       ??0?$_Tree_unchecked_const_iterator@V?$_Tree_val@U?$_Tree_simple_types@U?$pair@$$CBIPAVVIACapl@@@std@@@std@@@std@@U_Iterator_base12@2@@std@@QAE@XZ 1000be30 f i capldll.obj
 0001:0000ae50       ??0?$_Tree_val@U?$_Tree_simple_types@U?$pair@$$CBIPAVCaplInstanceData@@@std@@@std@@@std@@QAE@XZ 1000be50 f i capldll.obj
 0001:0000ae80       ??0?$_Tree_val@U?$_Tree_simple_types@U?$pair@$$CBIPAVVIACapl@@@std@@@std@@@std@@QAE@XZ 1000be80 f i capldll.obj
 0001:0000aeb0       ??0?$allocator@D@std@@QAE@XZ 1000beb0 f i capldll.obj
 0001:0000aec0       ??0?$allocator@U?$_Tree_node@U?$pair@$$CBIPAVCaplInstanceData@@@std@@PAX@std@@@std@@QAE@XZ 1000bec0 f i capldll.obj
 0001:0000aed0       ??0?$allocator@U?$_Tree_node@U?$pair@$$CBIPAVVIACapl@@@std@@PAX@std@@@std@@QAE@XZ 1000bed0 f i capldll.obj
 0001:0000aee0       ??0?$basic_string@DU?$char_traits@D@std@@V?$allocator@D@2@@std@@QAE@QBD@Z 1000bee0 f i capldll.obj
 0001:0000af50       ??0?$map@IPAVCaplInstanceData@@U?$less@I@std@@V?$allocator@U?$pair@$$CBIPAVCaplInstanceData@@@std@@@3@@std@@QAE@XZ 1000bf50 f i capldll.obj
 0001:0000af70       ??0?$map@IPAVVIACapl@@U?$less@I@std@@V?$allocator@U?$pair@$$CBIPAVVIACapl@@@std@@@3@@std@@QAE@XZ 1000bf70 f i capldll.obj
 0001:0000af90       ??0?$tuple@$$V@std@@QAE@ABV01@@Z 1000bf90 f i capldll.obj
 0001:0000afa0       ??0?$tuple@$$V@std@@QAE@XZ 1000bfa0 f i capldll.obj
 0001:0000afb0       ??0?$tuple@ABI@std@@QAE@$$QAV01@@Z 1000bfb0 f i capldll.obj
 0001:0000afe0       ??0_Bxty@?$_String_val@U?$_Simple_types@D@std@@@std@@QAE@XZ 1000bfe0 f i capldll.obj
 0001:0000aff0       ??0_Container_base12@std@@QAE@XZ 1000bff0 f i capldll.obj
 0001:0000b010       ??0_Container_proxy@std@@QAE@XZ 1000c010 f i capldll.obj
 0001:0000b040       ??0_Iterator_base12@std@@QAE@ABU01@@Z 1000c040 f i capldll.obj
 0001:0000b070       ??0_Iterator_base12@std@@QAE@XZ 1000c070 f i capldll.obj
 0001:0000b0a0       ??1?$_Compressed_pair@V?$allocator@D@std@@V?$_String_val@U?$_Simple_types@D@std@@@2@$00@std@@QAE@XZ 1000c0a0 f i capldll.obj
 0001:0000b0c0       ??1?$_Deque_alloc@U?$_Deque_base_types@PAVValue@Json@@V?$allocator@PAVValue@Json@@@std@@@std@@@std@@QAE@XZ 1000c0c0 f i capldll.obj
 0001:0000b100       ??1?$_Deque_alloc@U?$_Deque_base_types@VErrorInfo@Reader@Json@@V?$allocator@VErrorInfo@Reader@Json@@@std@@@std@@@std@@QAE@XZ 1000c100 f i capldll.obj
 0001:0000b140       ??1?$_String_alloc@U?$_String_base_types@DV?$allocator@D@std@@@std@@@std@@QAE@XZ 1000c140 f i capldll.obj
 0001:0000b190       ??1?$_String_val@U?$_Simple_types@D@std@@@std@@QAE@XZ 1000c190 f i capldll.obj
 0001:0000b1b0       ??1?$_Tree@V?$_Tmap_traits@IPAVCaplInstanceData@@U?$less@I@std@@V?$allocator@U?$pair@$$CBIPAVCaplInstanceData@@@std@@@3@$0A@@std@@@std@@QAE@XZ 1000c1b0 f i capldll.obj
 0001:0000b200       ??1?$_Tree@V?$_Tmap_traits@IPAVVIACapl@@U?$less@I@std@@V?$allocator@U?$pair@$$CBIPAVVIACapl@@@std@@@3@$0A@@std@@@std@@QAE@XZ 1000c200 f i capldll.obj
 0001:0000b250       ??1?$_Tree_comp_alloc@V?$_Tmap_traits@IPAVCaplInstanceData@@U?$less@I@std@@V?$allocator@U?$pair@$$CBIPAVCaplInstanceData@@@std@@@3@$0A@@std@@@std@@QAE@XZ 1000c250 f i capldll.obj
 0001:0000b2b0       ??1?$_Tree_comp_alloc@V?$_Tmap_traits@IPAVVIACapl@@U?$less@I@std@@V?$allocator@U?$pair@$$CBIPAVVIACapl@@@std@@@3@$0A@@std@@@std@@QAE@XZ 1000c2b0 f i capldll.obj
 0001:0000b310       ??1?$_Tree_const_iterator@V?$_Tree_val@U?$_Tree_simple_types@U?$pair@$$CBIPAVCaplInstanceData@@@std@@@std@@@std@@@std@@QAE@XZ 1000c310 f i capldll.obj
 0001:0000b330       ??1?$_Tree_const_iterator@V?$_Tree_val@U?$_Tree_simple_types@U?$pair@$$CBIPAVVIACapl@@@std@@@std@@@std@@@std@@QAE@XZ 1000c330 f i capldll.obj
 0001:0000b350       ??1?$_Tree_iterator@V?$_Tree_val@U?$_Tree_simple_types@U?$pair@$$CBIPAVCaplInstanceData@@@std@@@std@@@std@@@std@@QAE@XZ 1000c350 f i capldll.obj
 0001:0000b370       ??1?$_Tree_iterator@V?$_Tree_val@U?$_Tree_simple_types@U?$pair@$$CBIPAVVIACapl@@@std@@@std@@@std@@@std@@QAE@XZ 1000c370 f i capldll.obj
 0001:0000b390       ??1?$_Tree_unchecked_const_iterator@V?$_Tree_val@U?$_Tree_simple_types@U?$pair@$$CBIPAVCaplInstanceData@@@std@@@std@@@std@@U_Iterator_base12@2@@std@@QAE@XZ 1000c390 f i capldll.obj
 0001:0000b3b0       ??1?$_Tree_unchecked_const_iterator@V?$_Tree_val@U?$_Tree_simple_types@U?$pair@$$CBIPAVVIACapl@@@std@@@std@@@std@@U_Iterator_base12@2@@std@@QAE@XZ 1000c3b0 f i capldll.obj
 0001:0000b3d0       ??1?$_Vector_alloc@U?$_Vec_base_types@V?$basic_string@DU?$char_traits@D@std@@V?$allocator@D@2@@std@@V?$allocator@V?$basic_string@DU?$char_traits@D@std@@V?$allocator@D@2@@std@@@2@@std@@@std@@QAE@XZ 1000c3d0 f i capldll.obj
 0001:0000b410       ??1?$basic_string@DU?$char_traits@D@std@@V?$allocator@D@2@@std@@QAE@XZ 1000c410 f i capldll.obj
 0001:0000b460       ??1?$deque@PAVValue@Json@@V?$allocator@PAVValue@Json@@@std@@@std@@QAE@XZ 1000c460 f i capldll.obj
 0001:0000b4b0       ??1?$deque@VErrorInfo@Reader@Json@@V?$allocator@VErrorInfo@Reader@Json@@@std@@@std@@QAE@XZ 1000c4b0 f i capldll.obj
 0001:0000b500       ??1?$map@IPAVCaplInstanceData@@U?$less@I@std@@V?$allocator@U?$pair@$$CBIPAVCaplInstanceData@@@std@@@3@@std@@QAE@XZ 1000c500 f i capldll.obj
 0001:0000b520       ??1?$map@IPAVVIACapl@@U?$less@I@std@@V?$allocator@U?$pair@$$CBIPAVVIACapl@@@std@@@3@@std@@QAE@XZ 1000c520 f i capldll.obj
 0001:0000b540       ??1?$pair@V?$_Tree_const_iterator@V?$_Tree_val@U?$_Tree_simple_types@U?$pair@$$CBIPAVCaplInstanceData@@@std@@@std@@@std@@@std@@V12@@std@@QAE@XZ 1000c540 f i capldll.obj
 0001:0000b560       ??1?$pair@V?$_Tree_iterator@V?$_Tree_val@U?$_Tree_simple_types@U?$pair@$$CBIPAVCaplInstanceData@@@std@@@std@@@std@@@std@@V12@@std@@QAE@XZ 1000c560 f i capldll.obj
 0001:0000b580       ??1?$pair@V?$_Tree_iterator@V?$_Tree_val@U?$_Tree_simple_types@U?$pair@$$CBIPAVCaplInstanceData@@@std@@@std@@@std@@@std@@_N@std@@QAE@XZ 1000c580 f i capldll.obj
 0001:0000b5a0       ??1?$pair@V?$_Tree_iterator@V?$_Tree_val@U?$_Tree_simple_types@U?$pair@$$CBIPAVVIACapl@@@std@@@std@@@std@@@std@@_N@std@@QAE@XZ 1000c5a0 f i capldll.obj
 0001:0000b5c0       ??1?$stack@PAVValue@Json@@V?$deque@PAVValue@Json@@V?$allocator@PAVValue@Json@@@std@@@std@@@std@@QAE@XZ 1000c5c0 f i capldll.obj
 0001:0000b5e0       ??1?$vector@V?$basic_string@DU?$char_traits@D@std@@V?$allocator@D@2@@std@@V?$allocator@V?$basic_string@DU?$char_traits@D@std@@V?$allocator@D@2@@std@@@2@@std@@QAE@XZ 1000c5e0 f i capldll.obj
 0001:0000b630       ??1ErrorInfo@Reader@Json@@QAE@XZ 1000c630 f i capldll.obj
 0001:0000b650       ??1Reader@Json@@QAE@XZ     1000c650 f i capldll.obj
 0001:0000b690       ??1StyledWriter@Json@@UAE@XZ 1000c690 f i capldll.obj
 0001:0000b6d0       ??1_Bxty@?$_String_val@U?$_Simple_types@D@std@@@std@@QAE@XZ 1000c6d0 f i capldll.obj
 0001:0000b6e0       ??1_Iterator_base12@std@@QAE@XZ 1000c6e0 f i capldll.obj
 0001:0000b740       ??2@YAPAXIPAX@Z            1000c740 f i capldll.obj
 0001:0000b750       ??4?$_Tree_const_iterator@V?$_Tree_val@U?$_Tree_simple_types@U?$pair@$$CBIPAVCaplInstanceData@@@std@@@std@@@std@@@std@@QAEAAV01@$$QAV01@@Z 1000c750 f i capldll.obj
 0001:0000b770       ??4?$_Tree_const_iterator@V?$_Tree_val@U?$_Tree_simple_types@U?$pair@$$CBIPAVCaplInstanceData@@@std@@@std@@@std@@@std@@QAEAAV01@ABV01@@Z 1000c770 f i capldll.obj
 0001:0000b790       ??4?$_Tree_const_iterator@V?$_Tree_val@U?$_Tree_simple_types@U?$pair@$$CBIPAVVIACapl@@@std@@@std@@@std@@@std@@QAEAAV01@ABV01@@Z 1000c790 f i capldll.obj
 0001:0000b7b0       ??4?$_Tree_iterator@V?$_Tree_val@U?$_Tree_simple_types@U?$pair@$$CBIPAVCaplInstanceData@@@std@@@std@@@std@@@std@@QAEAAV01@$$QAV01@@Z 1000c7b0 f i capldll.obj
 0001:0000b7d0       ??4?$_Tree_unchecked_const_iterator@V?$_Tree_val@U?$_Tree_simple_types@U?$pair@$$CBIPAVCaplInstanceData@@@std@@@std@@@std@@U_Iterator_base12@2@@std@@QAEAAV01@$$QAV01@@Z 1000c7d0 f i capldll.obj
 0001:0000b800       ??4?$_Tree_unchecked_const_iterator@V?$_Tree_val@U?$_Tree_simple_types@U?$pair@$$CBIPAVCaplInstanceData@@@std@@@std@@@std@@U_Iterator_base12@2@@std@@QAEAAV01@ABV01@@Z 1000c800 f i capldll.obj
 0001:0000b830       ??4?$_Tree_unchecked_const_iterator@V?$_Tree_val@U?$_Tree_simple_types@U?$pair@$$CBIPAVVIACapl@@@std@@@std@@@std@@U_Iterator_base12@2@@std@@QAEAAV01@ABV01@@Z 1000c830 f i capldll.obj
 0001:0000b860       ??4_Iterator_base12@std@@QAEAAU01@ABU01@@Z 1000c860 f i capldll.obj
 0001:0000b8e0       ??8?$_Tree_const_iterator@V?$_Tree_val@U?$_Tree_simple_types@U?$pair@$$CBIPAVCaplInstanceData@@@std@@@std@@@std@@@std@@QBE_NABV01@@Z 1000c8e0 f i capldll.obj
 0001:0000b980       ??8?$_Tree_const_iterator@V?$_Tree_val@U?$_Tree_simple_types@U?$pair@$$CBIPAVVIACapl@@@std@@@std@@@std@@@std@@QBE_NABV01@@Z 1000c980 f i capldll.obj
 0001:0000ba20       ??9?$_Tree_const_iterator@V?$_Tree_val@U?$_Tree_simple_types@U?$pair@$$CBIPAVCaplInstanceData@@@std@@@std@@@std@@@std@@QBE_NABV01@@Z 1000ca20 f i capldll.obj
 0001:0000ba60       ??9?$_Tree_const_iterator@V?$_Tree_val@U?$_Tree_simple_types@U?$pair@$$CBIPAVVIACapl@@@std@@@std@@@std@@@std@@QBE_NABV01@@Z 1000ca60 f i capldll.obj
 0001:0000baa0       ??A?$map@IPAVCaplInstanceData@@U?$less@I@std@@V?$allocator@U?$pair@$$CBIPAVCaplInstanceData@@@std@@@3@@std@@QAEAAPAVCaplInstanceData@@ABI@Z 1000caa0 f i capldll.obj
 0001:0000bb20       ??A?$map@IPAVVIACapl@@U?$less@I@std@@V?$allocator@U?$pair@$$CBIPAVVIACapl@@@std@@@3@@std@@QAEAAPAVVIACapl@@ABI@Z 1000cb20 f i capldll.obj
 0001:0000bba0       ??C?$_Tree_iterator@V?$_Tree_val@U?$_Tree_simple_types@U?$pair@$$CBIPAVCaplInstanceData@@@std@@@std@@@std@@@std@@QBEPAU?$pair@$$CBIPAVCaplInstanceData@@@1@XZ 1000cba0 f i capldll.obj
 0001:0000bbc0       ??C?$_Tree_iterator@V?$_Tree_val@U?$_Tree_simple_types@U?$pair@$$CBIPAVVIACapl@@@std@@@std@@@std@@@std@@QBEPAU?$pair@$$CBIPAVVIACapl@@@1@XZ 1000cbc0 f i capldll.obj
 0001:0000bbe0       ??D?$_Tree_const_iterator@V?$_Tree_val@U?$_Tree_simple_types@U?$pair@$$CBIPAVCaplInstanceData@@@std@@@std@@@std@@@std@@QBEABU?$pair@$$CBIPAVCaplInstanceData@@@1@XZ 1000cbe0 f i capldll.obj
 0001:0000bcc0       ??D?$_Tree_const_iterator@V?$_Tree_val@U?$_Tree_simple_types@U?$pair@$$CBIPAVVIACapl@@@std@@@std@@@std@@@std@@QBEABU?$pair@$$CBIPAVVIACapl@@@1@XZ 1000ccc0 f i capldll.obj
 0001:0000bda0       ??D?$_Tree_iterator@V?$_Tree_val@U?$_Tree_simple_types@U?$pair@$$CBIPAVCaplInstanceData@@@std@@@std@@@std@@@std@@QBEAAU?$pair@$$CBIPAVCaplInstanceData@@@1@XZ 1000cda0 f i capldll.obj
 0001:0000bdc0       ??D?$_Tree_iterator@V?$_Tree_val@U?$_Tree_simple_types@U?$pair@$$CBIPAVVIACapl@@@std@@@std@@@std@@@std@@QBEAAU?$pair@$$CBIPAVVIACapl@@@1@XZ 1000cdc0 f i capldll.obj
 0001:0000bde0       ??E?$_Tree_const_iterator@V?$_Tree_val@U?$_Tree_simple_types@U?$pair@$$CBIPAVCaplInstanceData@@@std@@@std@@@std@@@std@@QAE?AV01@H@Z 1000cde0 f i capldll.obj
 0001:0000be70       ??E?$_Tree_const_iterator@V?$_Tree_val@U?$_Tree_simple_types@U?$pair@$$CBIPAVCaplInstanceData@@@std@@@std@@@std@@@std@@QAEAAV01@XZ 1000ce70 f i capldll.obj
 0001:0000bf40       ??E?$_Tree_const_iterator@V?$_Tree_val@U?$_Tree_simple_types@U?$pair@$$CBIPAVVIACapl@@@std@@@std@@@std@@@std@@QAE?AV01@H@Z 1000cf40 f i capldll.obj
 0001:0000bfd0       ??E?$_Tree_const_iterator@V?$_Tree_val@U?$_Tree_simple_types@U?$pair@$$CBIPAVVIACapl@@@std@@@std@@@std@@@std@@QAEAAV01@XZ 1000cfd0 f i capldll.obj
 0001:0000c0a0       ??E?$_Tree_iterator@V?$_Tree_val@U?$_Tree_simple_types@U?$pair@$$CBIPAVCaplInstanceData@@@std@@@std@@@std@@@std@@QAEAAV01@XZ 1000d0a0 f i capldll.obj
 0001:0000c0c0       ??E?$_Tree_unchecked_const_iterator@V?$_Tree_val@U?$_Tree_simple_types@U?$pair@$$CBIPAVCaplInstanceData@@@std@@@std@@@std@@U_Iterator_base12@2@@std@@QAEAAV01@XZ 1000d0c0 f i capldll.obj
 0001:0000c140       ??E?$_Tree_unchecked_const_iterator@V?$_Tree_val@U?$_Tree_simple_types@U?$pair@$$CBIPAVVIACapl@@@std@@@std@@@std@@U_Iterator_base12@2@@std@@QAEAAV01@XZ 1000d140 f i capldll.obj
 0001:0000c1c0       ??F?$_Tree_const_iterator@V?$_Tree_val@U?$_Tree_simple_types@U?$pair@$$CBIPAVCaplInstanceData@@@std@@@std@@@std@@@std@@QAEAAV01@XZ 1000d1c0 f i capldll.obj
 0001:0000c2a0       ??F?$_Tree_const_iterator@V?$_Tree_val@U?$_Tree_simple_types@U?$pair@$$CBIPAVVIACapl@@@std@@@std@@@std@@@std@@QAEAAV01@XZ 1000d2a0 f i capldll.obj
 0001:0000c380       ??F?$_Tree_iterator@V?$_Tree_val@U?$_Tree_simple_types@U?$pair@$$CBIPAVCaplInstanceData@@@std@@@std@@@std@@@std@@QAEAAV01@XZ 1000d380 f i capldll.obj
 0001:0000c3a0       ??F?$_Tree_iterator@V?$_Tree_val@U?$_Tree_simple_types@U?$pair@$$CBIPAVVIACapl@@@std@@@std@@@std@@@std@@QAEAAV01@XZ 1000d3a0 f i capldll.obj
 0001:0000c3c0       ??F?$_Tree_unchecked_const_iterator@V?$_Tree_val@U?$_Tree_simple_types@U?$pair@$$CBIPAVCaplInstanceData@@@std@@@std@@@std@@U_Iterator_base12@2@@std@@QAEAAV01@XZ 1000d3c0 f i capldll.obj
 0001:0000c460       ??F?$_Tree_unchecked_const_iterator@V?$_Tree_val@U?$_Tree_simple_types@U?$pair@$$CBIPAVVIACapl@@@std@@@std@@@std@@U_Iterator_base12@2@@std@@QAEAAV01@XZ 1000d460 f i capldll.obj
 0001:0000c500       ??R<lambda_9366063389c5f42a00a5088cf24e69de>@@QBE@QADIQBD@Z 1000d500 f i capldll.obj
 0001:0000c540       ??R?$less@I@std@@QBE_NABI0@Z 1000d540 f i capldll.obj
 0001:0000c570       ??_G?$basic_string@DU?$char_traits@D@std@@V?$allocator@D@2@@std@@QAEPAXI@Z 1000d570 f i capldll.obj
 0001:0000c5a0       ??_GErrorInfo@Reader@Json@@QAEPAXI@Z 1000d5a0 f i capldll.obj
 0001:0000c5d0       ??_EStyledWriter@Json@@UAEPAXI@Z 1000d5d0 f i capldll.obj
 0001:0000c5d0       ??_GStyledWriter@Json@@UAEPAXI@Z 1000d5d0 f i capldll.obj
 0001:0000c600       ?_Adjust_manually_vector_aligned@std@@YAXAAPAXAAI@Z 1000d600 f i capldll.obj
 0001:0000c700       ?_Adopt@_Iterator_base12@std@@QAEXPBU_Container_base12@2@@Z 1000d700 f i capldll.obj
 0001:0000c7b0       ?_Alloc_proxy@?$_String_alloc@U?$_String_base_types@DV?$allocator@D@std@@@std@@@std@@QAEXXZ 1000d7b0 f i capldll.obj
 0001:0000c830       ?_Alloc_proxy@?$_Tree_comp_alloc@V?$_Tmap_traits@IPAVCaplInstanceData@@U?$less@I@std@@V?$allocator@U?$pair@$$CBIPAVCaplInstanceData@@@std@@@3@$0A@@std@@@std@@QAEXXZ 1000d830 f i capldll.obj
 0001:0000c8b0       ?_Alloc_proxy@?$_Tree_comp_alloc@V?$_Tmap_traits@IPAVVIACapl@@U?$less@I@std@@V?$allocator@U?$pair@$$CBIPAVVIACapl@@@std@@@3@$0A@@std@@@std@@QAEXXZ 1000d8b0 f i capldll.obj
 0001:0000c930       ?_Allocate@_Default_allocate_traits@std@@SAPAXI@Z 1000d930 f i capldll.obj
 0001:0000c950       ?_Buyheadnode@?$_Tree_comp_alloc@V?$_Tmap_traits@IPAVCaplInstanceData@@U?$less@I@std@@V?$allocator@U?$pair@$$CBIPAVCaplInstanceData@@@std@@@3@$0A@@std@@@std@@QAEPAU?$_Tree_node@U?$pair@$$CBIPAVCaplInstanceData@@@std@@PAX@2@XZ 1000d950 f i capldll.obj
 0001:0000ca50       ?_Buyheadnode@?$_Tree_comp_alloc@V?$_Tmap_traits@IPAVVIACapl@@U?$less@I@std@@V?$allocator@U?$pair@$$CBIPAVVIACapl@@@std@@@3@$0A@@std@@@std@@QAEPAU?$_Tree_node@U?$pair@$$CBIPAVVIACapl@@@std@@PAX@2@XZ 1000da50 f i capldll.obj
 0001:0000cb50       ?_Buynode0@?$_Tree_comp_alloc@V?$_Tmap_traits@IPAVCaplInstanceData@@U?$less@I@std@@V?$allocator@U?$pair@$$CBIPAVCaplInstanceData@@@std@@@3@$0A@@std@@@std@@QAEPAU?$_Tree_node@U?$pair@$$CBIPAVCaplInstanceData@@@std@@PAX@2@XZ 1000db50 f i capldll.obj
 0001:0000cc60       ?_Buynode0@?$_Tree_comp_alloc@V?$_Tmap_traits@IPAVVIACapl@@U?$less@I@std@@V?$allocator@U?$pair@$$CBIPAVVIACapl@@@std@@@3@$0A@@std@@@std@@QAEPAU?$_Tree_node@U?$pair@$$CBIPAVVIACapl@@@std@@PAX@2@XZ 1000dc60 f i capldll.obj
 0001:0000cd70       ?_Calculate_growth@?$basic_string@DU?$char_traits@D@std@@V?$allocator@D@2@@std@@QBEII@Z 1000dd70 f i capldll.obj
 0001:0000cdf0       ?_Clrcont@_Iterator_base12@std@@QAEXXZ 1000ddf0 f i capldll.obj
 0001:0000ce10       ?_Compare@?$_Tree@V?$_Tmap_traits@IPAVCaplInstanceData@@U?$less@I@std@@V?$allocator@U?$pair@$$CBIPAVCaplInstanceData@@@std@@@3@$0A@@std@@@std@@IBE_NABI0@Z 1000de10 f i capldll.obj
 0001:0000ce40       ?_Compare@?$_Tree@V?$_Tmap_traits@IPAVVIACapl@@U?$less@I@std@@V?$allocator@U?$pair@$$CBIPAVVIACapl@@@std@@@3@$0A@@std@@@std@@IBE_NABI0@Z 1000de40 f i capldll.obj
 0001:0000ce70       ?_Construct@?$_Tree_comp_alloc@V?$_Tmap_traits@IPAVCaplInstanceData@@U?$less@I@std@@V?$allocator@U?$pair@$$CBIPAVCaplInstanceData@@@std@@@3@$0A@@std@@@std@@QAEXXZ 1000de70 f i capldll.obj
 0001:0000cf10       ?_Construct@?$_Tree_comp_alloc@V?$_Tmap_traits@IPAVVIACapl@@U?$less@I@std@@V?$allocator@U?$pair@$$CBIPAVVIACapl@@@std@@@3@$0A@@std@@@std@@QAEXXZ 1000df10 f i capldll.obj
 0001:0000cfb0       ?_Destroy@?$vector@V?$basic_string@DU?$char_traits@D@std@@V?$allocator@D@2@@std@@V?$allocator@V?$basic_string@DU?$char_traits@D@std@@V?$allocator@D@2@@std@@@2@@std@@AAEXPAV?$basic_string@DU?$char_traits@D@std@@V?$allocator@D@2@@2@0@Z 1000dfb0 f i capldll.obj
 0001:0000cfe0       ?_Destroy_if_node@?$_Tree@V?$_Tmap_traits@IPAVCaplInstanceData@@U?$less@I@std@@V?$allocator@U?$pair@$$CBIPAVCaplInstanceData@@@std@@@3@$0A@@std@@@std@@IAEXPAU?$_Tree_node@U?$pair@$$CBIPAVCaplInstanceData@@@std@@PAX@2@@Z 1000dfe0 f i capldll.obj
 0001:0000d030       ?_Destroy_if_node@?$_Tree@V?$_Tmap_traits@IPAVVIACapl@@U?$less@I@std@@V?$allocator@U?$pair@$$CBIPAVVIACapl@@@std@@@3@$0A@@std@@@std@@IAEXPAU?$_Tree_node@U?$pair@$$CBIPAVVIACapl@@@std@@PAX@2@@Z 1000e030 f i capldll.obj
 0001:0000d080       ?_Erase@?$_Tree@V?$_Tmap_traits@IPAVCaplInstanceData@@U?$less@I@std@@V?$allocator@U?$pair@$$CBIPAVCaplInstanceData@@@std@@@3@$0A@@std@@@std@@IAEXPAU?$_Tree_node@U?$pair@$$CBIPAVCaplInstanceData@@@std@@PAX@2@@Z 1000e080 f i capldll.obj
 0001:0000d100       ?_Erase@?$_Tree@V?$_Tmap_traits@IPAVVIACapl@@U?$less@I@std@@V?$allocator@U?$pair@$$CBIPAVVIACapl@@@std@@@3@$0A@@std@@@std@@IAEXPAU?$_Tree_node@U?$pair@$$CBIPAVVIACapl@@@std@@PAX@2@@Z 1000e100 f i capldll.obj
 0001:0000d180       ?_Extract@?$_Tree_val@U?$_Tree_simple_types@U?$pair@$$CBIPAVCaplInstanceData@@@std@@@std@@@std@@QAEPAU?$_Tree_node@U?$pair@$$CBIPAVCaplInstanceData@@@std@@PAX@2@V?$_Tree_const_iterator@V?$_Tree_val@U?$_Tree_simple_types@U?$pair@$$CBIPAVCaplInstanceData@@@std@@@std@@@std@@@2@@Z 1000e180 f i capldll.obj
 0001:0000d670       ?_Extract@?$_Tree_val@U?$_Tree_simple_types@U?$pair@$$CBIPAVVIACapl@@@std@@@std@@@std@@QAEPAU?$_Tree_node@U?$pair@$$CBIPAVVIACapl@@@std@@PAX@2@V?$_Tree_const_iterator@V?$_Tree_val@U?$_Tree_simple_types@U?$pair@$$CBIPAVVIACapl@@@std@@@std@@@std@@@2@@Z 1000e670 f i capldll.obj
 0001:0000db60       ?_Free_proxy@?$_Deque_alloc@U?$_Deque_base_types@PAVValue@Json@@V?$allocator@PAVValue@Json@@@std@@@std@@@std@@QAEXXZ 1000eb60 f i capldll.obj
 0001:0000dbd0       ?_Free_proxy@?$_Deque_alloc@U?$_Deque_base_types@VErrorInfo@Reader@Json@@V?$allocator@VErrorInfo@Reader@Json@@@std@@@std@@@std@@QAEXXZ 1000ebd0 f i capldll.obj
 0001:0000dc40       ?_Free_proxy@?$_String_alloc@U?$_String_base_types@DV?$allocator@D@std@@@std@@@std@@QAEXXZ 1000ec40 f i capldll.obj
 0001:0000dcb0       ?_Free_proxy@?$_Tree_comp_alloc@V?$_Tmap_traits@IPAVCaplInstanceData@@U?$less@I@std@@V?$allocator@U?$pair@$$CBIPAVCaplInstanceData@@@std@@@3@$0A@@std@@@std@@QAEXXZ 1000ecb0 f i capldll.obj
 0001:0000dd20       ?_Free_proxy@?$_Tree_comp_alloc@V?$_Tmap_traits@IPAVVIACapl@@U?$less@I@std@@V?$allocator@U?$pair@$$CBIPAVVIACapl@@@std@@@3@$0A@@std@@@std@@QAEXXZ 1000ed20 f i capldll.obj
 0001:0000dd90       ?_Free_proxy@?$_Vector_alloc@U?$_Vec_base_types@V?$basic_string@DU?$char_traits@D@std@@V?$allocator@D@2@@std@@V?$allocator@V?$basic_string@DU?$char_traits@D@std@@V?$allocator@D@2@@std@@@2@@std@@@std@@QAEXXZ 1000ed90 f i capldll.obj
 0001:0000de00       ?_Freeheadnode@?$_Tree_comp_alloc@V?$_Tmap_traits@IPAVCaplInstanceData@@U?$less@I@std@@V?$allocator@U?$pair@$$CBIPAVCaplInstanceData@@@std@@@3@$0A@@std@@@std@@QAEXPAU?$_Tree_node@U?$pair@$$CBIPAVCaplInstanceData@@@std@@PAX@2@@Z 1000ee00 f i capldll.obj
 0001:0000de30       ?_Freeheadnode@?$_Tree_comp_alloc@V?$_Tmap_traits@IPAVVIACapl@@U?$less@I@std@@V?$allocator@U?$pair@$$CBIPAVVIACapl@@@std@@@3@$0A@@std@@@std@@QAEXPAU?$_Tree_node@U?$pair@$$CBIPAVVIACapl@@@std@@PAX@2@@Z 1000ee30 f i capldll.obj
 0001:0000de60       ?_Freenode0@?$_Tree_comp_alloc@V?$_Tmap_traits@IPAVCaplInstanceData@@U?$less@I@std@@V?$allocator@U?$pair@$$CBIPAVCaplInstanceData@@@std@@@3@$0A@@std@@@std@@QAEXPAU?$_Tree_node@U?$pair@$$CBIPAVCaplInstanceData@@@std@@PAX@2@@Z 1000ee60 f i capldll.obj
 0001:0000de90       ?_Freenode0@?$_Tree_comp_alloc@V?$_Tmap_traits@IPAVVIACapl@@U?$less@I@std@@V?$allocator@U?$pair@$$CBIPAVVIACapl@@@std@@@3@$0A@@std@@@std@@QAEXPAU?$_Tree_node@U?$pair@$$CBIPAVVIACapl@@@std@@PAX@2@@Z 1000ee90 f i capldll.obj
 0001:0000dec0       ?_Get_data@?$_Deque_alloc@U?$_Deque_base_types@PAVValue@Json@@V?$allocator@PAVValue@Json@@@std@@@std@@@std@@QAEAAV?$_Deque_val@U?$_Deque_simple_types@PAVValue@Json@@@std@@@2@XZ 1000eec0 f i capldll.obj
 0001:0000dee0       ?_Get_data@?$_Deque_alloc@U?$_Deque_base_types@PAVValue@Json@@V?$allocator@PAVValue@Json@@@std@@@std@@@std@@QBEABV?$_Deque_val@U?$_Deque_simple_types@PAVValue@Json@@@std@@@2@XZ 1000eee0 f i capldll.obj
 0001:0000df00       ?_Get_data@?$_Deque_alloc@U?$_Deque_base_types@VErrorInfo@Reader@Json@@V?$allocator@VErrorInfo@Reader@Json@@@std@@@std@@@std@@QAEAAV?$_Deque_val@U?$_Deque_simple_types@VErrorInfo@Reader@Json@@@std@@@2@XZ 1000ef00 f i capldll.obj
 0001:0000df20       ?_Get_data@?$_Deque_alloc@U?$_Deque_base_types@VErrorInfo@Reader@Json@@V?$allocator@VErrorInfo@Reader@Json@@@std@@@std@@@std@@QBEABV?$_Deque_val@U?$_Deque_simple_types@VErrorInfo@Reader@Json@@@std@@@2@XZ 1000ef20 f i capldll.obj
 0001:0000df40       ?_Get_data@?$_String_alloc@U?$_String_base_types@DV?$allocator@D@std@@@std@@@std@@QAEAAV?$_String_val@U?$_Simple_types@D@std@@@2@XZ 1000ef40 f i capldll.obj
 0001:0000df60       ?_Get_data@?$_String_alloc@U?$_String_base_types@DV?$allocator@D@std@@@std@@@std@@QBEABV?$_String_val@U?$_Simple_types@D@std@@@2@XZ 1000ef60 f i capldll.obj
 0001:0000df80       ?_Get_data@?$_Tree_comp_alloc@V?$_Tmap_traits@IPAVCaplInstanceData@@U?$less@I@std@@V?$allocator@U?$pair@$$CBIPAVCaplInstanceData@@@std@@@3@$0A@@std@@@std@@QAEAAV?$_Tree_val@U?$_Tree_simple_types@U?$pair@$$CBIPAVCaplInstanceData@@@std@@@std@@@2@XZ 1000ef80 f i capldll.obj
 0001:0000dfa0       ?_Get_data@?$_Tree_comp_alloc@V?$_Tmap_traits@IPAVCaplInstanceData@@U?$less@I@std@@V?$allocator@U?$pair@$$CBIPAVCaplInstanceData@@@std@@@3@$0A@@std@@@std@@QBEABV?$_Tree_val@U?$_Tree_simple_types@U?$pair@$$CBIPAVCaplInstanceData@@@std@@@std@@@2@XZ 1000efa0 f i capldll.obj
 0001:0000dfc0       ?_Get_data@?$_Tree_comp_alloc@V?$_Tmap_traits@IPAVVIACapl@@U?$less@I@std@@V?$allocator@U?$pair@$$CBIPAVVIACapl@@@std@@@3@$0A@@std@@@std@@QAEAAV?$_Tree_val@U?$_Tree_simple_types@U?$pair@$$CBIPAVVIACapl@@@std@@@std@@@2@XZ 1000efc0 f i capldll.obj
 0001:0000dfe0       ?_Get_data@?$_Tree_comp_alloc@V?$_Tmap_traits@IPAVVIACapl@@U?$less@I@std@@V?$allocator@U?$pair@$$CBIPAVVIACapl@@@std@@@3@$0A@@std@@@std@@QBEABV?$_Tree_val@U?$_Tree_simple_types@U?$pair@$$CBIPAVVIACapl@@@std@@@std@@@2@XZ 1000efe0 f i capldll.obj
 0001:0000e000       ?_Get_data@?$_Vector_alloc@U?$_Vec_base_types@V?$basic_string@DU?$char_traits@D@std@@V?$allocator@D@2@@std@@V?$allocator@V?$basic_string@DU?$char_traits@D@std@@V?$allocator@D@2@@std@@@2@@std@@@std@@QAEAAV?$_Vector_val@U?$_Simple_types@V?$basic_string@DU?$char_traits@D@std@@V?$allocator@D@2@@std@@@std@@@2@XZ 1000f000 f i capldll.obj
 0001:0000e020       ?_Get_data@?$_Vector_alloc@U?$_Vec_base_types@V?$basic_string@DU?$char_traits@D@std@@V?$allocator@D@2@@std@@V?$allocator@V?$basic_string@DU?$char_traits@D@std@@V?$allocator@D@2@@std@@@2@@std@@@std@@QBEABV?$_Vector_val@U?$_Simple_types@V?$basic_string@DU?$char_traits@D@std@@V?$allocator@D@2@@std@@@std@@@2@XZ 1000f020 f i capldll.obj
 0001:0000e040       ?_Get_first@?$_Compressed_pair@U?$less@I@std@@V?$_Compressed_pair@V?$allocator@U?$_Tree_node@U?$pair@$$CBIPAVCaplInstanceData@@@std@@PAX@std@@@std@@V?$_Tree_val@U?$_Tree_simple_types@U?$pair@$$CBIPAVCaplInstanceData@@@std@@@std@@@2@$00@2@$00@std@@QAEAAU?$less@I@2@XZ 1000f040 f i capldll.obj
 0001:0000e050       ?_Get_first@?$_Compressed_pair@U?$less@I@std@@V?$_Compressed_pair@V?$allocator@U?$_Tree_node@U?$pair@$$CBIPAVCaplInstanceData@@@std@@PAX@std@@@std@@V?$_Tree_val@U?$_Tree_simple_types@U?$pair@$$CBIPAVCaplInstanceData@@@std@@@std@@@2@$00@2@$00@std@@QBEABU?$less@I@2@XZ 1000f050 f i capldll.obj
 0001:0000e060       ?_Get_first@?$_Compressed_pair@U?$less@I@std@@V?$_Compressed_pair@V?$allocator@U?$_Tree_node@U?$pair@$$CBIPAVVIACapl@@@std@@PAX@std@@@std@@V?$_Tree_val@U?$_Tree_simple_types@U?$pair@$$CBIPAVVIACapl@@@std@@@std@@@2@$00@2@$00@std@@QAEAAU?$less@I@2@XZ 1000f060 f i capldll.obj
 0001:0000e070       ?_Get_first@?$_Compressed_pair@U?$less@I@std@@V?$_Compressed_pair@V?$allocator@U?$_Tree_node@U?$pair@$$CBIPAVVIACapl@@@std@@PAX@std@@@std@@V?$_Tree_val@U?$_Tree_simple_types@U?$pair@$$CBIPAVVIACapl@@@std@@@std@@@2@$00@2@$00@std@@QBEABU?$less@I@2@XZ 1000f070 f i capldll.obj
 0001:0000e080       ?_Get_first@?$_Compressed_pair@V?$allocator@D@std@@V?$_String_val@U?$_Simple_types@D@std@@@2@$00@std@@QAEAAV?$allocator@D@2@XZ 1000f080 f i capldll.obj
 0001:0000e090       ?_Get_first@?$_Compressed_pair@V?$allocator@D@std@@V?$_String_val@U?$_Simple_types@D@std@@@2@$00@std@@QBEABV?$allocator@D@2@XZ 1000f090 f i capldll.obj
 0001:0000e0a0       ?_Get_first@?$_Compressed_pair@V?$allocator@PAVValue@Json@@@std@@V?$_Deque_val@U?$_Deque_simple_types@PAVValue@Json@@@std@@@2@$00@std@@QAEAAV?$allocator@PAVValue@Json@@@2@XZ 1000f0a0 f i capldll.obj
 0001:0000e0b0       ?_Get_first@?$_Compressed_pair@V?$allocator@U?$_Tree_node@U?$pair@$$CBIPAVCaplInstanceData@@@std@@PAX@std@@@std@@V?$_Tree_val@U?$_Tree_simple_types@U?$pair@$$CBIPAVCaplInstanceData@@@std@@@std@@@2@$00@std@@QAEAAV?$allocator@U?$_Tree_node@U?$pair@$$CBIPAVCaplInstanceData@@@std@@PAX@std@@@2@XZ 1000f0b0 f i capldll.obj
 0001:0000e0c0       ?_Get_first@?$_Compressed_pair@V?$allocator@U?$_Tree_node@U?$pair@$$CBIPAVCaplInstanceData@@@std@@PAX@std@@@std@@V?$_Tree_val@U?$_Tree_simple_types@U?$pair@$$CBIPAVCaplInstanceData@@@std@@@std@@@2@$00@std@@QBEABV?$allocator@U?$_Tree_node@U?$pair@$$CBIPAVCaplInstanceData@@@std@@PAX@std@@@2@XZ 1000f0c0 f i capldll.obj
 0001:0000e0d0       ?_Get_first@?$_Compressed_pair@V?$allocator@U?$_Tree_node@U?$pair@$$CBIPAVVIACapl@@@std@@PAX@std@@@std@@V?$_Tree_val@U?$_Tree_simple_types@U?$pair@$$CBIPAVVIACapl@@@std@@@std@@@2@$00@std@@QAEAAV?$allocator@U?$_Tree_node@U?$pair@$$CBIPAVVIACapl@@@std@@PAX@std@@@2@XZ 1000f0d0 f i capldll.obj
 0001:0000e0e0       ?_Get_first@?$_Compressed_pair@V?$allocator@U?$_Tree_node@U?$pair@$$CBIPAVVIACapl@@@std@@PAX@std@@@std@@V?$_Tree_val@U?$_Tree_simple_types@U?$pair@$$CBIPAVVIACapl@@@std@@@std@@@2@$00@std@@QBEABV?$allocator@U?$_Tree_node@U?$pair@$$CBIPAVVIACapl@@@std@@PAX@std@@@2@XZ 1000f0e0 f i capldll.obj
 0001:0000e0f0       ?_Get_first@?$_Compressed_pair@V?$allocator@V?$basic_string@DU?$char_traits@D@std@@V?$allocator@D@2@@std@@@std@@V?$_Vector_val@U?$_Simple_types@V?$basic_string@DU?$char_traits@D@std@@V?$allocator@D@2@@std@@@std@@@2@$00@std@@QAEAAV?$allocator@V?$basic_string@DU?$char_traits@D@std@@V?$allocator@D@2@@std@@@2@XZ 1000f0f0 f i capldll.obj
 0001:0000e100       ?_Get_first@?$_Compressed_pair@V?$allocator@VErrorInfo@Reader@Json@@@std@@V?$_Deque_val@U?$_Deque_simple_types@VErrorInfo@Reader@Json@@@std@@@2@$00@std@@QAEAAV?$allocator@VErrorInfo@Reader@Json@@@2@XZ 1000f100 f i capldll.obj
 0001:0000e110       ?_Get_second@?$_Compressed_pair@U?$less@I@std@@V?$_Compressed_pair@V?$allocator@U?$_Tree_node@U?$pair@$$CBIPAVCaplInstanceData@@@std@@PAX@std@@@std@@V?$_Tree_val@U?$_Tree_simple_types@U?$pair@$$CBIPAVCaplInstanceData@@@std@@@std@@@2@$00@2@$00@std@@QAEAAV?$_Compressed_pair@V?$allocator@U?$_Tree_node@U?$pair@$$CBIPAVCaplInstanceData@@@std@@PAX@std@@@std@@V?$_Tree_val@U?$_Tree_simple_types@U?$pair@$$CBIPAVCaplInstanceData@@@std@@@std@@@2@$00@2@XZ 1000f110 f i capldll.obj
 0001:0000e120       ?_Get_second@?$_Compressed_pair@U?$less@I@std@@V?$_Compressed_pair@V?$allocator@U?$_Tree_node@U?$pair@$$CBIPAVCaplInstanceData@@@std@@PAX@std@@@std@@V?$_Tree_val@U?$_Tree_simple_types@U?$pair@$$CBIPAVCaplInstanceData@@@std@@@std@@@2@$00@2@$00@std@@QBEABV?$_Compressed_pair@V?$allocator@U?$_Tree_node@U?$pair@$$CBIPAVCaplInstanceData@@@std@@PAX@std@@@std@@V?$_Tree_val@U?$_Tree_simple_types@U?$pair@$$CBIPAVCaplInstanceData@@@std@@@std@@@2@$00@2@XZ 1000f120 f i capldll.obj
 0001:0000e130       ?_Get_second@?$_Compressed_pair@U?$less@I@std@@V?$_Compressed_pair@V?$allocator@U?$_Tree_node@U?$pair@$$CBIPAVVIACapl@@@std@@PAX@std@@@std@@V?$_Tree_val@U?$_Tree_simple_types@U?$pair@$$CBIPAVVIACapl@@@std@@@std@@@2@$00@2@$00@std@@QAEAAV?$_Compressed_pair@V?$allocator@U?$_Tree_node@U?$pair@$$CBIPAVVIACapl@@@std@@PAX@std@@@std@@V?$_Tree_val@U?$_Tree_simple_types@U?$pair@$$CBIPAVVIACapl@@@std@@@std@@@2@$00@2@XZ 1000f130 f i capldll.obj
 0001:0000e140       ?_Get_second@?$_Compressed_pair@U?$less@I@std@@V?$_Compressed_pair@V?$allocator@U?$_Tree_node@U?$pair@$$CBIPAVVIACapl@@@std@@PAX@std@@@std@@V?$_Tree_val@U?$_Tree_simple_types@U?$pair@$$CBIPAVVIACapl@@@std@@@std@@@2@$00@2@$00@std@@QBEABV?$_Compressed_pair@V?$allocator@U?$_Tree_node@U?$pair@$$CBIPAVVIACapl@@@std@@PAX@std@@@std@@V?$_Tree_val@U?$_Tree_simple_types@U?$pair@$$CBIPAVVIACapl@@@std@@@std@@@2@$00@2@XZ 1000f140 f i capldll.obj
 0001:0000e150       ?_Get_second@?$_Compressed_pair@V?$allocator@D@std@@V?$_String_val@U?$_Simple_types@D@std@@@2@$00@std@@QAEAAV?$_String_val@U?$_Simple_types@D@std@@@2@XZ 1000f150 f i capldll.obj
 0001:0000e160       ?_Get_second@?$_Compressed_pair@V?$allocator@D@std@@V?$_String_val@U?$_Simple_types@D@std@@@2@$00@std@@QBEABV?$_String_val@U?$_Simple_types@D@std@@@2@XZ 1000f160 f i capldll.obj
 0001:0000e170       ?_Get_second@?$_Compressed_pair@V?$allocator@PAVValue@Json@@@std@@V?$_Deque_val@U?$_Deque_simple_types@PAVValue@Json@@@std@@@2@$00@std@@QAEAAV?$_Deque_val@U?$_Deque_simple_types@PAVValue@Json@@@std@@@2@XZ 1000f170 f i capldll.obj
 0001:0000e180       ?_Get_second@?$_Compressed_pair@V?$allocator@PAVValue@Json@@@std@@V?$_Deque_val@U?$_Deque_simple_types@PAVValue@Json@@@std@@@2@$00@std@@QBEABV?$_Deque_val@U?$_Deque_simple_types@PAVValue@Json@@@std@@@2@XZ 1000f180 f i capldll.obj
 0001:0000e190       ?_Get_second@?$_Compressed_pair@V?$allocator@U?$_Tree_node@U?$pair@$$CBIPAVCaplInstanceData@@@std@@PAX@std@@@std@@V?$_Tree_val@U?$_Tree_simple_types@U?$pair@$$CBIPAVCaplInstanceData@@@std@@@std@@@2@$00@std@@QAEAAV?$_Tree_val@U?$_Tree_simple_types@U?$pair@$$CBIPAVCaplInstanceData@@@std@@@std@@@2@XZ 1000f190 f i capldll.obj
 0001:0000e1a0       ?_Get_second@?$_Compressed_pair@V?$allocator@U?$_Tree_node@U?$pair@$$CBIPAVCaplInstanceData@@@std@@PAX@std@@@std@@V?$_Tree_val@U?$_Tree_simple_types@U?$pair@$$CBIPAVCaplInstanceData@@@std@@@std@@@2@$00@std@@QBEABV?$_Tree_val@U?$_Tree_simple_types@U?$pair@$$CBIPAVCaplInstanceData@@@std@@@std@@@2@XZ 1000f1a0 f i capldll.obj
 0001:0000e1b0       ?_Get_second@?$_Compressed_pair@V?$allocator@U?$_Tree_node@U?$pair@$$CBIPAVVIACapl@@@std@@PAX@std@@@std@@V?$_Tree_val@U?$_Tree_simple_types@U?$pair@$$CBIPAVVIACapl@@@std@@@std@@@2@$00@std@@QAEAAV?$_Tree_val@U?$_Tree_simple_types@U?$pair@$$CBIPAVVIACapl@@@std@@@std@@@2@XZ 1000f1b0 f i capldll.obj
 0001:0000e1c0       ?_Get_second@?$_Compressed_pair@V?$allocator@U?$_Tree_node@U?$pair@$$CBIPAVVIACapl@@@std@@PAX@std@@@std@@V?$_Tree_val@U?$_Tree_simple_types@U?$pair@$$CBIPAVVIACapl@@@std@@@std@@@2@$00@std@@QBEABV?$_Tree_val@U?$_Tree_simple_types@U?$pair@$$CBIPAVVIACapl@@@std@@@std@@@2@XZ 1000f1c0 f i capldll.obj
 0001:0000e1d0       ?_Get_second@?$_Compressed_pair@V?$allocator@V?$basic_string@DU?$char_traits@D@std@@V?$allocator@D@2@@std@@@std@@V?$_Vector_val@U?$_Simple_types@V?$basic_string@DU?$char_traits@D@std@@V?$allocator@D@2@@std@@@std@@@2@$00@std@@QAEAAV?$_Vector_val@U?$_Simple_types@V?$basic_string@DU?$char_traits@D@std@@V?$allocator@D@2@@std@@@std@@@2@XZ 1000f1d0 f i capldll.obj
 0001:0000e1e0       ?_Get_second@?$_Compressed_pair@V?$allocator@V?$basic_string@DU?$char_traits@D@std@@V?$allocator@D@2@@std@@@std@@V?$_Vector_val@U?$_Simple_types@V?$basic_string@DU?$char_traits@D@std@@V?$allocator@D@2@@std@@@std@@@2@$00@std@@QBEABV?$_Vector_val@U?$_Simple_types@V?$basic_string@DU?$char_traits@D@std@@V?$allocator@D@2@@std@@@std@@@2@XZ 1000f1e0 f i capldll.obj
 0001:0000e1f0       ?_Get_second@?$_Compressed_pair@V?$allocator@VErrorInfo@Reader@Json@@@std@@V?$_Deque_val@U?$_Deque_simple_types@VErrorInfo@Reader@Json@@@std@@@2@$00@std@@QAEAAV?$_Deque_val@U?$_Deque_simple_types@VErrorInfo@Reader@Json@@@std@@@2@XZ 1000f1f0 f i capldll.obj
 0001:0000e200       ?_Get_second@?$_Compressed_pair@V?$allocator@VErrorInfo@Reader@Json@@@std@@V?$_Deque_val@U?$_Deque_simple_types@VErrorInfo@Reader@Json@@@std@@@2@$00@std@@QBEABV?$_Deque_val@U?$_Deque_simple_types@VErrorInfo@Reader@Json@@@std@@@2@XZ 1000f200 f i capldll.obj
 0001:0000e210       ?_Getal@?$_Deque_alloc@U?$_Deque_base_types@PAVValue@Json@@V?$allocator@PAVValue@Json@@@std@@@std@@@std@@QAEAAV?$allocator@PAVValue@Json@@@2@XZ 1000f210 f i capldll.obj
 0001:0000e230       ?_Getal@?$_Deque_alloc@U?$_Deque_base_types@VErrorInfo@Reader@Json@@V?$allocator@VErrorInfo@Reader@Json@@@std@@@std@@@std@@QAEAAV?$allocator@VErrorInfo@Reader@Json@@@2@XZ 1000f230 f i capldll.obj
 0001:0000e250       ?_Getal@?$_String_alloc@U?$_String_base_types@DV?$allocator@D@std@@@std@@@std@@QAEAAV?$allocator@D@2@XZ 1000f250 f i capldll.obj
 0001:0000e270       ?_Getal@?$_String_alloc@U?$_String_base_types@DV?$allocator@D@std@@@std@@@std@@QBEABV?$allocator@D@2@XZ 1000f270 f i capldll.obj
 0001:0000e290       ?_Getal@?$_Tree_comp_alloc@V?$_Tmap_traits@IPAVCaplInstanceData@@U?$less@I@std@@V?$allocator@U?$pair@$$CBIPAVCaplInstanceData@@@std@@@3@$0A@@std@@@std@@QAEAAV?$allocator@U?$_Tree_node@U?$pair@$$CBIPAVCaplInstanceData@@@std@@PAX@std@@@2@XZ 1000f290 f i capldll.obj
 0001:0000e2b0       ?_Getal@?$_Tree_comp_alloc@V?$_Tmap_traits@IPAVCaplInstanceData@@U?$less@I@std@@V?$allocator@U?$pair@$$CBIPAVCaplInstanceData@@@std@@@3@$0A@@std@@@std@@QBEABV?$allocator@U?$_Tree_node@U?$pair@$$CBIPAVCaplInstanceData@@@std@@PAX@std@@@2@XZ 1000f2b0 f i capldll.obj
 0001:0000e2d0       ?_Getal@?$_Tree_comp_alloc@V?$_Tmap_traits@IPAVVIACapl@@U?$less@I@std@@V?$allocator@U?$pair@$$CBIPAVVIACapl@@@std@@@3@$0A@@std@@@std@@QAEAAV?$allocator@U?$_Tree_node@U?$pair@$$CBIPAVVIACapl@@@std@@PAX@std@@@2@XZ 1000f2d0 f i capldll.obj
 0001:0000e2f0       ?_Getal@?$_Tree_comp_alloc@V?$_Tmap_traits@IPAVVIACapl@@U?$less@I@std@@V?$allocator@U?$pair@$$CBIPAVVIACapl@@@std@@@3@$0A@@std@@@std@@QBEABV?$allocator@U?$_Tree_node@U?$pair@$$CBIPAVVIACapl@@@std@@PAX@std@@@2@XZ 1000f2f0 f i capldll.obj
 0001:0000e310       ?_Getal@?$_Vector_alloc@U?$_Vec_base_types@V?$basic_string@DU?$char_traits@D@std@@V?$allocator@D@2@@std@@V?$allocator@V?$basic_string@DU?$char_traits@D@std@@V?$allocator@D@2@@std@@@2@@std@@@std@@QAEAAV?$allocator@V?$basic_string@DU?$char_traits@D@std@@V?$allocator@D@2@@std@@@2@XZ 1000f310 f i capldll.obj
 0001:0000e330       ?_Getblock@?$_Deque_alloc@U?$_Deque_base_types@PAVValue@Json@@V?$allocator@PAVValue@Json@@@std@@@std@@@std@@QBEII@Z 1000f330 f i capldll.obj
 0001:0000e350       ?_Getblock@?$_Deque_alloc@U?$_Deque_base_types@VErrorInfo@Reader@Json@@V?$allocator@VErrorInfo@Reader@Json@@@std@@@std@@@std@@QBEII@Z 1000f350 f i capldll.obj
 0001:0000e370       ?_Getblock@?$_Deque_val@U?$_Deque_simple_types@PAVValue@Json@@@std@@@std@@QBEII@Z 1000f370 f i capldll.obj
 0001:0000e390       ?_Getblock@?$_Deque_val@U?$_Deque_simple_types@VErrorInfo@Reader@Json@@@std@@@std@@QBEII@Z 1000f390 f i capldll.obj
 0001:0000e3b0       ?_Getcomp@?$_Tree_comp_alloc@V?$_Tmap_traits@IPAVCaplInstanceData@@U?$less@I@std@@V?$allocator@U?$pair@$$CBIPAVCaplInstanceData@@@std@@@3@$0A@@std@@@std@@QAEAAU?$less@I@2@XZ 1000f3b0 f i capldll.obj
 0001:0000e3d0       ?_Getcomp@?$_Tree_comp_alloc@V?$_Tmap_traits@IPAVCaplInstanceData@@U?$less@I@std@@V?$allocator@U?$pair@$$CBIPAVCaplInstanceData@@@std@@@3@$0A@@std@@@std@@QBEABU?$less@I@2@XZ 1000f3d0 f i capldll.obj
 0001:0000e3f0       ?_Getcomp@?$_Tree_comp_alloc@V?$_Tmap_traits@IPAVVIACapl@@U?$less@I@std@@V?$allocator@U?$pair@$$CBIPAVVIACapl@@@std@@@3@$0A@@std@@@std@@QAEAAU?$less@I@2@XZ 1000f3f0 f i capldll.obj
 0001:0000e410       ?_Getcomp@?$_Tree_comp_alloc@V?$_Tmap_traits@IPAVVIACapl@@U?$less@I@std@@V?$allocator@U?$pair@$$CBIPAVVIACapl@@@std@@@3@$0A@@std@@@std@@QBEABU?$less@I@2@XZ 1000f410 f i capldll.obj
 0001:0000e430       ?_Getcont@_Iterator_base12@std@@QBEPBU_Container_base12@2@XZ 1000f430 f i capldll.obj
 0001:0000e460       ?_Getpfirst@?$_Deque_alloc@U?$_Deque_base_types@PAVValue@Json@@V?$allocator@PAVValue@Json@@@std@@@std@@@std@@QBEPAPAU_Iterator_base12@2@XZ 1000f460 f i capldll.obj
 0001:0000e480       ?_Getpfirst@?$_Deque_alloc@U?$_Deque_base_types@VErrorInfo@Reader@Json@@V?$allocator@VErrorInfo@Reader@Json@@@std@@@std@@@std@@QBEPAPAU_Iterator_base12@2@XZ 1000f480 f i capldll.obj
 0001:0000e4a0       ?_Getpfirst@?$_Tree_comp_alloc@V?$_Tmap_traits@IPAVCaplInstanceData@@U?$less@I@std@@V?$allocator@U?$pair@$$CBIPAVCaplInstanceData@@@std@@@3@$0A@@std@@@std@@QBEPAPAU_Iterator_base12@2@XZ 1000f4a0 f i capldll.obj
 0001:0000e4c0       ?_Getpfirst@?$_Tree_comp_alloc@V?$_Tmap_traits@IPAVVIACapl@@U?$less@I@std@@V?$allocator@U?$pair@$$CBIPAVVIACapl@@@std@@@3@$0A@@std@@@std@@QBEPAPAU_Iterator_base12@2@XZ 1000f4c0 f i capldll.obj
 0001:0000e4e0       ?_Getpfirst@_Container_base12@std@@QBEPAPAU_Iterator_base12@2@XZ 1000f4e0 f i capldll.obj
 0001:0000e510       ?_Getpnext@_Iterator_base12@std@@QAEPAPAU12@XZ 1000f510 f i capldll.obj
 0001:0000e530       ?_Key@?$_Tree@V?$_Tmap_traits@IPAVCaplInstanceData@@U?$less@I@std@@V?$allocator@U?$pair@$$CBIPAVCaplInstanceData@@@std@@@3@$0A@@std@@@std@@IBEABIPAU?$_Tree_node@U?$pair@$$CBIPAVCaplInstanceData@@@std@@PAX@2@@Z 1000f530 f i capldll.obj
 0001:0000e550       ?_Key@?$_Tree@V?$_Tmap_traits@IPAVVIACapl@@U?$less@I@std@@V?$allocator@U?$pair@$$CBIPAVVIACapl@@@std@@@3@$0A@@std@@@std@@IBEABIPAU?$_Tree_node@U?$pair@$$CBIPAVVIACapl@@@std@@PAX@2@@Z 1000f550 f i capldll.obj
 0001:0000e570       ?_Kfn@?$_Tree@V?$_Tmap_traits@IPAVCaplInstanceData@@U?$less@I@std@@V?$allocator@U?$pair@$$CBIPAVCaplInstanceData@@@std@@@3@$0A@@std@@@std@@IBEABIABU?$pair@$$CBIPAVCaplInstanceData@@@2@@Z 1000f570 f i capldll.obj
 0001:0000e590       ?_Kfn@?$_Tree@V?$_Tmap_traits@IPAVVIACapl@@U?$less@I@std@@V?$allocator@U?$pair@$$CBIPAVVIACapl@@@std@@@3@$0A@@std@@@std@@IBEABIABU?$pair@$$CBIPAVVIACapl@@@2@@Z 1000f590 f i capldll.obj
 0001:0000e5b0       ?_Large_string_engaged@?$_String_val@U?$_Simple_types@D@std@@@std@@QBE_NXZ 1000f5b0 f i capldll.obj
 0001:0000e5e0       ?_Lmost@?$_Tree_val@U?$_Tree_simple_types@U?$pair@$$CBIPAVCaplInstanceData@@@std@@@std@@@std@@QBEAAPAU?$_Tree_node@U?$pair@$$CBIPAVCaplInstanceData@@@std@@PAX@2@XZ 1000f5e0 f i capldll.obj
 0001:0000e600       ?_Lmost@?$_Tree_val@U?$_Tree_simple_types@U?$pair@$$CBIPAVVIACapl@@@std@@@std@@@std@@QBEAAPAU?$_Tree_node@U?$pair@$$CBIPAVVIACapl@@@std@@PAX@2@XZ 1000f600 f i capldll.obj
 0001:0000e620       ?_Lrotate@?$_Tree_val@U?$_Tree_simple_types@U?$pair@$$CBIPAVCaplInstanceData@@@std@@@std@@@std@@QAEXPAU?$_Tree_node@U?$pair@$$CBIPAVCaplInstanceData@@@std@@PAX@2@@Z 1000f620 f i capldll.obj
 0001:0000e6c0       ?_Lrotate@?$_Tree_val@U?$_Tree_simple_types@U?$pair@$$CBIPAVVIACapl@@@std@@@std@@@std@@QAEXPAU?$_Tree_node@U?$pair@$$CBIPAVVIACapl@@@std@@PAX@2@@Z 1000f6c0 f i capldll.obj
 0001:0000e760       ?_Map@?$_Deque_alloc@U?$_Deque_base_types@PAVValue@Json@@V?$allocator@PAVValue@Json@@@std@@@std@@@std@@QAEAAPAPAPAVValue@Json@@XZ 1000f760 f i capldll.obj
 0001:0000e780       ?_Map@?$_Deque_alloc@U?$_Deque_base_types@VErrorInfo@Reader@Json@@V?$allocator@VErrorInfo@Reader@Json@@@std@@@std@@@std@@QAEAAPAPAVErrorInfo@Reader@Json@@XZ 1000f780 f i capldll.obj
 0001:0000e7a0       ?_Mapsize@?$_Deque_alloc@U?$_Deque_base_types@PAVValue@Json@@V?$allocator@PAVValue@Json@@@std@@@std@@@std@@QAEAAIXZ 1000f7a0 f i capldll.obj
 0001:0000e7c0       ?_Mapsize@?$_Deque_alloc@U?$_Deque_base_types@VErrorInfo@Reader@Json@@V?$allocator@VErrorInfo@Reader@Json@@@std@@@std@@@std@@QAEAAIXZ 1000f7c0 f i capldll.obj
 0001:0000e7e0       ?_Max@?$_Tree_val@U?$_Tree_simple_types@U?$pair@$$CBIPAVCaplInstanceData@@@std@@@std@@@std@@SAPAU?$_Tree_node@U?$pair@$$CBIPAVCaplInstanceData@@@std@@PAX@2@PAU32@@Z 1000f7e0 f i capldll.obj
 0001:0000e810       ?_Max@?$_Tree_val@U?$_Tree_simple_types@U?$pair@$$CBIPAVVIACapl@@@std@@@std@@@std@@SAPAU?$_Tree_node@U?$pair@$$CBIPAVVIACapl@@@std@@PAX@2@PAU32@@Z 1000f810 f i capldll.obj
 0001:0000e840       ?_Min@?$_Tree_val@U?$_Tree_simple_types@U?$pair@$$CBIPAVCaplInstanceData@@@std@@@std@@@std@@SAPAU?$_Tree_node@U?$pair@$$CBIPAVCaplInstanceData@@@std@@PAX@2@PAU32@@Z 1000f840 f i capldll.obj
 0001:0000e860       ?_Min@?$_Tree_val@U?$_Tree_simple_types@U?$pair@$$CBIPAVVIACapl@@@std@@@std@@@std@@SAPAU?$_Tree_node@U?$pair@$$CBIPAVVIACapl@@@std@@PAX@2@PAU32@@Z 1000f860 f i capldll.obj
 0001:0000e880       ?_Myend@?$_Vector_alloc@U?$_Vec_base_types@V?$basic_string@DU?$char_traits@D@std@@V?$allocator@D@2@@std@@V?$allocator@V?$basic_string@DU?$char_traits@D@std@@V?$allocator@D@2@@std@@@2@@std@@@std@@QAEAAPAV?$basic_string@DU?$char_traits@D@std@@V?$allocator@D@2@@2@XZ 1000f880 f i capldll.obj
 0001:0000e8a0       ?_Myend@?$_Vector_alloc@U?$_Vec_base_types@V?$basic_string@DU?$char_traits@D@std@@V?$allocator@D@2@@std@@V?$allocator@V?$basic_string@DU?$char_traits@D@std@@V?$allocator@D@2@@std@@@2@@std@@@std@@QBEABQAV?$basic_string@DU?$char_traits@D@std@@V?$allocator@D@2@@2@XZ 1000f8a0 f i capldll.obj
 0001:0000e8c0       ?_Myfirst@?$_Vector_alloc@U?$_Vec_base_types@V?$basic_string@DU?$char_traits@D@std@@V?$allocator@D@2@@std@@V?$allocator@V?$basic_string@DU?$char_traits@D@std@@V?$allocator@D@2@@std@@@2@@std@@@std@@QAEAAPAV?$basic_string@DU?$char_traits@D@std@@V?$allocator@D@2@@2@XZ 1000f8c0 f i capldll.obj
 0001:0000e8e0       ?_Myfirst@?$_Vector_alloc@U?$_Vec_base_types@V?$basic_string@DU?$char_traits@D@std@@V?$allocator@D@2@@std@@V?$allocator@V?$basic_string@DU?$char_traits@D@std@@V?$allocator@D@2@@std@@@2@@std@@@std@@QBEABQAV?$basic_string@DU?$char_traits@D@std@@V?$allocator@D@2@@2@XZ 1000f8e0 f i capldll.obj
 0001:0000e900       ?_Mylast@?$_Vector_alloc@U?$_Vec_base_types@V?$basic_string@DU?$char_traits@D@std@@V?$allocator@D@2@@std@@V?$allocator@V?$basic_string@DU?$char_traits@D@std@@V?$allocator@D@2@@std@@@2@@std@@@std@@QAEAAPAV?$basic_string@DU?$char_traits@D@std@@V?$allocator@D@2@@2@XZ 1000f900 f i capldll.obj
 0001:0000e920       ?_Myoff@?$_Deque_alloc@U?$_Deque_base_types@PAVValue@Json@@V?$allocator@PAVValue@Json@@@std@@@std@@@std@@QAEAAIXZ 1000f920 f i capldll.obj
 0001:0000e940       ?_Myoff@?$_Deque_alloc@U?$_Deque_base_types@PAVValue@Json@@V?$allocator@PAVValue@Json@@@std@@@std@@@std@@QBEABIXZ 1000f940 f i capldll.obj
 0001:0000e960       ?_Myoff@?$_Deque_alloc@U?$_Deque_base_types@VErrorInfo@Reader@Json@@V?$allocator@VErrorInfo@Reader@Json@@@std@@@std@@@std@@QAEAAIXZ 1000f960 f i capldll.obj
 0001:0000e980       ?_Myoff@?$_Deque_alloc@U?$_Deque_base_types@VErrorInfo@Reader@Json@@V?$allocator@VErrorInfo@Reader@Json@@@std@@@std@@@std@@QBEABIXZ 1000f980 f i capldll.obj
 0001:0000e9a0       ?_Myproxy@?$_Deque_alloc@U?$_Deque_base_types@PAVValue@Json@@V?$allocator@PAVValue@Json@@@std@@@std@@@std@@QAEAAPAU_Container_proxy@2@XZ 1000f9a0 f i capldll.obj
 0001:0000e9c0       ?_Myproxy@?$_Deque_alloc@U?$_Deque_base_types@VErrorInfo@Reader@Json@@V?$allocator@VErrorInfo@Reader@Json@@@std@@@std@@@std@@QAEAAPAU_Container_proxy@2@XZ 1000f9c0 f i capldll.obj
 0001:0000e9e0       ?_Myproxy@?$_String_alloc@U?$_String_base_types@DV?$allocator@D@std@@@std@@@std@@QAEAAPAU_Container_proxy@2@XZ 1000f9e0 f i capldll.obj
 0001:0000ea00       ?_Myproxy@?$_Tree_comp_alloc@V?$_Tmap_traits@IPAVCaplInstanceData@@U?$less@I@std@@V?$allocator@U?$pair@$$CBIPAVCaplInstanceData@@@std@@@3@$0A@@std@@@std@@QAEAAPAU_Container_proxy@2@XZ 1000fa00 f i capldll.obj
 0001:0000ea20       ?_Myproxy@?$_Tree_comp_alloc@V?$_Tmap_traits@IPAVVIACapl@@U?$less@I@std@@V?$allocator@U?$pair@$$CBIPAVVIACapl@@@std@@@3@$0A@@std@@@std@@QAEAAPAU_Container_proxy@2@XZ 1000fa20 f i capldll.obj
 0001:0000ea40       ?_Myproxy@?$_Vector_alloc@U?$_Vec_base_types@V?$basic_string@DU?$char_traits@D@std@@V?$allocator@D@2@@std@@V?$allocator@V?$basic_string@DU?$char_traits@D@std@@V?$allocator@D@2@@std@@@2@@std@@@std@@QAEAAPAU_Container_proxy@2@XZ 1000fa40 f i capldll.obj
 0001:0000ea60       ?_Myptr@?$_String_val@U?$_Simple_types@D@std@@@std@@QAEPADXZ 1000fa60 f i capldll.obj
 0001:0000eaa0       ?_Myptr@?$_String_val@U?$_Simple_types@D@std@@@std@@QBEPBDXZ 1000faa0 f i capldll.obj
 0001:0000eae0       ?_Mysize@?$_Deque_alloc@U?$_Deque_base_types@PAVValue@Json@@V?$allocator@PAVValue@Json@@@std@@@std@@@std@@QAEAAIXZ 1000fae0 f i capldll.obj
 0001:0000eb00       ?_Mysize@?$_Deque_alloc@U?$_Deque_base_types@PAVValue@Json@@V?$allocator@PAVValue@Json@@@std@@@std@@@std@@QBEABIXZ 1000fb00 f i capldll.obj
 0001:0000eb20       ?_Mysize@?$_Deque_alloc@U?$_Deque_base_types@VErrorInfo@Reader@Json@@V?$allocator@VErrorInfo@Reader@Json@@@std@@@std@@@std@@QAEAAIXZ 1000fb20 f i capldll.obj
 0001:0000eb40       ?_Mysize@?$_Deque_alloc@U?$_Deque_base_types@VErrorInfo@Reader@Json@@V?$allocator@VErrorInfo@Reader@Json@@@std@@@std@@@std@@QBEABIXZ 1000fb40 f i capldll.obj
 0001:0000eb60       ?_Orphan_all@?$_Deque_alloc@U?$_Deque_base_types@PAVValue@Json@@V?$allocator@PAVValue@Json@@@std@@@std@@@std@@QAEXXZ 1000fb60 f i capldll.obj
 0001:0000eb80       ?_Orphan_all@?$_Deque_alloc@U?$_Deque_base_types@VErrorInfo@Reader@Json@@V?$allocator@VErrorInfo@Reader@Json@@@std@@@std@@@std@@QAEXXZ 1000fb80 f i capldll.obj
 0001:0000eba0       ?_Orphan_all@?$_String_alloc@U?$_String_base_types@DV?$allocator@D@std@@@std@@@std@@QAEXXZ 1000fba0 f i capldll.obj
 0001:0000ebc0       ?_Orphan_all@?$_Tree_comp_alloc@V?$_Tmap_traits@IPAVCaplInstanceData@@U?$less@I@std@@V?$allocator@U?$pair@$$CBIPAVCaplInstanceData@@@std@@@3@$0A@@std@@@std@@QAEXXZ 1000fbc0 f i capldll.obj
 0001:0000ebe0       ?_Orphan_all@?$_Tree_comp_alloc@V?$_Tmap_traits@IPAVVIACapl@@U?$less@I@std@@V?$allocator@U?$pair@$$CBIPAVVIACapl@@@std@@@3@$0A@@std@@@std@@QAEXXZ 1000fbe0 f i capldll.obj
 0001:0000ec00       ?_Orphan_all@?$_Vector_alloc@U?$_Vec_base_types@V?$basic_string@DU?$char_traits@D@std@@V?$allocator@D@2@@std@@V?$allocator@V?$basic_string@DU?$char_traits@D@std@@V?$allocator@D@2@@std@@@2@@std@@@std@@QAEXXZ 1000fc00 f i capldll.obj
 0001:0000ec20       ?_Orphan_all@_Container_base12@std@@QAEXXZ 1000fc20 f i capldll.obj
 0001:0000ecb0       ?_Orphan_me@_Iterator_base12@std@@QAEXXZ 1000fcb0 f i capldll.obj
 0001:0000ed60       ?_Orphan_off@?$deque@PAVValue@Json@@V?$allocator@PAVValue@Json@@@std@@@std@@IBEXI@Z 1000fd60 f i capldll.obj
 0001:0000ee70       ?_Orphan_off@?$deque@VErrorInfo@Reader@Json@@V?$allocator@VErrorInfo@Reader@Json@@@std@@@std@@IBEXI@Z 1000fe70 f i capldll.obj
 0001:0000ef80       ?_Orphan_ptr@?$_Tree@V?$_Tmap_traits@IPAVCaplInstanceData@@U?$less@I@std@@V?$allocator@U?$pair@$$CBIPAVCaplInstanceData@@@std@@@3@$0A@@std@@@std@@IAEXPAU?$_Tree_node@U?$pair@$$CBIPAVCaplInstanceData@@@std@@PAX@2@@Z 1000ff80 f i capldll.obj
 0001:0000f050       ?_Orphan_ptr@?$_Tree@V?$_Tmap_traits@IPAVVIACapl@@U?$less@I@std@@V?$allocator@U?$pair@$$CBIPAVVIACapl@@@std@@@3@$0A@@std@@@std@@IAEXPAU?$_Tree_node@U?$pair@$$CBIPAVVIACapl@@@std@@PAX@2@@Z 10010050 f i capldll.obj
 0001:0000f120       ?_Rmost@?$_Tree_val@U?$_Tree_simple_types@U?$pair@$$CBIPAVCaplInstanceData@@@std@@@std@@@std@@QBEAAPAU?$_Tree_node@U?$pair@$$CBIPAVCaplInstanceData@@@std@@PAX@2@XZ 10010120 f i capldll.obj
 0001:0000f140       ?_Rmost@?$_Tree_val@U?$_Tree_simple_types@U?$pair@$$CBIPAVVIACapl@@@std@@@std@@@std@@QBEAAPAU?$_Tree_node@U?$pair@$$CBIPAVVIACapl@@@std@@PAX@2@XZ 10010140 f i capldll.obj
 0001:0000f160       ?_Root@?$_Tree_val@U?$_Tree_simple_types@U?$pair@$$CBIPAVCaplInstanceData@@@std@@@std@@@std@@QBEAAPAU?$_Tree_node@U?$pair@$$CBIPAVCaplInstanceData@@@std@@PAX@2@XZ 10010160 f i capldll.obj
 0001:0000f180       ?_Root@?$_Tree_val@U?$_Tree_simple_types@U?$pair@$$CBIPAVVIACapl@@@std@@@std@@@std@@QBEAAPAU?$_Tree_node@U?$pair@$$CBIPAVVIACapl@@@std@@PAX@2@XZ 10010180 f i capldll.obj
 0001:0000f1a0       ?_Rrotate@?$_Tree_val@U?$_Tree_simple_types@U?$pair@$$CBIPAVCaplInstanceData@@@std@@@std@@@std@@QAEXPAU?$_Tree_node@U?$pair@$$CBIPAVCaplInstanceData@@@std@@PAX@2@@Z 100101a0 f i capldll.obj
 0001:0000f240       ?_Rrotate@?$_Tree_val@U?$_Tree_simple_types@U?$pair@$$CBIPAVVIACapl@@@std@@@std@@@std@@QAEXPAU?$_Tree_node@U?$pair@$$CBIPAVVIACapl@@@std@@PAX@2@@Z 10010240 f i capldll.obj
 0001:0000f2e0       ?_Tidy@?$_Tree@V?$_Tmap_traits@IPAVCaplInstanceData@@U?$less@I@std@@V?$allocator@U?$pair@$$CBIPAVCaplInstanceData@@@std@@@3@$0A@@std@@@std@@IAEXXZ 100102e0 f i capldll.obj
 0001:0000f3b0       ?_Tidy@?$_Tree@V?$_Tmap_traits@IPAVVIACapl@@U?$less@I@std@@V?$allocator@U?$pair@$$CBIPAVVIACapl@@@std@@@3@$0A@@std@@@std@@IAEXXZ 100103b0 f i capldll.obj
 0001:0000f480       ?_Tidy@?$deque@PAVValue@Json@@V?$allocator@PAVValue@Json@@@std@@@std@@IAEXXZ 10010480 f i capldll.obj
 0001:0000f580       ?_Tidy@?$deque@VErrorInfo@Reader@Json@@V?$allocator@VErrorInfo@Reader@Json@@@std@@@std@@IAEXXZ 10010580 f i capldll.obj
 0001:0000f680       ?_Tidy@?$vector@V?$basic_string@DU?$char_traits@D@std@@V?$allocator@D@2@@std@@V?$allocator@V?$basic_string@DU?$char_traits@D@std@@V?$allocator@D@2@@std@@@2@@std@@AAEXXZ 10010680 f i capldll.obj
 0001:0000f710       ?_Tidy_deallocate@?$basic_string@DU?$char_traits@D@std@@V?$allocator@D@2@@std@@QAEXXZ 10010710 f i capldll.obj
 0001:0000f7c0       ?_Tidy_init@?$basic_string@DU?$char_traits@D@std@@V?$allocator@D@2@@std@@QAEXXZ 100107c0 f i capldll.obj
 0001:0000f810       ?_Xlen@?$basic_string@DU?$char_traits@D@std@@V?$allocator@D@2@@std@@SAXXZ 10010810 f i capldll.obj
 0001:0000f820       ?__empty_global_delete@@YAXPAX@Z 10010820 f i capldll.obj
 0001:0000f830       ?__global_delete@@YAXPAXI@Z 10010830 f i capldll.obj
 0001:0000f830       ?__empty_global_delete@@YAXPAXI@Z 10010830 f i capldll.obj
 0001:0000f840       ?allocate@?$allocator@D@std@@QAEPADI@Z 10010840 f i capldll.obj
 0001:0000f870       ?allocate@?$allocator@U?$_Tree_node@U?$pair@$$CBIPAVCaplInstanceData@@@std@@PAX@std@@@std@@QAEPAU?$_Tree_node@U?$pair@$$CBIPAVCaplInstanceData@@@std@@PAX@2@I@Z 10010870 f i capldll.obj
 0001:0000f8a0       ?allocate@?$allocator@U?$_Tree_node@U?$pair@$$CBIPAVVIACapl@@@std@@PAX@std@@@std@@QAEPAU?$_Tree_node@U?$pair@$$CBIPAVVIACapl@@@std@@PAX@2@I@Z 100108a0 f i capldll.obj
 0001:0000f8d0       ?allocate@?$allocator@U_Container_proxy@std@@@std@@QAEPAU_Container_proxy@2@I@Z 100108d0 f i capldll.obj
 0001:0000f900       ?assign@?$basic_string@DU?$char_traits@D@std@@V?$allocator@D@2@@std@@QAEAAV12@QBD@Z 10010900 f i capldll.obj
 0001:0000f930       ?assign@?$basic_string@DU?$char_traits@D@std@@V?$allocator@D@2@@std@@QAEAAV12@QBDI@Z 10010930 f i capldll.obj
 0001:0000f9c0       ?assign@?$char_traits@D@std@@SAXAADABD@Z 100109c0 f i capldll.obj
 0001:0000f9d0       ?begin@?$_Tree@V?$_Tmap_traits@IPAVCaplInstanceData@@U?$less@I@std@@V?$allocator@U?$pair@$$CBIPAVCaplInstanceData@@@std@@@3@$0A@@std@@@std@@QAE?AV?$_Tree_iterator@V?$_Tree_val@U?$_Tree_simple_types@U?$pair@$$CBIPAVCaplInstanceData@@@std@@@std@@@std@@@2@XZ 100109d0 f i capldll.obj
 0001:0000fa40       ?begin@?$_Tree@V?$_Tmap_traits@IPAVVIACapl@@U?$less@I@std@@V?$allocator@U?$pair@$$CBIPAVVIACapl@@@std@@@3@$0A@@std@@@std@@QAE?AV?$_Tree_iterator@V?$_Tree_val@U?$_Tree_simple_types@U?$pair@$$CBIPAVVIACapl@@@std@@@std@@@std@@@2@XZ 10010a40 f i capldll.obj
 0001:0000fab0       ?c_str@?$basic_string@DU?$char_traits@D@std@@V?$allocator@D@2@@std@@QBEPBDXZ 10010ab0 f i capldll.obj
 0001:0000fb00       ?capacity@?$vector@V?$basic_string@DU?$char_traits@D@std@@V?$allocator@D@2@@std@@V?$allocator@V?$basic_string@DU?$char_traits@D@std@@V?$allocator@D@2@@std@@@2@@std@@QBEIXZ 10010b00 f i capldll.obj
 0001:0000fb30       ?clear@?$_Tree@V?$_Tmap_traits@IPAVCaplInstanceData@@U?$less@I@std@@V?$allocator@U?$pair@$$CBIPAVCaplInstanceData@@@std@@@3@$0A@@std@@@std@@QAEXXZ 10010b30 f i capldll.obj
 0001:0000fbd0       ?clear@?$_Tree@V?$_Tmap_traits@IPAVVIACapl@@U?$less@I@std@@V?$allocator@U?$pair@$$CBIPAVVIACapl@@@std@@@3@$0A@@std@@@std@@QAEXXZ 10010bd0 f i capldll.obj
 0001:0000fc70       ?copy@?$char_traits@D@std@@SAPADQADQBDI@Z 10010c70 f i capldll.obj
 0001:0000fc90       ?deallocate@?$_Default_allocator_traits@V?$allocator@U?$_Tree_node@U?$pair@$$CBIPAVCaplInstanceData@@@std@@PAX@std@@@std@@@std@@SAXAAV?$allocator@U?$_Tree_node@U?$pair@$$CBIPAVCaplInstanceData@@@std@@PAX@std@@@2@QAU?$_Tree_node@U?$pair@$$CBIPAVCaplInstanceData@@@std@@PAX@2@I@Z 10010c90 f i capldll.obj
 0001:0000fcb0       ?deallocate@?$_Default_allocator_traits@V?$allocator@U?$_Tree_node@U?$pair@$$CBIPAVVIACapl@@@std@@PAX@std@@@std@@@std@@SAXAAV?$allocator@U?$_Tree_node@U?$pair@$$CBIPAVVIACapl@@@std@@PAX@std@@@2@QAU?$_Tree_node@U?$pair@$$CBIPAVVIACapl@@@std@@PAX@2@I@Z 10010cb0 f i capldll.obj
 0001:0000fcd0       ?deallocate@?$_Default_allocator_traits@V?$allocator@U_Container_proxy@std@@@std@@@std@@SAXAAV?$allocator@U_Container_proxy@std@@@2@QAU_Container_proxy@2@I@Z 10010cd0 f i capldll.obj
 0001:0000fcf0       ?deallocate@?$allocator@D@std@@QAEXQADI@Z 10010cf0 f i capldll.obj
 0001:0000fd10       ?deallocate@?$allocator@PAPAVValue@Json@@@std@@QAEXQAPAPAVValue@Json@@I@Z 10010d10 f i capldll.obj
 0001:0000fd30       ?deallocate@?$allocator@PAVErrorInfo@Reader@Json@@@std@@QAEXQAPAVErrorInfo@Reader@Json@@I@Z 10010d30 f i capldll.obj
 0001:0000fd50       ?deallocate@?$allocator@PAVValue@Json@@@std@@QAEXQAPAVValue@Json@@I@Z 10010d50 f i capldll.obj
 0001:0000fd70       ?deallocate@?$allocator@U?$_Tree_node@U?$pair@$$CBIPAVCaplInstanceData@@@std@@PAX@std@@@std@@QAEXQAU?$_Tree_node@U?$pair@$$CBIPAVCaplInstanceData@@@std@@PAX@2@I@Z 10010d70 f i capldll.obj
 0001:0000fd90       ?deallocate@?$allocator@U?$_Tree_node@U?$pair@$$CBIPAVVIACapl@@@std@@PAX@std@@@std@@QAEXQAU?$_Tree_node@U?$pair@$$CBIPAVVIACapl@@@std@@PAX@2@I@Z 10010d90 f i capldll.obj
 0001:0000fdb0       ?deallocate@?$allocator@V?$basic_string@DU?$char_traits@D@std@@V?$allocator@D@2@@std@@@std@@QAEXQAV?$basic_string@DU?$char_traits@D@std@@V?$allocator@D@2@@2@I@Z 10010db0 f i capldll.obj
 0001:0000fdd0       ?deallocate@?$allocator@VErrorInfo@Reader@Json@@@std@@QAEXQAVErrorInfo@Reader@Json@@I@Z 10010dd0 f i capldll.obj
 0001:0000fdf0       ?empty@?$deque@PAVValue@Json@@V?$allocator@PAVValue@Json@@@std@@@std@@QBE_NXZ 10010df0 f i capldll.obj
 0001:0000fe20       ?empty@?$deque@VErrorInfo@Reader@Json@@V?$allocator@VErrorInfo@Reader@Json@@@std@@@std@@QBE_NXZ 10010e20 f i capldll.obj
 0001:0000fe50       ?end@?$_Tree@V?$_Tmap_traits@IPAVCaplInstanceData@@U?$less@I@std@@V?$allocator@U?$pair@$$CBIPAVCaplInstanceData@@@std@@@3@$0A@@std@@@std@@QAE?AV?$_Tree_iterator@V?$_Tree_val@U?$_Tree_simple_types@U?$pair@$$CBIPAVCaplInstanceData@@@std@@@std@@@std@@@2@XZ 10010e50 f i capldll.obj
 0001:0000fec0       ?end@?$_Tree@V?$_Tmap_traits@IPAVVIACapl@@U?$less@I@std@@V?$allocator@U?$pair@$$CBIPAVVIACapl@@@std@@@3@$0A@@std@@@std@@QAE?AV?$_Tree_iterator@V?$_Tree_val@U?$_Tree_simple_types@U?$pair@$$CBIPAVVIACapl@@@std@@@std@@@std@@@2@XZ 10010ec0 f i capldll.obj
 0001:0000ff30       ?equal_range@?$_Tree@V?$_Tmap_traits@IPAVCaplInstanceData@@U?$less@I@std@@V?$allocator@U?$pair@$$CBIPAVCaplInstanceData@@@std@@@3@$0A@@std@@@std@@QAE?AU?$pair@V?$_Tree_iterator@V?$_Tree_val@U?$_Tree_simple_types@U?$pair@$$CBIPAVCaplInstanceData@@@std@@@std@@@std@@@std@@V12@@2@ABI@Z 10010f30 f i capldll.obj
 0001:0000ff70       ?erase@?$_Tree@V?$_Tmap_traits@IPAVCaplInstanceData@@U?$less@I@std@@V?$allocator@U?$pair@$$CBIPAVCaplInstanceData@@@std@@@3@$0A@@std@@@std@@QAE?AV?$_Tree_iterator@V?$_Tree_val@U?$_Tree_simple_types@U?$pair@$$CBIPAVCaplInstanceData@@@std@@@std@@@std@@@2@V?$_Tree_const_iterator@V?$_Tree_val@U?$_Tree_simple_types@U?$pair@$$CBIPAVCaplInstanceData@@@std@@@std@@@std@@@2@0@Z 10010f70 f i capldll.obj
 0001:00010160       ?erase@?$_Tree@V?$_Tmap_traits@IPAVCaplInstanceData@@U?$less@I@std@@V?$allocator@U?$pair@$$CBIPAVCaplInstanceData@@@std@@@3@$0A@@std@@@std@@QAE?AV?$_Tree_iterator@V?$_Tree_val@U?$_Tree_simple_types@U?$pair@$$CBIPAVCaplInstanceData@@@std@@@std@@@std@@@2@V?$_Tree_const_iterator@V?$_Tree_val@U?$_Tree_simple_types@U?$pair@$$CBIPAVCaplInstanceData@@@std@@@std@@@std@@@2@@Z 10011160 f i capldll.obj
 0001:000102f0       ?erase@?$_Tree@V?$_Tmap_traits@IPAVCaplInstanceData@@U?$less@I@std@@V?$allocator@U?$pair@$$CBIPAVCaplInstanceData@@@std@@@3@$0A@@std@@@std@@QAEIABI@Z 100112f0 f i capldll.obj
 0001:000103d0       ?erase@?$_Tree@V?$_Tmap_traits@IPAVVIACapl@@U?$less@I@std@@V?$allocator@U?$pair@$$CBIPAVVIACapl@@@std@@@3@$0A@@std@@@std@@QAE?AV?$_Tree_iterator@V?$_Tree_val@U?$_Tree_simple_types@U?$pair@$$CBIPAVVIACapl@@@std@@@std@@@std@@@2@V?$_Tree_const_iterator@V?$_Tree_val@U?$_Tree_simple_types@U?$pair@$$CBIPAVVIACapl@@@std@@@std@@@std@@@2@0@Z 100113d0 f i capldll.obj
 0001:000105c0       ?erase@?$_Tree@V?$_Tmap_traits@IPAVVIACapl@@U?$less@I@std@@V?$allocator@U?$pair@$$CBIPAVVIACapl@@@std@@@3@$0A@@std@@@std@@QAE?AV?$_Tree_iterator@V?$_Tree_val@U?$_Tree_simple_types@U?$pair@$$CBIPAVVIACapl@@@std@@@std@@@std@@@2@V?$_Tree_const_iterator@V?$_Tree_val@U?$_Tree_simple_types@U?$pair@$$CBIPAVVIACapl@@@std@@@std@@@std@@@2@@Z 100115c0 f i capldll.obj
 0001:00010750       ?find@?$_Tree@V?$_Tmap_traits@IPAVCaplInstanceData@@U?$less@I@std@@V?$allocator@U?$pair@$$CBIPAVCaplInstanceData@@@std@@@3@$0A@@std@@@std@@QAE?AV?$_Tree_iterator@V?$_Tree_val@U?$_Tree_simple_types@U?$pair@$$CBIPAVCaplInstanceData@@@std@@@std@@@std@@@2@ABI@Z 10011750 f i capldll.obj
 0001:000108c0       ?find@?$_Tree@V?$_Tmap_traits@IPAVVIACapl@@U?$less@I@std@@V?$allocator@U?$pair@$$CBIPAVVIACapl@@@std@@@3@$0A@@std@@@std@@QAE?AV?$_Tree_iterator@V?$_Tree_val@U?$_Tree_simple_types@U?$pair@$$CBIPAVVIACapl@@@std@@@std@@@std@@@2@ABI@Z 100118c0 f i capldll.obj
 0001:00010a30       ?length@?$char_traits@D@std@@SAIQBD@Z 10011a30 f i capldll.obj
 0001:00010a50       ?lower_bound@?$_Tree@V?$_Tmap_traits@IPAVCaplInstanceData@@U?$less@I@std@@V?$allocator@U?$pair@$$CBIPAVCaplInstanceData@@@std@@@3@$0A@@std@@@std@@QAE?AV?$_Tree_iterator@V?$_Tree_val@U?$_Tree_simple_types@U?$pair@$$CBIPAVCaplInstanceData@@@std@@@std@@@std@@@2@ABI@Z 10011a50 f i capldll.obj
 0001:00010aa0       ?lower_bound@?$_Tree@V?$_Tmap_traits@IPAVVIACapl@@U?$less@I@std@@V?$allocator@U?$pair@$$CBIPAVVIACapl@@@std@@@3@$0A@@std@@@std@@QAE?AV?$_Tree_iterator@V?$_Tree_val@U?$_Tree_simple_types@U?$pair@$$CBIPAVVIACapl@@@std@@@std@@@std@@@2@ABI@Z 10011aa0 f i capldll.obj
 0001:00010af0       ?max@?$numeric_limits@H@std@@SAHXZ 10011af0 f i capldll.obj
 0001:00010b00       ?max_size@?$_Default_allocator_traits@V?$allocator@D@std@@@std@@SAIABV?$allocator@D@2@@Z 10011b00 f i capldll.obj
 0001:00010b10       ?max_size@?$_Default_allocator_traits@V?$allocator@U?$_Tree_node@U?$pair@$$CBIPAVCaplInstanceData@@@std@@PAX@std@@@std@@@std@@SAIABV?$allocator@U?$_Tree_node@U?$pair@$$CBIPAVCaplInstanceData@@@std@@PAX@std@@@2@@Z 10011b10 f i capldll.obj
 0001:00010b20       ?max_size@?$_Default_allocator_traits@V?$allocator@U?$_Tree_node@U?$pair@$$CBIPAVVIACapl@@@std@@PAX@std@@@std@@@std@@SAIABV?$allocator@U?$_Tree_node@U?$pair@$$CBIPAVVIACapl@@@std@@PAX@std@@@2@@Z 10011b20 f i capldll.obj
 0001:00010b30       ?max_size@?$_Tree@V?$_Tmap_traits@IPAVCaplInstanceData@@U?$less@I@std@@V?$allocator@U?$pair@$$CBIPAVCaplInstanceData@@@std@@@3@$0A@@std@@@std@@QBEIXZ 10011b30 f i capldll.obj
 0001:00010b50       ?max_size@?$_Tree@V?$_Tmap_traits@IPAVVIACapl@@U?$less@I@std@@V?$allocator@U?$pair@$$CBIPAVVIACapl@@@std@@@3@$0A@@std@@@std@@QBEIXZ 10011b50 f i capldll.obj
 0001:00010b70       ?max_size@?$basic_string@DU?$char_traits@D@std@@V?$allocator@D@2@@std@@QBEIXZ 10011b70 f i capldll.obj
 0001:00010bd0       ?move@?$char_traits@D@std@@SAPADQADQBDI@Z 10011bd0 f i capldll.obj
 0001:00010bf0       ?pointer_to@?$pointer_traits@PAU?$pair@$$CBIPAVCaplInstanceData@@@std@@@std@@SAPAU?$pair@$$CBIPAVCaplInstanceData@@@2@AAU32@@Z 10011bf0 f i capldll.obj
 0001:00010c10       ?pointer_to@?$pointer_traits@PAU?$pair@$$CBIPAVVIACapl@@@std@@@std@@SAPAU?$pair@$$CBIPAVVIACapl@@@2@AAU32@@Z 10011c10 f i capldll.obj
 0001:00010c30       ?pop_back@?$deque@PAVValue@Json@@V?$allocator@PAVValue@Json@@@std@@@std@@QAEXXZ 10011c30 f i capldll.obj
 0001:00010d40       ?pop_back@?$deque@VErrorInfo@Reader@Json@@V?$allocator@VErrorInfo@Reader@Json@@@std@@@std@@QAEXXZ 10011d40 f i capldll.obj
 0001:00010e50       ?size@?$_Tree@V?$_Tmap_traits@IPAVCaplInstanceData@@U?$less@I@std@@V?$allocator@U?$pair@$$CBIPAVCaplInstanceData@@@std@@@3@$0A@@std@@@std@@QBEIXZ 10011e50 f i capldll.obj
 0001:00010e70       ?size@?$_Tree@V?$_Tmap_traits@IPAVVIACapl@@U?$less@I@std@@V?$allocator@U?$pair@$$CBIPAVVIACapl@@@std@@@3@$0A@@std@@@std@@QBEIXZ 10011e70 f i capldll.obj
 0001:00010e90       ?size@?$basic_string@DU?$char_traits@D@std@@V?$allocator@D@2@@std@@QBEIXZ 10011e90 f i capldll.obj
 0001:00010eb0       ??$?0$$V@?$_Compressed_pair@V?$allocator@PBVPathArgument@Json@@@std@@V?$_Vector_val@U?$_Simple_types@PBVPathArgument@Json@@@std@@@2@$00@std@@QAE@U_Zero_then_variadic_args_t@1@@Z 10011eb0 f i json_vc71_libmtd:json_value.obj
 0001:00010f00       ??$?0$$V@?$_Compressed_pair@V?$allocator@U?$_Tree_node@U?$pair@$$CBVCZString@Value@Json@@V23@@std@@PAX@std@@@std@@V?$_Tree_val@U?$_Tree_simple_types@U?$pair@$$CBVCZString@Value@Json@@V23@@std@@@std@@@2@$00@std@@QAE@U_Zero_then_variadic_args_t@1@@Z 10011f00 f i json_vc71_libmtd:json_value.obj
 0001:00010f50       ??$?0$$V@?$_Compressed_pair@V?$allocator@V?$basic_string@DU?$char_traits@D@std@@V?$allocator@D@2@@std@@@std@@V?$_Vector_val@U?$_Simple_types@V?$basic_string@DU?$char_traits@D@std@@V?$allocator@D@2@@std@@@std@@@2@$00@std@@QAE@U_Zero_then_variadic_args_t@1@@Z 10011f50 f i json_vc71_libmtd:json_value.obj
 0001:00010fa0       ??$?0$$V@?$_Compressed_pair@V?$allocator@VPathArgument@Json@@@std@@V?$_Vector_val@U?$_Simple_types@VPathArgument@Json@@@std@@@2@$00@std@@QAE@U_Zero_then_variadic_args_t@1@@Z 10011fa0 f i json_vc71_libmtd:json_value.obj
 0001:00010ff0       ??$?0AAV?$_Tree_const_iterator@V?$_Tree_val@U?$_Tree_simple_types@U?$pair@$$CBVCZString@Value@Json@@V23@@std@@@std@@@std@@@std@@AAV01@$0A@@?$pair@V?$_Tree_const_iterator@V?$_Tree_val@U?$_Tree_simple_types@U?$pair@$$CBVCZString@Value@Json@@V23@@std@@@std@@@std@@@std@@V12@@std@@QAE@AAV?$_Tree_const_iterator@V?$_Tree_val@U?$_Tree_simple_types@U?$pair@$$CBVCZString@Value@Json@@V23@@std@@@std@@@std@@@1@0@Z 10011ff0 f i json_vc71_libmtd:json_value.obj
 0001:00011060       ??$?0AAV?$_Tree_iterator@V?$_Tree_val@U?$_Tree_simple_types@U?$pair@$$CBVCZString@Value@Json@@V23@@std@@@std@@@std@@@std@@AAV01@$0A@@?$pair@V?$_Tree_iterator@V?$_Tree_val@U?$_Tree_simple_types@U?$pair@$$CBVCZString@Value@Json@@V23@@std@@@std@@@std@@@std@@V12@@std@@QAE@AAV?$_Tree_iterator@V?$_Tree_val@U?$_Tree_simple_types@U?$pair@$$CBVCZString@Value@Json@@V23@@std@@@std@@@std@@@1@0@Z 10012060 f i json_vc71_libmtd:json_value.obj
 0001:000110d0       ??$?0AAV?$_Tree_iterator@V?$_Tree_val@U?$_Tree_simple_types@U?$pair@$$CBVCZString@Value@Json@@V23@@std@@@std@@@std@@@std@@_N$0A@@?$pair@V?$_Tree_iterator@V?$_Tree_val@U?$_Tree_simple_types@U?$pair@$$CBVCZString@Value@Json@@V23@@std@@@std@@@std@@@std@@_N@std@@QAE@AAV?$_Tree_iterator@V?$_Tree_val@U?$_Tree_simple_types@U?$pair@$$CBVCZString@Value@Json@@V23@@std@@@std@@@std@@@1@$$QA_N@Z 100120d0 f i json_vc71_libmtd:json_value.obj
 0001:00011140       ??$?0AAVCZString@Value@Json@@ABV12@$0A@@?$pair@$$CBVCZString@Value@Json@@V23@@std@@QAE@AAVCZString@Value@Json@@ABV34@@Z 10012140 f i json_vc71_libmtd:json_value.obj
 0001:000111f0       ??$?0ABU?$less@VCZString@Value@Json@@@std@@U_One_then_variadic_args_t@1@V?$allocator@U?$_Tree_node@U?$pair@$$CBVCZString@Value@Json@@V23@@std@@PAX@std@@@1@@?$_Compressed_pair@U?$less@VCZString@Value@Json@@@std@@V?$_Compressed_pair@V?$allocator@U?$_Tree_node@U?$pair@$$CBVCZString@Value@Json@@V23@@std@@PAX@std@@@std@@V?$_Tree_val@U?$_Tree_simple_types@U?$pair@$$CBVCZString@Value@Json@@V23@@std@@@std@@@2@$00@2@$00@std@@QAE@U_One_then_variadic_args_t@1@ABU?$less@VCZString@Value@Json@@@1@$$QAU21@$$QAV?$allocator@U?$_Tree_node@U?$pair@$$CBVCZString@Value@Json@@V23@@std@@PAX@std@@@1@@Z 100121f0 f i json_vc71_libmtd:json_value.obj
 0001:00011260       ??$?0ABU?$less@VCZString@Value@Json@@@std@@U_Zero_then_variadic_args_t@1@@?$_Compressed_pair@U?$less@VCZString@Value@Json@@@std@@V?$_Compressed_pair@V?$allocator@U?$_Tree_node@U?$pair@$$CBVCZString@Value@Json@@V23@@std@@PAX@std@@@std@@V?$_Tree_val@U?$_Tree_simple_types@U?$pair@$$CBVCZString@Value@Json@@V23@@std@@@std@@@2@$00@2@$00@std@@QAE@U_One_then_variadic_args_t@1@ABU?$less@VCZString@Value@Json@@@1@$$QAU_Zero_then_variadic_args_t@1@@Z 10012260 f i json_vc71_libmtd:json_value.obj
 0001:000112d0       ??$?0ABV?$allocator@D@std@@$$V@?$_Compressed_pair@V?$allocator@D@std@@V?$_String_val@U?$_Simple_types@D@std@@@2@$00@std@@QAE@U_One_then_variadic_args_t@1@ABV?$allocator@D@1@@Z 100122d0 f i json_vc71_libmtd:json_value.obj
 0001:00011320       ??$?0ABV?$allocator@D@std@@X@?$_String_alloc@U?$_String_base_types@DV?$allocator@D@std@@@std@@@std@@QAE@ABV?$allocator@D@1@@Z 10012320 f i json_vc71_libmtd:json_value.obj
 0001:000113c0       ??$?0PBDX@?$basic_string@DU?$char_traits@D@std@@V?$allocator@D@2@@std@@QAE@PBD0ABV?$allocator@D@1@@Z 100123c0 f i json_vc71_libmtd:json_value.obj
 0001:00011490       ??$?0PBVPathArgument@Json@@@?$allocator@U_Container_proxy@std@@@std@@QAE@ABV?$allocator@PBVPathArgument@Json@@@1@@Z 10012490 f i json_vc71_libmtd:json_value.obj
 0001:000114c0       ??$?0U?$_Tree_node@U?$pair@$$CBVCZString@Value@Json@@V23@@std@@PAX@std@@@?$allocator@U_Container_proxy@std@@@std@@QAE@ABV?$allocator@U?$_Tree_node@U?$pair@$$CBVCZString@Value@Json@@V23@@std@@PAX@std@@@1@@Z 100124c0 f i json_vc71_libmtd:json_value.obj
 0001:000114f0       ??$?0U?$integral_constant@_N$00@std@@@_Unused_parameter@std@@QAE@$$QAU?$integral_constant@_N$00@1@@Z 100124f0 f i json_vc71_libmtd:json_value.obj
 0001:00011520       ??$?0V?$_Tree_iterator@V?$_Tree_val@U?$_Tree_simple_types@U?$pair@$$CBVCZString@Value@Json@@V23@@std@@@std@@@std@@@std@@_N$0A@@?$pair@V?$_Tree_iterator@V?$_Tree_val@U?$_Tree_simple_types@U?$pair@$$CBVCZString@Value@Json@@V23@@std@@@std@@@std@@@std@@_N@std@@QAE@$$QAV?$_Tree_iterator@V?$_Tree_val@U?$_Tree_simple_types@U?$pair@$$CBVCZString@Value@Json@@V23@@std@@@std@@@std@@@1@$$QA_N@Z 10012520 f i json_vc71_libmtd:json_value.obj
 0001:00011590       ??$?0V?$allocator@D@std@@$$V@?$_Compressed_pair@V?$allocator@D@std@@V?$_String_val@U?$_Simple_types@D@std@@@2@$00@std@@QAE@U_One_then_variadic_args_t@1@$$QAV?$allocator@D@1@@Z 10012590 f i json_vc71_libmtd:json_value.obj
 0001:000115e0       ??$?0V?$allocator@D@std@@X@?$_String_alloc@U?$_String_base_types@DV?$allocator@D@std@@@std@@@std@@QAE@$$QAV?$allocator@D@1@@Z 100125e0 f i json_vc71_libmtd:json_value.obj
 0001:00011680       ??$?0V?$allocator@U?$_Tree_node@U?$pair@$$CBVCZString@Value@Json@@V23@@std@@PAX@std@@@std@@$$V@?$_Compressed_pair@V?$allocator@U?$_Tree_node@U?$pair@$$CBVCZString@Value@Json@@V23@@std@@PAX@std@@@std@@V?$_Tree_val@U?$_Tree_simple_types@U?$pair@$$CBVCZString@Value@Json@@V23@@std@@@std@@@2@$00@std@@QAE@U_One_then_variadic_args_t@1@$$QAV?$allocator@U?$_Tree_node@U?$pair@$$CBVCZString@Value@Json@@V23@@std@@PAX@std@@@1@@Z 10012680 f i json_vc71_libmtd:json_value.obj
 0001:000116d0       ??$?0V?$allocator@U?$_Tree_node@U?$pair@$$CBVCZString@Value@Json@@V23@@std@@PAX@std@@@std@@@?$_Tree@V?$_Tmap_traits@VCZString@Value@Json@@V23@U?$less@VCZString@Value@Json@@@std@@V?$allocator@U?$pair@$$CBVCZString@Value@Json@@V23@@std@@@5@$0A@@std@@@std@@QAE@ABV01@$$QAV?$allocator@U?$_Tree_node@U?$pair@$$CBVCZString@Value@Json@@V23@@std@@PAX@std@@@1@@Z 100126d0 f i json_vc71_libmtd:json_value.obj
 0001:000117b0       ??$?0V?$allocator@U?$_Tree_node@U?$pair@$$CBVCZString@Value@Json@@V23@@std@@PAX@std@@@std@@X@?$_Tree_comp_alloc@V?$_Tmap_traits@VCZString@Value@Json@@V23@U?$less@VCZString@Value@Json@@@std@@V?$allocator@U?$pair@$$CBVCZString@Value@Json@@V23@@std@@@5@$0A@@std@@@std@@QAE@ABU?$less@VCZString@Value@Json@@@1@$$QAV?$allocator@U?$_Tree_node@U?$pair@$$CBVCZString@Value@Json@@V23@@std@@PAX@std@@@1@@Z 100127b0 f i json_vc71_libmtd:json_value.obj
 0001:00011820       ??$?0V?$allocator@V?$basic_string@DU?$char_traits@D@std@@V?$allocator@D@2@@std@@@std@@$$V@?$_Compressed_pair@V?$allocator@V?$basic_string@DU?$char_traits@D@std@@V?$allocator@D@2@@std@@@std@@V?$_Vector_val@U?$_Simple_types@V?$basic_string@DU?$char_traits@D@std@@V?$allocator@D@2@@std@@@std@@@2@$00@std@@QAE@U_One_then_variadic_args_t@1@$$QAV?$allocator@V?$basic_string@DU?$char_traits@D@std@@V?$allocator@D@2@@std@@@1@@Z 10012820 f i json_vc71_libmtd:json_value.obj
 0001:00011870       ??$?0V?$allocator@V?$basic_string@DU?$char_traits@D@std@@V?$allocator@D@2@@std@@@std@@X@?$_Vector_alloc@U?$_Vec_base_types@V?$basic_string@DU?$char_traits@D@std@@V?$allocator@D@2@@std@@V?$allocator@V?$basic_string@DU?$char_traits@D@std@@V?$allocator@D@2@@std@@@2@@std@@@std@@QAE@$$QAV?$allocator@V?$basic_string@DU?$char_traits@D@std@@V?$allocator@D@2@@std@@@1@@Z 10012870 f i json_vc71_libmtd:json_value.obj
 0001:000118e0       ??$?0VPathArgument@Json@@@?$allocator@U_Container_proxy@std@@@std@@QAE@ABV?$allocator@VPathArgument@Json@@@1@@Z 100128e0 f i json_vc71_libmtd:json_value.obj
 0001:00011910       ??$?8$$CBVCZString@Value@Json@@V12@@std@@YA_NABU?$pair@$$CBVCZString@Value@Json@@V23@@0@0@Z 10012910 f i json_vc71_libmtd:json_value.obj
 0001:00011990       ??$?8V?$_Tmap_traits@VCZString@Value@Json@@V23@U?$less@VCZString@Value@Json@@@std@@V?$allocator@U?$pair@$$CBVCZString@Value@Json@@V23@@std@@@5@$0A@@std@@@std@@YA_NABV?$_Tree@V?$_Tmap_traits@VCZString@Value@Json@@V23@U?$less@VCZString@Value@Json@@@std@@V?$allocator@U?$pair@$$CBVCZString@Value@Json@@V23@@std@@@5@$0A@@std@@@0@0@Z 10012990 f i json_vc71_libmtd:json_value.obj
 0001:00011a50       ??$?M$$CBVCZString@Value@Json@@V12@@std@@YA_NABU?$pair@$$CBVCZString@Value@Json@@V23@@0@0@Z 10012a50 f i json_vc71_libmtd:json_value.obj
 0001:00011ae0       ??$?MV?$_Tmap_traits@VCZString@Value@Json@@V23@U?$less@VCZString@Value@Json@@@std@@V?$allocator@U?$pair@$$CBVCZString@Value@Json@@V23@@std@@@5@$0A@@std@@@std@@YA_NABV?$_Tree@V?$_Tmap_traits@VCZString@Value@Json@@V23@U?$less@VCZString@Value@Json@@@std@@V?$allocator@U?$pair@$$CBVCZString@Value@Json@@V23@@std@@@5@$0A@@std@@@0@0@Z 10012ae0 f i json_vc71_libmtd:json_value.obj
 0001:00011b80       ??$?RABU?$pair@$$CBVCZString@Value@Json@@V23@@std@@ABU01@@?$equal_to@X@std@@QBE_NABU?$pair@$$CBVCZString@Value@Json@@V23@@1@0@Z 10012b80 f i json_vc71_libmtd:json_value.obj
 0001:00011bd0       ??$?RABU?$pair@$$CBVCZString@Value@Json@@V23@@std@@ABU01@@?$less@X@std@@QBE_NABU?$pair@$$CBVCZString@Value@Json@@V23@@1@0@Z 10012bd0 f i json_vc71_libmtd:json_value.obj
 0001:00011c20       ??$_Adl_verify_range1@PBDPBD@std@@YAXABQBD0U?$integral_constant@_N$00@0@@Z 10012c20 f i json_vc71_libmtd:json_value.obj
 0001:00011c70       ??$_Adl_verify_range1@V?$_Tree_const_iterator@V?$_Tree_val@U?$_Tree_simple_types@U?$pair@$$CBVCZString@Value@Json@@V23@@std@@@std@@@std@@@std@@V12@@std@@YAXABV?$_Tree_const_iterator@V?$_Tree_val@U?$_Tree_simple_types@U?$pair@$$CBVCZString@Value@Json@@V23@@std@@@std@@@std@@@0@0U?$integral_constant@_N$00@0@@Z 10012c70 f i json_vc71_libmtd:json_value.obj
 0001:00011cc0       ??$_Adl_verify_range@PBDPBD@std@@YAXABQBD0@Z 10012cc0 f i json_vc71_libmtd:json_value.obj
 0001:00011d20       ??$_Adl_verify_range@V?$_Tree_const_iterator@V?$_Tree_val@U?$_Tree_simple_types@U?$pair@$$CBVCZString@Value@Json@@V23@@std@@@std@@@std@@@std@@V12@@std@@YAXABV?$_Tree_const_iterator@V?$_Tree_val@U?$_Tree_simple_types@U?$pair@$$CBVCZString@Value@Json@@V23@@std@@@std@@@std@@@0@0@Z 10012d20 f i json_vc71_libmtd:json_value.obj
 0001:00011d80       ??$_Buy_if_not_node@AAU?$pair@$$CBVCZString@Value@Json@@V23@@std@@@?$_Tree@V?$_Tmap_traits@VCZString@Value@Json@@V23@U?$less@VCZString@Value@Json@@@std@@V?$allocator@U?$pair@$$CBVCZString@Value@Json@@V23@@std@@@5@$0A@@std@@@std@@IAEPAU?$_Tree_node@U?$pair@$$CBVCZString@Value@Json@@V23@@std@@PAX@1@PAU21@AAU?$pair@$$CBVCZString@Value@Json@@V23@@1@@Z 10012d80 f i json_vc71_libmtd:json_value.obj
 0001:00011db0       ??$_Buynode@AAU?$pair@$$CBVCZString@Value@Json@@V23@@std@@@?$_Tree_comp_alloc@V?$_Tmap_traits@VCZString@Value@Json@@V23@U?$less@VCZString@Value@Json@@@std@@V?$allocator@U?$pair@$$CBVCZString@Value@Json@@V23@@std@@@5@$0A@@std@@@std@@QAEPAU?$_Tree_node@U?$pair@$$CBVCZString@Value@Json@@V23@@std@@PAX@1@AAU?$pair@$$CBVCZString@Value@Json@@V23@@1@@Z 10012db0 f i json_vc71_libmtd:json_value.obj
 0001:00011ea0       ??$_Copy@U_Copy_tag@?$_Tree@V?$_Tmap_traits@VCZString@Value@Json@@V23@U?$less@VCZString@Value@Json@@@std@@V?$allocator@U?$pair@$$CBVCZString@Value@Json@@V23@@std@@@5@$0A@@std@@@std@@@?$_Tree@V?$_Tmap_traits@VCZString@Value@Json@@V23@U?$less@VCZString@Value@Json@@@std@@V?$allocator@U?$pair@$$CBVCZString@Value@Json@@V23@@std@@@5@$0A@@std@@@std@@IAEXABV01@U_Copy_tag@01@@Z 10012ea0 f i json_vc71_libmtd:json_value.obj
 0001:00011fa0       ??$_Copy_memmove@PAPBVPathArgument@Json@@PAPBV12@@std@@YAPAPBVPathArgument@Json@@PAPBV12@00@Z 10012fa0 f i json_vc71_libmtd:json_value.obj
 0001:00012010       ??$_Copy_nodes@U_Copy_tag@?$_Tree@V?$_Tmap_traits@VCZString@Value@Json@@V23@U?$less@VCZString@Value@Json@@@std@@V?$allocator@U?$pair@$$CBVCZString@Value@Json@@V23@@std@@@5@$0A@@std@@@std@@@?$_Tree@V?$_Tmap_traits@VCZString@Value@Json@@V23@U?$less@VCZString@Value@Json@@@std@@V?$allocator@U?$pair@$$CBVCZString@Value@Json@@V23@@std@@@5@$0A@@std@@@std@@IAEPAU?$_Tree_node@U?$pair@$$CBVCZString@Value@Json@@V23@@std@@PAX@1@PAU21@0U_Copy_tag@01@@Z 10013010 f i json_vc71_libmtd:json_value.obj
 0001:00012190       ??$_Copy_or_move@U?$pair@$$CBVCZString@Value@Json@@V23@@std@@U?$integral_constant@_N$0A@@2@@?$_Tree@V?$_Tmap_traits@VCZString@Value@Json@@V23@U?$less@VCZString@Value@Json@@@std@@V?$allocator@U?$pair@$$CBVCZString@Value@Json@@V23@@std@@@5@$0A@@std@@@std@@IAEPAU?$_Tree_node@U?$pair@$$CBVCZString@Value@Json@@V23@@std@@PAX@1@AAU?$pair@$$CBVCZString@Value@Json@@V23@@1@U_Copy_tag@01@U?$integral_constant@_N$0A@@1@@Z 10013190 f i json_vc71_libmtd:json_value.obj
 0001:000121e0       ??$_Debug_lt_pred@AAU?$less@VCZString@Value@Json@@@std@@ABVCZString@Value@Json@@ABV345@@std@@YA_NAAU?$less@VCZString@Value@Json@@@0@ABVCZString@Value@Json@@1@Z 100131e0 f i json_vc71_libmtd:json_value.obj
 0001:000122a0       ??$_Debug_lt_pred@AAU?$less@X@std@@ABU?$pair@$$CBVCZString@Value@Json@@V23@@2@ABU32@@std@@YA_NAAU?$less@X@0@ABU?$pair@$$CBVCZString@Value@Json@@V23@@0@1@Z 100132a0 f i json_vc71_libmtd:json_value.obj
 0001:00012360       ??$_Debug_lt_pred@ABU?$less@VCZString@Value@Json@@@std@@ABVCZString@Value@Json@@ABV345@@std@@YA_NABU?$less@VCZString@Value@Json@@@0@ABVCZString@Value@Json@@1@Z 10013360 f i json_vc71_libmtd:json_value.obj
 0001:00012420       ??$_Destroy_range1@V?$allocator@PBVPathArgument@Json@@@std@@@std@@YAXPAPBVPathArgument@Json@@0AAV?$allocator@PBVPathArgument@Json@@@0@U?$integral_constant@_N$00@0@@Z 10013420 f i json_vc71_libmtd:json_value.obj
 0001:00012450       ??$_Destroy_range1@V?$allocator@VPathArgument@Json@@@std@@@std@@YAXPAVPathArgument@Json@@0AAV?$allocator@VPathArgument@Json@@@0@U?$integral_constant@_N$0A@@0@@Z 10013450 f i json_vc71_libmtd:json_value.obj
 0001:000124b0       ??$_Destroy_range@V?$allocator@PBVPathArgument@Json@@@std@@@std@@YAXPAPBVPathArgument@Json@@0AAV?$allocator@PBVPathArgument@Json@@@0@@Z 100134b0 f i json_vc71_libmtd:json_value.obj
 0001:00012510       ??$_Destroy_range@V?$allocator@VPathArgument@Json@@@std@@@std@@YAXPAVPathArgument@Json@@0AAV?$allocator@VPathArgument@Json@@@0@@Z 10013510 f i json_vc71_libmtd:json_value.obj
 0001:00012570       ??$_Distance1@V?$_Tree_iterator@V?$_Tree_val@U?$_Tree_simple_types@U?$pair@$$CBVCZString@Value@Json@@V23@@std@@@std@@@std@@@std@@@std@@YAHV?$_Tree_iterator@V?$_Tree_val@U?$_Tree_simple_types@U?$pair@$$CBVCZString@Value@Json@@V23@@std@@@std@@@std@@@0@0Uinput_iterator_tag@0@@Z 10013570 f i json_vc71_libmtd:json_value.obj
 0001:00012630       ??$_Emplace_back@V?$basic_string@DU?$char_traits@D@std@@V?$allocator@D@2@@std@@@?$_Uninitialized_backout_al@PAV?$basic_string@DU?$char_traits@D@std@@V?$allocator@D@2@@std@@V?$allocator@V?$basic_string@DU?$char_traits@D@std@@V?$allocator@D@2@@std@@@2@@std@@QAEX$$QAV?$basic_string@DU?$char_traits@D@std@@V?$allocator@D@2@@1@@Z 10013630 f i json_vc71_libmtd:json_value.obj
 0001:000126b0       ??$_Emplace_back@VPathArgument@Json@@@?$_Uninitialized_backout_al@PAVPathArgument@Json@@V?$allocator@VPathArgument@Json@@@std@@@std@@QAEX$$QAVPathArgument@Json@@@Z 100136b0 f i json_vc71_libmtd:json_value.obj
 0001:00012730       ??$_Emplace_back_with_unused_capacity@ABVPathArgument@Json@@@?$vector@VPathArgument@Json@@V?$allocator@VPathArgument@Json@@@std@@@std@@AAE@ABVPathArgument@Json@@@Z 10013730 f i json_vc71_libmtd:json_value.obj
 0001:000127f0       ??$_Emplace_back_with_unused_capacity@PBVPathArgument@Json@@@?$vector@PBVPathArgument@Json@@V?$allocator@PBVPathArgument@Json@@@std@@@std@@AAE@$$QAPBVPathArgument@Json@@@Z 100137f0 f i json_vc71_libmtd:json_value.obj
 0001:000128b0       ??$_Emplace_back_with_unused_capacity@V?$basic_string@DU?$char_traits@D@std@@V?$allocator@D@2@@std@@@?$vector@V?$basic_string@DU?$char_traits@D@std@@V?$allocator@D@2@@std@@V?$allocator@V?$basic_string@DU?$char_traits@D@std@@V?$allocator@D@2@@std@@@2@@std@@AAE@$$QAV?$basic_string@DU?$char_traits@D@std@@V?$allocator@D@2@@1@@Z 100138b0 f i json_vc71_libmtd:json_value.obj
 0001:00012970       ??$_Emplace_back_with_unused_capacity@VPathArgument@Json@@@?$vector@VPathArgument@Json@@V?$allocator@VPathArgument@Json@@@std@@@std@@AAE@$$QAVPathArgument@Json@@@Z 10013970 f i json_vc71_libmtd:json_value.obj
 0001:00012a30       ??$_Emplace_reallocate@ABVPathArgument@Json@@@?$vector@VPathArgument@Json@@V?$allocator@VPathArgument@Json@@@std@@@std@@QAEPAVPathArgument@Json@@QAV23@ABV23@@Z 10013a30 f i json_vc71_libmtd:json_value.obj
 0001:00012c40       ??$_Emplace_reallocate@PBVPathArgument@Json@@@?$vector@PBVPathArgument@Json@@V?$allocator@PBVPathArgument@Json@@@std@@@std@@QAEPAPBVPathArgument@Json@@QAPBV23@$$QAPBV23@@Z 10013c40 f i json_vc71_libmtd:json_value.obj
 0001:00012e60       ??$_Emplace_reallocate@V?$basic_string@DU?$char_traits@D@std@@V?$allocator@D@2@@std@@@?$vector@V?$basic_string@DU?$char_traits@D@std@@V?$allocator@D@2@@std@@V?$allocator@V?$basic_string@DU?$char_traits@D@std@@V?$allocator@D@2@@std@@@2@@std@@QAEPAV?$basic_string@DU?$char_traits@D@std@@V?$allocator@D@2@@1@QAV21@$$QAV21@@Z 10013e60 f i json_vc71_libmtd:json_value.obj
 0001:00013070       ??$_Emplace_reallocate@VPathArgument@Json@@@?$vector@VPathArgument@Json@@V?$allocator@VPathArgument@Json@@@std@@@std@@QAEPAVPathArgument@Json@@QAV23@$$QAV23@@Z 10014070 f i json_vc71_libmtd:json_value.obj
 0001:00013280       ??$_Eqrange@VCZString@Value@Json@@@?$_Tree@V?$_Tmap_traits@VCZString@Value@Json@@V23@U?$less@VCZString@Value@Json@@@std@@V?$allocator@U?$pair@$$CBVCZString@Value@Json@@V23@@std@@@5@$0A@@std@@@std@@IAE?AU?$pair@V?$_Tree_iterator@V?$_Tree_val@U?$_Tree_simple_types@U?$pair@$$CBVCZString@Value@Json@@V23@@std@@@std@@@std@@@std@@V12@@1@ABVCZString@Value@Json@@@Z 10014280 f i json_vc71_libmtd:json_value.obj
 0001:000133e0       ??$_Eqrange@VCZString@Value@Json@@@?$_Tree@V?$_Tmap_traits@VCZString@Value@Json@@V23@U?$less@VCZString@Value@Json@@@std@@V?$allocator@U?$pair@$$CBVCZString@Value@Json@@V23@@std@@@5@$0A@@std@@@std@@IBE?AU?$pair@V?$_Tree_const_iterator@V?$_Tree_val@U?$_Tree_simple_types@U?$pair@$$CBVCZString@Value@Json@@V23@@std@@@std@@@std@@@std@@V12@@1@ABVCZString@Value@Json@@@Z 100143e0 f i json_vc71_libmtd:json_value.obj
 0001:00013640       ??$_Equal_memcmp_is_safe@V?$_Tree_unchecked_const_iterator@V?$_Tree_val@U?$_Tree_simple_types@U?$pair@$$CBVCZString@Value@Json@@V23@@std@@@std@@@std@@U_Iterator_base0@2@@std@@V?$_Tree_const_iterator@V?$_Tree_val@U?$_Tree_simple_types@U?$pair@$$CBVCZString@Value@Json@@V23@@std@@@std@@@std@@@2@U?$equal_to@X@2@@std@@YA?AU?$integral_constant@_N$0A@@0@ABV?$_Tree_unchecked_const_iterator@V?$_Tree_val@U?$_Tree_simple_types@U?$pair@$$CBVCZString@Value@Json@@V23@@std@@@std@@@std@@U_Iterator_base0@2@@0@ABV?$_Tree_const_iterator@V?$_Tree_val@U?$_Tree_simple_types@U?$pair@$$CBVCZString@Value@Json@@V23@@std@@@std@@@std@@@0@ABU?$equal_to@X@0@@Z 10014640 f i json_vc71_libmtd:json_value.obj
 0001:00013680       ??$_Equal_unchecked1@V?$_Tree_unchecked_const_iterator@V?$_Tree_val@U?$_Tree_simple_types@U?$pair@$$CBVCZString@Value@Json@@V23@@std@@@std@@@std@@U_Iterator_base0@2@@std@@V?$_Tree_const_iterator@V?$_Tree_val@U?$_Tree_simple_types@U?$pair@$$CBVCZString@Value@Json@@V23@@std@@@std@@@std@@@2@U?$equal_to@X@2@@std@@YA_NV?$_Tree_unchecked_const_iterator@V?$_Tree_val@U?$_Tree_simple_types@U?$pair@$$CBVCZString@Value@Json@@V23@@std@@@std@@@std@@U_Iterator_base0@2@@0@V10@V?$_Tree_const_iterator@V?$_Tree_val@U?$_Tree_simple_types@U?$pair@$$CBVCZString@Value@Json@@V23@@std@@@std@@@std@@@0@U?$equal_to@X@0@U?$integral_constant@_N$0A@@0@@Z 10014680 f i json_vc71_libmtd:json_value.obj
 0001:00013770       ??$_Equal_unchecked@V?$_Tree_unchecked_const_iterator@V?$_Tree_val@U?$_Tree_simple_types@U?$pair@$$CBVCZString@Value@Json@@V23@@std@@@std@@@std@@U_Iterator_base0@2@@std@@V?$_Tree_const_iterator@V?$_Tree_val@U?$_Tree_simple_types@U?$pair@$$CBVCZString@Value@Json@@V23@@std@@@std@@@std@@@2@U?$equal_to@X@2@@std@@YA_NV?$_Tree_unchecked_const_iterator@V?$_Tree_val@U?$_Tree_simple_types@U?$pair@$$CBVCZString@Value@Json@@V23@@std@@@std@@@std@@U_Iterator_base0@2@@0@0V?$_Tree_const_iterator@V?$_Tree_val@U?$_Tree_simple_types@U?$pair@$$CBVCZString@Value@Json@@V23@@std@@@std@@@std@@@0@U?$equal_to@X@0@@Z 10014770 f i json_vc71_libmtd:json_value.obj
 0001:00013850       ??$_Freenode0@V?$allocator@U?$_Tree_node@U?$pair@$$CBVCZString@Value@Json@@V23@@std@@PAX@std@@@std@@@?$_Tree_node@U?$pair@$$CBVCZString@Value@Json@@V23@@std@@PAX@std@@SAXAAV?$allocator@U?$_Tree_node@U?$pair@$$CBVCZString@Value@Json@@V23@@std@@PAX@std@@@1@PAU01@@Z 10014850 f i json_vc71_libmtd:json_value.obj
 0001:00013940       ??$_Get_size_of_n@$03@std@@YAII@Z 10014940 f i json_vc71_libmtd:json_value.obj
 0001:00013990       ??$_Get_size_of_n@$0BM@@std@@YAII@Z 10014990 f i json_vc71_libmtd:json_value.obj
 0001:000139e0       ??$_Get_size_of_n@$0CE@@std@@YAII@Z 100149e0 f i json_vc71_libmtd:json_value.obj
 0001:00013a30       ??$_Get_size_of_n@$0CI@@std@@YAII@Z 10014a30 f i json_vc71_libmtd:json_value.obj
 0001:00013a80       ??$_Get_unwrapped@$$CBD@std@@YAPBDQBD@Z 10014a80 f i json_vc71_libmtd:json_value.obj
 0001:00013ab0       ??$_Get_unwrapped@PBVPathArgument@Json@@@std@@YAPAPBVPathArgument@Json@@QAPBV12@@Z 10014ab0 f i json_vc71_libmtd:json_value.obj
 0001:00013ae0       ??$_Get_unwrapped@V?$_Tree_const_iterator@V?$_Tree_val@U?$_Tree_simple_types@U?$pair@$$CBVCZString@Value@Json@@V23@@std@@@std@@@std@@@std@@$0A@@std@@YA@ABV?$_Tree_const_iterator@V?$_Tree_val@U?$_Tree_simple_types@U?$pair@$$CBVCZString@Value@Json@@V23@@std@@@std@@@std@@@0@@Z 10014ae0 f i json_vc71_libmtd:json_value.obj
 0001:00013b30       ??$_Get_unwrapped@V?$basic_string@DU?$char_traits@D@std@@V?$allocator@D@2@@std@@@std@@YAPAV?$basic_string@DU?$char_traits@D@std@@V?$allocator@D@2@@0@QAV10@@Z 10014b30 f i json_vc71_libmtd:json_value.obj
 0001:00013b60       ??$_Get_unwrapped@VPathArgument@Json@@@std@@YAPAVPathArgument@Json@@QAV12@@Z 10014b60 f i json_vc71_libmtd:json_value.obj
 0001:00013b90       ??$_Get_unwrapped_n@PBVPathArgument@Json@@H$0A@@std@@YAPAPBVPathArgument@Json@@QAPBV12@H@Z 10014b90 f i json_vc71_libmtd:json_value.obj
 0001:00013bc0       ??$_Get_unwrapped_n@V?$_Tree_const_iterator@V?$_Tree_val@U?$_Tree_simple_types@U?$pair@$$CBVCZString@Value@Json@@V23@@std@@@std@@@std@@@std@@U_Distance_unknown@2@$0A@@std@@YAABV?$_Tree_const_iterator@V?$_Tree_val@U?$_Tree_simple_types@U?$pair@$$CBVCZString@Value@Json@@V23@@std@@@std@@@std@@@0@ABV10@U_Distance_unknown@0@@Z 10014bc0 f i json_vc71_libmtd:json_value.obj
 0001:00013bf0       ??$_Get_unwrapped_n@V?$basic_string@DU?$char_traits@D@std@@V?$allocator@D@2@@std@@H$0A@@std@@YAPAV?$basic_string@DU?$char_traits@D@std@@V?$allocator@D@2@@0@QAV10@H@Z 10014bf0 f i json_vc71_libmtd:json_value.obj
 0001:00013c20       ??$_Get_unwrapped_n@VPathArgument@Json@@H$0A@@std@@YAPAVPathArgument@Json@@QAV12@H@Z 10014c20 f i json_vc71_libmtd:json_value.obj
 0001:00013c50       ??$_Idl_distance1@PAPBVPathArgument@Json@@PAPBV12@@std@@YAHABQAPBVPathArgument@Json@@0Urandom_access_iterator_tag@0@@Z 10014c50 f i json_vc71_libmtd:json_value.obj
 0001:00013c90       ??$_Idl_distance1@PAV?$basic_string@DU?$char_traits@D@std@@V?$allocator@D@2@@std@@PAV12@@std@@YAHABQAV?$basic_string@DU?$char_traits@D@std@@V?$allocator@D@2@@0@0Urandom_access_iterator_tag@0@@Z 10014c90 f i json_vc71_libmtd:json_value.obj
 0001:00013cd0       ??$_Idl_distance1@PAVPathArgument@Json@@PAV12@@std@@YAHABQAVPathArgument@Json@@0Urandom_access_iterator_tag@0@@Z 10014cd0 f i json_vc71_libmtd:json_value.obj
 0001:00013d10       ??$_Idl_distance1@V?$_Tree_const_iterator@V?$_Tree_val@U?$_Tree_simple_types@U?$pair@$$CBVCZString@Value@Json@@V23@@std@@@std@@@std@@@std@@V?$_Tree_unchecked_const_iterator@V?$_Tree_val@U?$_Tree_simple_types@U?$pair@$$CBVCZString@Value@Json@@V23@@std@@@std@@@std@@U_Iterator_base0@2@@2@@std@@YA?AU_Distance_unknown@0@ABV?$_Tree_unchecked_const_iterator@V?$_Tree_val@U?$_Tree_simple_types@U?$pair@$$CBVCZString@Value@Json@@V23@@std@@@std@@@std@@U_Iterator_base0@2@@0@0Uinput_iterator_tag@0@@Z 10014d10 f i json_vc71_libmtd:json_value.obj
 0001:00013d50       ??$_Idl_distance@PAPBVPathArgument@Json@@PAPBV12@@std@@YA@ABQAPBVPathArgument@Json@@0@Z 10014d50 f i json_vc71_libmtd:json_value.obj
 0001:00013da0       ??$_Idl_distance@PAV?$basic_string@DU?$char_traits@D@std@@V?$allocator@D@2@@std@@PAV12@@std@@YA@ABQAV?$basic_string@DU?$char_traits@D@std@@V?$allocator@D@2@@0@0@Z 10014da0 f i json_vc71_libmtd:json_value.obj
 0001:00013df0       ??$_Idl_distance@PAVPathArgument@Json@@PAV12@@std@@YA@ABQAVPathArgument@Json@@0@Z 10014df0 f i json_vc71_libmtd:json_value.obj
 0001:00013e40       ??$_Idl_distance@V?$_Tree_const_iterator@V?$_Tree_val@U?$_Tree_simple_types@U?$pair@$$CBVCZString@Value@Json@@V23@@std@@@std@@@std@@@std@@V?$_Tree_unchecked_const_iterator@V?$_Tree_val@U?$_Tree_simple_types@U?$pair@$$CBVCZString@Value@Json@@V23@@std@@@std@@@std@@U_Iterator_base0@2@@2@@std@@YA@ABV?$_Tree_unchecked_const_iterator@V?$_Tree_val@U?$_Tree_simple_types@U?$pair@$$CBVCZString@Value@Json@@V23@@std@@@std@@@std@@U_Iterator_base0@2@@0@0@Z 10014e40 f i json_vc71_libmtd:json_value.obj
 0001:00013ea0       ??$_Insert_at@AAU?$pair@$$CBVCZString@Value@Json@@V23@@std@@PAU?$_Tree_node@U?$pair@$$CBVCZString@Value@Json@@V23@@std@@PAX@2@@?$_Tree@V?$_Tmap_traits@VCZString@Value@Json@@V23@U?$less@VCZString@Value@Json@@@std@@V?$allocator@U?$pair@$$CBVCZString@Value@Json@@V23@@std@@@5@$0A@@std@@@std@@IAE?AV?$_Tree_iterator@V?$_Tree_val@U?$_Tree_simple_types@U?$pair@$$CBVCZString@Value@Json@@V23@@std@@@std@@@std@@@1@_NPAU?$_Tree_node@U?$pair@$$CBVCZString@Value@Json@@V23@@std@@PAX@1@AAU?$pair@$$CBVCZString@Value@Json@@V23@@1@1@Z 10014ea0 f i json_vc71_libmtd:json_value.obj
 0001:00014170       ??$_Insert_hint@AAU?$pair@$$CBVCZString@Value@Json@@V23@@std@@PAU?$_Tree_node@U?$pair@$$CBVCZString@Value@Json@@V23@@std@@PAX@2@@?$_Tree@V?$_Tmap_traits@VCZString@Value@Json@@V23@U?$less@VCZString@Value@Json@@@std@@V?$allocator@U?$pair@$$CBVCZString@Value@Json@@V23@@std@@@5@$0A@@std@@@std@@IAE?AV?$_Tree_iterator@V?$_Tree_val@U?$_Tree_simple_types@U?$pair@$$CBVCZString@Value@Json@@V23@@std@@@std@@@std@@@1@V?$_Tree_const_iterator@V?$_Tree_val@U?$_Tree_simple_types@U?$pair@$$CBVCZString@Value@Json@@V23@@std@@@std@@@std@@@1@AAU?$pair@$$CBVCZString@Value@Json@@V23@@1@PAU?$_Tree_node@U?$pair@$$CBVCZString@Value@Json@@V23@@std@@PAX@1@@Z 10015170 f i json_vc71_libmtd:json_value.obj
 0001:00014fd0       ??$_Insert_nohint@AAU?$pair@$$CBVCZString@Value@Json@@V23@@std@@PAU?$_Tree_node@U?$pair@$$CBVCZString@Value@Json@@V23@@std@@PAX@2@@?$_Tree@V?$_Tmap_traits@VCZString@Value@Json@@V23@U?$less@VCZString@Value@Json@@@std@@V?$allocator@U?$pair@$$CBVCZString@Value@Json@@V23@@std@@@5@$0A@@std@@@std@@IAE?AU?$pair@V?$_Tree_iterator@V?$_Tree_val@U?$_Tree_simple_types@U?$pair@$$CBVCZString@Value@Json@@V23@@std@@@std@@@std@@@std@@_N@1@_NAAU?$pair@$$CBVCZString@Value@Json@@V23@@1@PAU?$_Tree_node@U?$pair@$$CBVCZString@Value@Json@@V23@@std@@PAX@1@@Z 10015fd0 f i json_vc71_libmtd:json_value.obj
 0001:00015480       ??$_Kfn@$$CBVCZString@Value@Json@@V23@@?$_Tmap_traits@VCZString@Value@Json@@V23@U?$less@VCZString@Value@Json@@@std@@V?$allocator@U?$pair@$$CBVCZString@Value@Json@@V23@@std@@@5@$0A@@std@@SAABVCZString@Value@Json@@ABU?$pair@$$CBVCZString@Value@Json@@V23@@1@@Z 10016480 f i json_vc71_libmtd:json_value.obj
 0001:000154b0       ??$_Lbound@VCZString@Value@Json@@@?$_Tree@V?$_Tmap_traits@VCZString@Value@Json@@V23@U?$less@VCZString@Value@Json@@@std@@V?$allocator@U?$pair@$$CBVCZString@Value@Json@@V23@@std@@@5@$0A@@std@@@std@@IBEPAU?$_Tree_node@U?$pair@$$CBVCZString@Value@Json@@V23@@std@@PAX@1@ABVCZString@Value@Json@@@Z 100164b0 f i json_vc71_libmtd:json_value.obj
 0001:00015550       ??$_Lex_compare_memcmp_classify@V?$_Tree_unchecked_const_iterator@V?$_Tree_val@U?$_Tree_simple_types@U?$pair@$$CBVCZString@Value@Json@@V23@@std@@@std@@@std@@U_Iterator_base0@2@@std@@V12@U?$less@X@2@@std@@YA?AU?$_Lex_compare_optimize@X@0@ABV?$_Tree_unchecked_const_iterator@V?$_Tree_val@U?$_Tree_simple_types@U?$pair@$$CBVCZString@Value@Json@@V23@@std@@@std@@@std@@U_Iterator_base0@2@@0@0ABU?$less@X@0@@Z 10016550 f i json_vc71_libmtd:json_value.obj
 0001:00015590       ??$_Lex_compare_unchecked@V?$_Tree_unchecked_const_iterator@V?$_Tree_val@U?$_Tree_simple_types@U?$pair@$$CBVCZString@Value@Json@@V23@@std@@@std@@@std@@U_Iterator_base0@2@@std@@V12@U?$less@X@2@@std@@YA_NV?$_Tree_unchecked_const_iterator@V?$_Tree_val@U?$_Tree_simple_types@U?$pair@$$CBVCZString@Value@Json@@V23@@std@@@std@@@std@@U_Iterator_base0@2@@0@000U?$less@X@0@U?$_Lex_compare_optimize@X@0@@Z 10016590 f i json_vc71_libmtd:json_value.obj
 0001:000156a0       ??$_Pass_fn@U?$equal_to@X@std@@$0A@@std@@YA?AU?$equal_to@X@0@U10@@Z 100166a0 f i json_vc71_libmtd:json_value.obj
 0001:000156d0       ??$_Pass_fn@U?$less@X@std@@$0A@@std@@YA?AU?$less@X@0@U10@@Z 100166d0 f i json_vc71_libmtd:json_value.obj
 0001:00015700       ??$_Ptr_move_cat@PBVPathArgument@Json@@PBV12@@std@@YA?AU_Really_trivial_ptr_iterator_tag@0@ABQAPBVPathArgument@Json@@0@Z 10016700 f i json_vc71_libmtd:json_value.obj
 0001:00015730       ??$_Ptr_move_cat@V?$basic_string@DU?$char_traits@D@std@@V?$allocator@D@2@@std@@V12@@std@@YA?AU_General_ptr_iterator_tag@0@ABQAV?$basic_string@DU?$char_traits@D@std@@V?$allocator@D@2@@0@0@Z 10016730 f i json_vc71_libmtd:json_value.obj
 0001:00015770       ??$_Ptr_move_cat@VPathArgument@Json@@V12@@std@@YA?AU_General_ptr_iterator_tag@0@ABQAVPathArgument@Json@@0@Z 10016770 f i json_vc71_libmtd:json_value.obj
 0001:000157b0       ??$_Seek_wrapped@PBVPathArgument@Json@@@std@@YAXAAPAPBVPathArgument@Json@@QAPBV12@@Z 100167b0 f i json_vc71_libmtd:json_value.obj
 0001:000157e0       ??$_Seek_wrapped@V?$basic_string@DU?$char_traits@D@std@@V?$allocator@D@2@@std@@@std@@YAXAAPAV?$basic_string@DU?$char_traits@D@std@@V?$allocator@D@2@@0@QAV10@@Z 100167e0 f i json_vc71_libmtd:json_value.obj
 0001:00015810       ??$_Seek_wrapped@VPathArgument@Json@@@std@@YAXAAPAVPathArgument@Json@@QAV12@@Z 10016810 f i json_vc71_libmtd:json_value.obj
 0001:00015840       ??$_Unfancy@PBVPathArgument@Json@@@std@@YAPAPBVPathArgument@Json@@PAPBV12@@Z 10016840 f i json_vc71_libmtd:json_value.obj
 0001:00015870       ??$_Unfancy@VPathArgument@Json@@@std@@YAPAVPathArgument@Json@@PAV12@@Z 10016870 f i json_vc71_libmtd:json_value.obj
 0001:000158a0       ??$_Uninitialized_move@PAPBVPathArgument@Json@@PAPBV12@V?$allocator@PBVPathArgument@Json@@@std@@@std@@YAPAPBVPathArgument@Json@@QAPBV12@0PAPBV12@AAV?$allocator@PBVPathArgument@Json@@@0@@Z 100168a0 f i json_vc71_libmtd:json_value.obj
 0001:000159c0       ??$_Uninitialized_move@PAV?$basic_string@DU?$char_traits@D@std@@V?$allocator@D@2@@std@@PAV12@V?$allocator@V?$basic_string@DU?$char_traits@D@std@@V?$allocator@D@2@@std@@@2@@std@@YAPAV?$basic_string@DU?$char_traits@D@std@@V?$allocator@D@2@@0@QAV10@0PAV10@AAV?$allocator@V?$basic_string@DU?$char_traits@D@std@@V?$allocator@D@2@@std@@@0@@Z 100169c0 f i json_vc71_libmtd:json_value.obj
 0001:00015ae0       ??$_Uninitialized_move@PAVPathArgument@Json@@PAV12@V?$allocator@VPathArgument@Json@@@std@@@std@@YAPAVPathArgument@Json@@QAV12@0PAV12@AAV?$allocator@VPathArgument@Json@@@0@@Z 10016ae0 f i json_vc71_libmtd:json_value.obj
 0001:00015c00       ??$_Uninitialized_move_al_unchecked@PAV?$basic_string@DU?$char_traits@D@std@@V?$allocator@D@2@@std@@PAV12@V?$allocator@V?$basic_string@DU?$char_traits@D@std@@V?$allocator@D@2@@std@@@2@@std@@YAPAV?$basic_string@DU?$char_traits@D@std@@V?$allocator@D@2@@0@PAV10@QAV10@1AAV?$allocator@V?$basic_string@DU?$char_traits@D@std@@V?$allocator@D@2@@std@@@0@U_General_ptr_iterator_tag@0@U_Unused_parameter@0@@Z 10016c00 f i json_vc71_libmtd:json_value.obj
 0001:00015d00       ??$_Uninitialized_move_al_unchecked@PAVPathArgument@Json@@PAV12@V?$allocator@VPathArgument@Json@@@std@@@std@@YAPAVPathArgument@Json@@PAV12@QAV12@1AAV?$allocator@VPathArgument@Json@@@0@U_General_ptr_iterator_tag@0@U_Unused_parameter@0@@Z 10016d00 f i json_vc71_libmtd:json_value.obj
 0001:00015e00       ??$_Uninitialized_move_al_unchecked@PBVPathArgument@Json@@PBV12@V?$allocator@PBVPathArgument@Json@@@std@@@std@@YAPAPBVPathArgument@Json@@QAPBV12@00AAV?$allocator@PBVPathArgument@Json@@@0@U_Really_trivial_ptr_iterator_tag@0@U?$integral_constant@_N$00@0@@Z 10016e00 f i json_vc71_libmtd:json_value.obj
 0001:00015e50       ??$_Verify_range@D@std@@YAXQBD0@Z 10016e50 f i json_vc71_libmtd:json_value.obj
 0001:00015ee0       ??$addressof@$$CBV?$_Tree_val@U?$_Tree_simple_types@U?$pair@$$CBVCZString@Value@Json@@V23@@std@@@std@@@std@@@std@@YAPBV?$_Tree_val@U?$_Tree_simple_types@U?$pair@$$CBVCZString@Value@Json@@V23@@std@@@std@@@0@ABV10@@Z 10016ee0 f i json_vc71_libmtd:json_value.obj
 0001:00015f10       ??$addressof@$$CBV?$_Vector_val@U?$_Simple_types@PBVPathArgument@Json@@@std@@@std@@@std@@YAPBV?$_Vector_val@U?$_Simple_types@PBVPathArgument@Json@@@std@@@0@ABV10@@Z 10016f10 f i json_vc71_libmtd:json_value.obj
 0001:00015f40       ??$addressof@$$CBV?$_Vector_val@U?$_Simple_types@VPathArgument@Json@@@std@@@std@@@std@@YAPBV?$_Vector_val@U?$_Simple_types@VPathArgument@Json@@@std@@@0@ABV10@@Z 10016f40 f i json_vc71_libmtd:json_value.obj
 0001:00015f70       ??$addressof@PAU?$_Tree_node@U?$pair@$$CBVCZString@Value@Json@@V23@@std@@PAX@std@@@std@@YAPAPAU?$_Tree_node@U?$pair@$$CBVCZString@Value@Json@@V23@@std@@PAX@0@AAPAU10@@Z 10016f70 f i json_vc71_libmtd:json_value.obj
 0001:00015fa0       ??$addressof@U?$pair@$$CBVCZString@Value@Json@@V23@@std@@@std@@YAPAU?$pair@$$CBVCZString@Value@Json@@V23@@0@AAU10@@Z 10016fa0 f i json_vc71_libmtd:json_value.obj
 0001:00015fd0       ??$addressof@V?$_Tree_val@U?$_Tree_simple_types@U?$pair@$$CBVCZString@Value@Json@@V23@@std@@@std@@@std@@@std@@YAPAV?$_Tree_val@U?$_Tree_simple_types@U?$pair@$$CBVCZString@Value@Json@@V23@@std@@@std@@@0@AAV10@@Z 10016fd0 f i json_vc71_libmtd:json_value.obj
 0001:00016000       ??$addressof@V?$_Vector_val@U?$_Simple_types@PBVPathArgument@Json@@@std@@@std@@@std@@YAPAV?$_Vector_val@U?$_Simple_types@PBVPathArgument@Json@@@std@@@0@AAV10@@Z 10017000 f i json_vc71_libmtd:json_value.obj
 0001:00016030       ??$addressof@V?$_Vector_val@U?$_Simple_types@V?$basic_string@DU?$char_traits@D@std@@V?$allocator@D@2@@std@@@std@@@std@@@std@@YAPAV?$_Vector_val@U?$_Simple_types@V?$basic_string@DU?$char_traits@D@std@@V?$allocator@D@2@@std@@@std@@@0@AAV10@@Z 10017030 f i json_vc71_libmtd:json_value.obj
 0001:00016060       ??$addressof@V?$_Vector_val@U?$_Simple_types@VPathArgument@Json@@@std@@@std@@@std@@YAPAV?$_Vector_val@U?$_Simple_types@VPathArgument@Json@@@std@@@0@AAV10@@Z 10017060 f i json_vc71_libmtd:json_value.obj
 0001:00016090       ??$construct@PAU?$_Tree_node@U?$pair@$$CBVCZString@Value@Json@@V23@@std@@PAX@std@@AAPAU12@@?$_Default_allocator_traits@V?$allocator@U?$_Tree_node@U?$pair@$$CBVCZString@Value@Json@@V23@@std@@PAX@std@@@std@@@std@@SAXAAV?$allocator@U?$_Tree_node@U?$pair@$$CBVCZString@Value@Json@@V23@@std@@PAX@std@@@1@QAPAU?$_Tree_node@U?$pair@$$CBVCZString@Value@Json@@V23@@std@@PAX@1@AAPAU31@@Z 10017090 f i json_vc71_libmtd:json_value.obj
 0001:000160f0       ??$construct@PBVPathArgument@Json@@PBV12@@?$_Default_allocator_traits@V?$allocator@PBVPathArgument@Json@@@std@@@std@@SAXAAV?$allocator@PBVPathArgument@Json@@@1@QAPBVPathArgument@Json@@$$QAPBV34@@Z 100170f0 f i json_vc71_libmtd:json_value.obj
 0001:00016150       ??$construct@U?$pair@$$CBVCZString@Value@Json@@V23@@std@@AAU12@@?$_Default_allocator_traits@V?$allocator@U?$_Tree_node@U?$pair@$$CBVCZString@Value@Json@@V23@@std@@PAX@std@@@std@@@std@@SAXAAV?$allocator@U?$_Tree_node@U?$pair@$$CBVCZString@Value@Json@@V23@@std@@PAX@std@@@1@QAU?$pair@$$CBVCZString@Value@Json@@V23@@1@AAU31@@Z 10017150 f i json_vc71_libmtd:json_value.obj
 0001:000161b0       ??$construct@V?$basic_string@DU?$char_traits@D@std@@V?$allocator@D@2@@std@@V12@@?$_Default_allocator_traits@V?$allocator@V?$basic_string@DU?$char_traits@D@std@@V?$allocator@D@2@@std@@@std@@@std@@SAXAAV?$allocator@V?$basic_string@DU?$char_traits@D@std@@V?$allocator@D@2@@std@@@1@QAV?$basic_string@DU?$char_traits@D@std@@V?$allocator@D@2@@1@$$QAV31@@Z 100171b0 f i json_vc71_libmtd:json_value.obj
 0001:00016210       ??$construct@VPathArgument@Json@@ABV12@@?$_Default_allocator_traits@V?$allocator@VPathArgument@Json@@@std@@@std@@SAXAAV?$allocator@VPathArgument@Json@@@1@QAVPathArgument@Json@@ABV34@@Z 10017210 f i json_vc71_libmtd:json_value.obj
 0001:00016270       ??$construct@VPathArgument@Json@@V12@@?$_Default_allocator_traits@V?$allocator@VPathArgument@Json@@@std@@@std@@SAXAAV?$allocator@VPathArgument@Json@@@1@QAVPathArgument@Json@@$$QAV34@@Z 10017270 f i json_vc71_libmtd:json_value.obj
 0001:000162d0       ??$destroy@PAU?$_Tree_node@U?$pair@$$CBVCZString@Value@Json@@V23@@std@@PAX@std@@@?$_Default_allocator_traits@V?$allocator@U?$_Tree_node@U?$pair@$$CBVCZString@Value@Json@@V23@@std@@PAX@std@@@std@@@std@@SAXAAV?$allocator@U?$_Tree_node@U?$pair@$$CBVCZString@Value@Json@@V23@@std@@PAX@std@@@1@QAPAU?$_Tree_node@U?$pair@$$CBVCZString@Value@Json@@V23@@std@@PAX@1@@Z 100172d0 f i json_vc71_libmtd:json_value.obj
 0001:00016300       ??$destroy@U?$pair@$$CBVCZString@Value@Json@@V23@@std@@@?$_Default_allocator_traits@V?$allocator@U?$_Tree_node@U?$pair@$$CBVCZString@Value@Json@@V23@@std@@PAX@std@@@std@@@std@@SAXAAV?$allocator@U?$_Tree_node@U?$pair@$$CBVCZString@Value@Json@@V23@@std@@PAX@std@@@1@QAU?$pair@$$CBVCZString@Value@Json@@V23@@1@@Z 10017300 f i json_vc71_libmtd:json_value.obj
 0001:00016340       ??$destroy@VPathArgument@Json@@@?$_Default_allocator_traits@V?$allocator@VPathArgument@Json@@@std@@@std@@SAXAAV?$allocator@VPathArgument@Json@@@1@QAVPathArgument@Json@@@Z 10017340 f i json_vc71_libmtd:json_value.obj
 0001:00016380       ??$distance@V?$_Tree_iterator@V?$_Tree_val@U?$_Tree_simple_types@U?$pair@$$CBVCZString@Value@Json@@V23@@std@@@std@@@std@@@std@@@std@@YAHV?$_Tree_iterator@V?$_Tree_val@U?$_Tree_simple_types@U?$pair@$$CBVCZString@Value@Json@@V23@@std@@@std@@@std@@@0@0@Z 10017380 f i json_vc71_libmtd:json_value.obj
 0001:00016450       ??$emplace_back@ABVPathArgument@Json@@@?$vector@VPathArgument@Json@@V?$allocator@VPathArgument@Json@@@std@@@std@@QAE@ABVPathArgument@Json@@@Z 10017450 f i json_vc71_libmtd:json_value.obj
 0001:000164e0       ??$emplace_back@PBVPathArgument@Json@@@?$vector@PBVPathArgument@Json@@V?$allocator@PBVPathArgument@Json@@@std@@@std@@QAE@$$QAPBVPathArgument@Json@@@Z 100174e0 f i json_vc71_libmtd:json_value.obj
 0001:00016570       ??$emplace_back@V?$basic_string@DU?$char_traits@D@std@@V?$allocator@D@2@@std@@@?$vector@V?$basic_string@DU?$char_traits@D@std@@V?$allocator@D@2@@std@@V?$allocator@V?$basic_string@DU?$char_traits@D@std@@V?$allocator@D@2@@std@@@2@@std@@QAE@$$QAV?$basic_string@DU?$char_traits@D@std@@V?$allocator@D@2@@1@@Z 10017570 f i json_vc71_libmtd:json_value.obj
 0001:00016600       ??$emplace_back@VPathArgument@Json@@@?$vector@VPathArgument@Json@@V?$allocator@VPathArgument@Json@@@std@@@std@@QAE@$$QAVPathArgument@Json@@@Z 10017600 f i json_vc71_libmtd:json_value.obj
 0001:00016690       ??$emplace_hint@AAU?$pair@$$CBVCZString@Value@Json@@V23@@std@@@?$_Tree@V?$_Tmap_traits@VCZString@Value@Json@@V23@U?$less@VCZString@Value@Json@@@std@@V?$allocator@U?$pair@$$CBVCZString@Value@Json@@V23@@std@@@5@$0A@@std@@@std@@QAE?AV?$_Tree_iterator@V?$_Tree_val@U?$_Tree_simple_types@U?$pair@$$CBVCZString@Value@Json@@V23@@std@@@std@@@std@@@1@V?$_Tree_const_iterator@V?$_Tree_val@U?$_Tree_simple_types@U?$pair@$$CBVCZString@Value@Json@@V23@@std@@@std@@@std@@@1@AAU?$pair@$$CBVCZString@Value@Json@@V23@@1@@Z 10017690 f i json_vc71_libmtd:json_value.obj
 0001:00016770       ??$equal@V?$_Tree_const_iterator@V?$_Tree_val@U?$_Tree_simple_types@U?$pair@$$CBVCZString@Value@Json@@V23@@std@@@std@@@std@@@std@@V12@@std@@YA_NV?$_Tree_const_iterator@V?$_Tree_val@U?$_Tree_simple_types@U?$pair@$$CBVCZString@Value@Json@@V23@@std@@@std@@@std@@@0@00@Z 10017770 f i json_vc71_libmtd:json_value.obj
 0001:00016860       ??$equal@V?$_Tree_const_iterator@V?$_Tree_val@U?$_Tree_simple_types@U?$pair@$$CBVCZString@Value@Json@@V23@@std@@@std@@@std@@@std@@V12@U?$equal_to@X@2@@std@@YA_NV?$_Tree_const_iterator@V?$_Tree_val@U?$_Tree_simple_types@U?$pair@$$CBVCZString@Value@Json@@V23@@std@@@std@@@std@@@0@00U?$equal_to@X@0@@Z 10017860 f i json_vc71_libmtd:json_value.obj
 0001:00016a10       ??$erase@V?$_Tree_iterator@V?$_Tree_val@U?$_Tree_simple_types@U?$pair@$$CBVCZString@Value@Json@@V23@@std@@@std@@@std@@@std@@X@?$_Tree@V?$_Tmap_traits@VCZString@Value@Json@@V23@U?$less@VCZString@Value@Json@@@std@@V?$allocator@U?$pair@$$CBVCZString@Value@Json@@V23@@std@@@5@$0A@@std@@@std@@QAE?AV?$_Tree_iterator@V?$_Tree_val@U?$_Tree_simple_types@U?$pair@$$CBVCZString@Value@Json@@V23@@std@@@std@@@std@@@1@V21@@Z 10017a10 f i json_vc71_libmtd:json_value.obj
 0001:00016ad0       ??$forward@AAPAU?$_Tree_node@U?$pair@$$CBVCZString@Value@Json@@V23@@std@@PAX@std@@@std@@YAAAPAU?$_Tree_node@U?$pair@$$CBVCZString@Value@Json@@V23@@std@@PAX@0@AAPAU10@@Z 10017ad0 f i json_vc71_libmtd:json_value.obj
 0001:00016b00       ??$forward@AAU?$pair@$$CBVCZString@Value@Json@@V23@@std@@@std@@YAAAU?$pair@$$CBVCZString@Value@Json@@V23@@0@AAU10@@Z 10017b00 f i json_vc71_libmtd:json_value.obj
 0001:00016b30       ??$forward@AAV?$_Tree_const_iterator@V?$_Tree_val@U?$_Tree_simple_types@U?$pair@$$CBVCZString@Value@Json@@V23@@std@@@std@@@std@@@std@@@std@@YAAAV?$_Tree_const_iterator@V?$_Tree_val@U?$_Tree_simple_types@U?$pair@$$CBVCZString@Value@Json@@V23@@std@@@std@@@std@@@0@AAV10@@Z 10017b30 f i json_vc71_libmtd:json_value.obj
 0001:00016b60       ??$forward@AAV?$_Tree_iterator@V?$_Tree_val@U?$_Tree_simple_types@U?$pair@$$CBVCZString@Value@Json@@V23@@std@@@std@@@std@@@std@@@std@@YAAAV?$_Tree_iterator@V?$_Tree_val@U?$_Tree_simple_types@U?$pair@$$CBVCZString@Value@Json@@V23@@std@@@std@@@std@@@0@AAV10@@Z 10017b60 f i json_vc71_libmtd:json_value.obj
 0001:00016b90       ??$forward@AAVCZString@Value@Json@@@std@@YAAAVCZString@Value@Json@@AAV123@@Z 10017b90 f i json_vc71_libmtd:json_value.obj
 0001:00016bc0       ??$forward@ABU?$less@VCZString@Value@Json@@@std@@@std@@YAABU?$less@VCZString@Value@Json@@@0@ABU10@@Z 10017bc0 f i json_vc71_libmtd:json_value.obj
 0001:00016bf0       ??$forward@ABV?$allocator@D@std@@@std@@YAABV?$allocator@D@0@ABV10@@Z 10017bf0 f i json_vc71_libmtd:json_value.obj
 0001:00016c20       ??$forward@ABVPathArgument@Json@@@std@@YAABVPathArgument@Json@@ABV12@@Z 10017c20 f i json_vc71_libmtd:json_value.obj
 0001:00016c50       ??$forward@ABVValue@Json@@@std@@YAABVValue@Json@@ABV12@@Z 10017c50 f i json_vc71_libmtd:json_value.obj
 0001:00016c80       ??$forward@PBVPathArgument@Json@@@std@@YA$$QAPBVPathArgument@Json@@AAPBV12@@Z 10017c80 f i json_vc71_libmtd:json_value.obj
 0001:00016cb0       ??$forward@U_One_then_variadic_args_t@std@@@std@@YA$$QAU_One_then_variadic_args_t@0@AAU10@@Z 10017cb0 f i json_vc71_libmtd:json_value.obj
 0001:00016ce0       ??$forward@V?$_Tree_iterator@V?$_Tree_val@U?$_Tree_simple_types@U?$pair@$$CBVCZString@Value@Json@@V23@@std@@@std@@@std@@@std@@@std@@YA$$QAV?$_Tree_iterator@V?$_Tree_val@U?$_Tree_simple_types@U?$pair@$$CBVCZString@Value@Json@@V23@@std@@@std@@@std@@@0@AAV10@@Z 10017ce0 f i json_vc71_libmtd:json_value.obj
 0001:00016d10       ??$forward@V?$allocator@D@std@@@std@@YA$$QAV?$allocator@D@0@AAV10@@Z 10017d10 f i json_vc71_libmtd:json_value.obj
 0001:00016d40       ??$forward@V?$allocator@U?$_Tree_node@U?$pair@$$CBVCZString@Value@Json@@V23@@std@@PAX@std@@@std@@@std@@YA$$QAV?$allocator@U?$_Tree_node@U?$pair@$$CBVCZString@Value@Json@@V23@@std@@PAX@std@@@0@AAV10@@Z 10017d40 f i json_vc71_libmtd:json_value.obj
 0001:00016d70       ??$forward@V?$allocator@V?$basic_string@DU?$char_traits@D@std@@V?$allocator@D@2@@std@@@std@@@std@@YA$$QAV?$allocator@V?$basic_string@DU?$char_traits@D@std@@V?$allocator@D@2@@std@@@0@AAV10@@Z 10017d70 f i json_vc71_libmtd:json_value.obj
 0001:00016da0       ??$forward@V?$basic_string@DU?$char_traits@D@std@@V?$allocator@D@2@@std@@@std@@YA$$QAV?$basic_string@DU?$char_traits@D@std@@V?$allocator@D@2@@0@AAV10@@Z 10017da0 f i json_vc71_libmtd:json_value.obj
 0001:00016dd0       ??$forward@VPathArgument@Json@@@std@@YA$$QAVPathArgument@Json@@AAV12@@Z 10017dd0 f i json_vc71_libmtd:json_value.obj
 0001:00016e00       ??$insert@AAU?$pair@$$CBVCZString@Value@Json@@V23@@std@@X@?$map@VCZString@Value@Json@@V23@U?$less@VCZString@Value@Json@@@std@@V?$allocator@U?$pair@$$CBVCZString@Value@Json@@V23@@std@@@5@@std@@QAE?AV?$_Tree_iterator@V?$_Tree_val@U?$_Tree_simple_types@U?$pair@$$CBVCZString@Value@Json@@V23@@std@@@std@@@std@@@1@V?$_Tree_const_iterator@V?$_Tree_val@U?$_Tree_simple_types@U?$pair@$$CBVCZString@Value@Json@@V23@@std@@@std@@@std@@@1@AAU?$pair@$$CBVCZString@Value@Json@@V23@@1@@Z 10017e00 f i json_vc71_libmtd:json_value.obj
 0001:00016ed0       ??$lexicographical_compare@V?$_Tree_const_iterator@V?$_Tree_val@U?$_Tree_simple_types@U?$pair@$$CBVCZString@Value@Json@@V23@@std@@@std@@@std@@@std@@V12@@std@@YA_NV?$_Tree_const_iterator@V?$_Tree_val@U?$_Tree_simple_types@U?$pair@$$CBVCZString@Value@Json@@V23@@std@@@std@@@std@@@0@000@Z 10017ed0 f i json_vc71_libmtd:json_value.obj
 0001:00016fe0       ??$lexicographical_compare@V?$_Tree_const_iterator@V?$_Tree_val@U?$_Tree_simple_types@U?$pair@$$CBVCZString@Value@Json@@V23@@std@@@std@@@std@@@std@@V12@U?$less@X@2@@std@@YA_NV?$_Tree_const_iterator@V?$_Tree_val@U?$_Tree_simple_types@U?$pair@$$CBVCZString@Value@Json@@V23@@std@@@std@@@std@@@0@000U?$less@X@0@@Z 10017fe0 f i json_vc71_libmtd:json_value.obj
 0001:000171b0       ??$move@AAH@std@@YA$$QAHAAH@Z 100181b0 f i json_vc71_libmtd:json_value.obj
 0001:000171e0       ??$move@AAPBD@std@@YA$$QAPBDAAPBD@Z 100181e0 f i json_vc71_libmtd:json_value.obj
 0001:00017210       ??$move@AAPBVPathArgument@Json@@@std@@YA$$QAPBVPathArgument@Json@@AAPBV12@@Z 10018210 f i json_vc71_libmtd:json_value.obj
 0001:00017240       ??$move@AATValueHolder@Value@Json@@@std@@YA$$QATValueHolder@Value@Json@@AAT123@@Z 10018240 f i json_vc71_libmtd:json_value.obj
 0001:00017270       ??$move@AAV?$allocator@D@std@@@std@@YA$$QAV?$allocator@D@0@AAV10@@Z 10018270 f i json_vc71_libmtd:json_value.obj
 0001:000172a0       ??$move@AAV?$allocator@V?$basic_string@DU?$char_traits@D@std@@V?$allocator@D@2@@std@@@std@@@std@@YA$$QAV?$allocator@V?$basic_string@DU?$char_traits@D@std@@V?$allocator@D@2@@std@@@0@AAV10@@Z 100182a0 f i json_vc71_libmtd:json_value.obj
 0001:000172d0       ??$move@AAV?$basic_string@DU?$char_traits@D@std@@V?$allocator@D@2@@std@@@std@@YA$$QAV?$basic_string@DU?$char_traits@D@std@@V?$allocator@D@2@@0@AAV10@@Z 100182d0 f i json_vc71_libmtd:json_value.obj
 0001:00017300       ??$move@AAV?$vector@V?$basic_string@DU?$char_traits@D@std@@V?$allocator@D@2@@std@@V?$allocator@V?$basic_string@DU?$char_traits@D@std@@V?$allocator@D@2@@std@@@2@@std@@@std@@YA$$QAV?$vector@V?$basic_string@DU?$char_traits@D@std@@V?$allocator@D@2@@std@@V?$allocator@V?$basic_string@DU?$char_traits@D@std@@V?$allocator@D@2@@std@@@2@@0@AAV10@@Z 10018300 f i json_vc71_libmtd:json_value.obj
 0001:00017330       ??$move@AAVPathArgument@Json@@@std@@YA$$QAVPathArgument@Json@@AAV12@@Z 10018330 f i json_vc71_libmtd:json_value.obj
 0001:00017360       ??$swap@HX@std@@YAXAAH0@Z  10018360 f i json_vc71_libmtd:json_value.obj
 0001:00017400       ??$swap@PBDX@std@@YAXAAPBD0@Z 10018400 f i json_vc71_libmtd:json_value.obj
 0001:000174a0       ??$swap@TValueHolder@Value@Json@@X@std@@YAXAATValueHolder@Value@Json@@0@Z 100184a0 f i json_vc71_libmtd:json_value.obj
 0001:00017550       ??0?$_Tree@V?$_Tmap_traits@VCZString@Value@Json@@V23@U?$less@VCZString@Value@Json@@@std@@V?$allocator@U?$pair@$$CBVCZString@Value@Json@@V23@@std@@@5@$0A@@std@@@std@@QAE@ABU?$less@VCZString@Value@Json@@@1@@Z 10018550 f i json_vc71_libmtd:json_value.obj
 0001:000175a0       ??0?$_Tree_comp_alloc@V?$_Tmap_traits@VCZString@Value@Json@@V23@U?$less@VCZString@Value@Json@@@std@@V?$allocator@U?$pair@$$CBVCZString@Value@Json@@V23@@std@@@5@$0A@@std@@@std@@QAE@ABU?$less@VCZString@Value@Json@@@1@@Z 100185a0 f i json_vc71_libmtd:json_value.obj
 0001:00017600       ??0?$_Tree_const_iterator@V?$_Tree_val@U?$_Tree_simple_types@U?$pair@$$CBVCZString@Value@Json@@V23@@std@@@std@@@std@@@std@@QAE@$$QAV01@@Z 10018600 f i json_vc71_libmtd:json_value.obj
 0001:00017650       ??0?$_Tree_const_iterator@V?$_Tree_val@U?$_Tree_simple_types@U?$pair@$$CBVCZString@Value@Json@@V23@@std@@@std@@@std@@@std@@QAE@ABV01@@Z 10018650 f i json_vc71_libmtd:json_value.obj
 0001:000176a0       ??0?$_Tree_const_iterator@V?$_Tree_val@U?$_Tree_simple_types@U?$pair@$$CBVCZString@Value@Json@@V23@@std@@@std@@@std@@@std@@QAE@PAU?$_Tree_node@U?$pair@$$CBVCZString@Value@Json@@V23@@std@@PAX@1@PBV?$_Tree_val@U?$_Tree_simple_types@U?$pair@$$CBVCZString@Value@Json@@V23@@std@@@std@@@1@@Z 100186a0 f i json_vc71_libmtd:json_value.obj
 0001:000176f0       ??0?$_Tree_const_iterator@V?$_Tree_val@U?$_Tree_simple_types@U?$pair@$$CBVCZString@Value@Json@@V23@@std@@@std@@@std@@@std@@QAE@XZ 100186f0 f i json_vc71_libmtd:json_value.obj
 0001:00017740       ??0?$_Tree_iterator@V?$_Tree_val@U?$_Tree_simple_types@U?$pair@$$CBVCZString@Value@Json@@V23@@std@@@std@@@std@@@std@@QAE@$$QAV01@@Z 10018740 f i json_vc71_libmtd:json_value.obj
 0001:00017790       ??0?$_Tree_iterator@V?$_Tree_val@U?$_Tree_simple_types@U?$pair@$$CBVCZString@Value@Json@@V23@@std@@@std@@@std@@@std@@QAE@ABV01@@Z 10018790 f i json_vc71_libmtd:json_value.obj
 0001:000177e0       ??0?$_Tree_iterator@V?$_Tree_val@U?$_Tree_simple_types@U?$pair@$$CBVCZString@Value@Json@@V23@@std@@@std@@@std@@@std@@QAE@PAU?$_Tree_node@U?$pair@$$CBVCZString@Value@Json@@V23@@std@@PAX@1@PBV?$_Tree_val@U?$_Tree_simple_types@U?$pair@$$CBVCZString@Value@Json@@V23@@std@@@std@@@1@@Z 100187e0 f i json_vc71_libmtd:json_value.obj
 0001:00017830       ??0?$_Tree_iterator@V?$_Tree_val@U?$_Tree_simple_types@U?$pair@$$CBVCZString@Value@Json@@V23@@std@@@std@@@std@@@std@@QAE@XZ 10018830 f i json_vc71_libmtd:json_value.obj
 0001:00017880       ??0?$_Tree_unchecked_const_iterator@V?$_Tree_val@U?$_Tree_simple_types@U?$pair@$$CBVCZString@Value@Json@@V23@@std@@@std@@@std@@U_Iterator_base0@2@@std@@QAE@PAU?$_Tree_node@U?$pair@$$CBVCZString@Value@Json@@V23@@std@@PAX@1@PBV?$_Tree_val@U?$_Tree_simple_types@U?$pair@$$CBVCZString@Value@Json@@V23@@std@@@std@@@1@@Z 10018880 f i json_vc71_libmtd:json_value.obj
 0001:000178d0       ??0?$_Tree_unchecked_const_iterator@V?$_Tree_val@U?$_Tree_simple_types@U?$pair@$$CBVCZString@Value@Json@@V23@@std@@@std@@@std@@U_Iterator_base12@2@@std@@QAE@$$QAV01@@Z 100188d0 f i json_vc71_libmtd:json_value.obj
 0001:00017930       ??0?$_Tree_unchecked_const_iterator@V?$_Tree_val@U?$_Tree_simple_types@U?$pair@$$CBVCZString@Value@Json@@V23@@std@@@std@@@std@@U_Iterator_base12@2@@std@@QAE@ABV01@@Z 10018930 f i json_vc71_libmtd:json_value.obj
 0001:00017990       ??0?$_Tree_unchecked_const_iterator@V?$_Tree_val@U?$_Tree_simple_types@U?$pair@$$CBVCZString@Value@Json@@V23@@std@@@std@@@std@@U_Iterator_base12@2@@std@@QAE@PAU?$_Tree_node@U?$pair@$$CBVCZString@Value@Json@@V23@@std@@PAX@1@PBV?$_Tree_val@U?$_Tree_simple_types@U?$pair@$$CBVCZString@Value@Json@@V23@@std@@@std@@@1@@Z 10018990 f i json_vc71_libmtd:json_value.obj
 0001:000179f0       ??0?$_Tree_unchecked_const_iterator@V?$_Tree_val@U?$_Tree_simple_types@U?$pair@$$CBVCZString@Value@Json@@V23@@std@@@std@@@std@@U_Iterator_base12@2@@std@@QAE@XZ 100189f0 f i json_vc71_libmtd:json_value.obj
 0001:00017a40       ??0?$_Tree_val@U?$_Tree_simple_types@U?$pair@$$CBVCZString@Value@Json@@V23@@std@@@std@@@std@@QAE@XZ 10018a40 f i json_vc71_libmtd:json_value.obj
 0001:00017aa0       ??0?$_Uninitialized_backout_al@PAV?$basic_string@DU?$char_traits@D@std@@V?$allocator@D@2@@std@@V?$allocator@V?$basic_string@DU?$char_traits@D@std@@V?$allocator@D@2@@std@@@2@@std@@QAE@PAV?$basic_string@DU?$char_traits@D@std@@V?$allocator@D@2@@1@AAV?$allocator@V?$basic_string@DU?$char_traits@D@std@@V?$allocator@D@2@@std@@@1@@Z 10018aa0 f i json_vc71_libmtd:json_value.obj
 0001:00017af0       ??0?$_Uninitialized_backout_al@PAVPathArgument@Json@@V?$allocator@VPathArgument@Json@@@std@@@std@@QAE@PAVPathArgument@Json@@AAV?$allocator@VPathArgument@Json@@@1@@Z 10018af0 f i json_vc71_libmtd:json_value.obj
 0001:00017b40       ??0?$_Vector_alloc@U?$_Vec_base_types@PBVPathArgument@Json@@V?$allocator@PBVPathArgument@Json@@@std@@@std@@@std@@QAE@XZ 10018b40 f i json_vc71_libmtd:json_value.obj
 0001:00017ba0       ??0?$_Vector_alloc@U?$_Vec_base_types@V?$basic_string@DU?$char_traits@D@std@@V?$allocator@D@2@@std@@V?$allocator@V?$basic_string@DU?$char_traits@D@std@@V?$allocator@D@2@@std@@@2@@std@@@std@@QAE@XZ 10018ba0 f i json_vc71_libmtd:json_value.obj
 0001:00017c00       ??0?$_Vector_alloc@U?$_Vec_base_types@VPathArgument@Json@@V?$allocator@VPathArgument@Json@@@std@@@std@@@std@@QAE@XZ 10018c00 f i json_vc71_libmtd:json_value.obj
 0001:00017c60       ??0?$_Vector_const_iterator@V?$_Vector_val@U?$_Simple_types@PBVPathArgument@Json@@@std@@@std@@@std@@QAE@PAPBVPathArgument@Json@@PBU_Container_base12@1@@Z 10018c60 f i json_vc71_libmtd:json_value.obj
 0001:00017cc0       ??0?$_Vector_const_iterator@V?$_Vector_val@U?$_Simple_types@VPathArgument@Json@@@std@@@std@@@std@@QAE@PAVPathArgument@Json@@PBU_Container_base12@1@@Z 10018cc0 f i json_vc71_libmtd:json_value.obj
 0001:00017d20       ??0?$_Vector_val@U?$_Simple_types@PBVPathArgument@Json@@@std@@@std@@QAE@XZ 10018d20 f i json_vc71_libmtd:json_value.obj
 0001:00017d80       ??0?$_Vector_val@U?$_Simple_types@V?$basic_string@DU?$char_traits@D@std@@V?$allocator@D@2@@std@@@std@@@std@@QAE@XZ 10018d80 f i json_vc71_libmtd:json_value.obj
 0001:00017de0       ??0?$_Vector_val@U?$_Simple_types@VPathArgument@Json@@@std@@@std@@QAE@XZ 10018de0 f i json_vc71_libmtd:json_value.obj
 0001:00017e40       ??0?$allocator@PBVPathArgument@Json@@@std@@QAE@XZ 10018e40 f i json_vc71_libmtd:json_value.obj
 0001:00017e70       ??0?$allocator@U?$_Tree_node@U?$pair@$$CBVCZString@Value@Json@@V23@@std@@PAX@std@@@std@@QAE@XZ 10018e70 f i json_vc71_libmtd:json_value.obj
 0001:00017ea0       ??0?$allocator@V?$basic_string@DU?$char_traits@D@std@@V?$allocator@D@2@@std@@@std@@QAE@XZ 10018ea0 f i json_vc71_libmtd:json_value.obj
 0001:00017ed0       ??0?$allocator@VPathArgument@Json@@@std@@QAE@XZ 10018ed0 f i json_vc71_libmtd:json_value.obj
 0001:00017f00       ??0?$basic_string@DU?$char_traits@D@std@@V?$allocator@D@2@@std@@QAE@$$QAV01@@Z 10018f00 f i json_vc71_libmtd:json_value.obj
 0001:00017fb0       ??0?$basic_string@DU?$char_traits@D@std@@V?$allocator@D@2@@std@@QAE@ABV01@@Z 10018fb0 f i json_vc71_libmtd:json_value.obj
 0001:00018060       ??0?$basic_string@DU?$char_traits@D@std@@V?$allocator@D@2@@std@@QAE@XZ 10019060 f i json_vc71_libmtd:json_value.obj
 0001:000180e0       ??0?$map@VCZString@Value@Json@@V23@U?$less@VCZString@Value@Json@@@std@@V?$allocator@U?$pair@$$CBVCZString@Value@Json@@V23@@std@@@5@@std@@QAE@ABV01@@Z 100190e0 f i json_vc71_libmtd:json_value.obj
 0001:00018150       ??0?$map@VCZString@Value@Json@@V23@U?$less@VCZString@Value@Json@@@std@@V?$allocator@U?$pair@$$CBVCZString@Value@Json@@V23@@std@@@5@@std@@QAE@XZ 10019150 f i json_vc71_libmtd:json_value.obj
 0001:000181a0       ??0?$pair@$$CBVCZString@Value@Json@@V23@@std@@QAE@ABU01@@Z 100191a0 f i json_vc71_libmtd:json_value.obj
 0001:00018240       ??0?$vector@PBVPathArgument@Json@@V?$allocator@PBVPathArgument@Json@@@std@@@std@@QAE@XZ 10019240 f i json_vc71_libmtd:json_value.obj
 0001:000182b0       ??0?$vector@V?$basic_string@DU?$char_traits@D@std@@V?$allocator@D@2@@std@@V?$allocator@V?$basic_string@DU?$char_traits@D@std@@V?$allocator@D@2@@std@@@2@@std@@QAE@$$QAV01@@Z 100192b0 f i json_vc71_libmtd:json_value.obj
 0001:00018360       ??0?$vector@V?$basic_string@DU?$char_traits@D@std@@V?$allocator@D@2@@std@@V?$allocator@V?$basic_string@DU?$char_traits@D@std@@V?$allocator@D@2@@std@@@2@@std@@QAE@XZ 10019360 f i json_vc71_libmtd:json_value.obj
 0001:000183d0       ??0?$vector@VPathArgument@Json@@V?$allocator@VPathArgument@Json@@@std@@@std@@QAE@XZ 100193d0 f i json_vc71_libmtd:json_value.obj
 0001:00018440       ??0CZString@Value@Json@@QAE@ABV012@@Z 10019440 f   json_vc71_libmtd:json_value.obj
 0001:00018530       ??0CZString@Value@Json@@QAE@H@Z 10019530 f   json_vc71_libmtd:json_value.obj
 0001:00018580       ??0CZString@Value@Json@@QAE@PBDW4DuplicationPolicy@012@@Z 10019580 f   json_vc71_libmtd:json_value.obj
 0001:00018620       ??0CommentInfo@Value@Json@@QAE@XZ 10019620 f   json_vc71_libmtd:json_value.obj
 0001:00018660       ??0DefaultValueAllocator@Json@@QAE@XZ 10019660 f i json_vc71_libmtd:json_value.obj
 0001:000186b0       ??0DummyValueAllocatorInitializer@Json@@QAE@XZ 100196b0 f i json_vc71_libmtd:json_value.obj
 0001:000186f0       ??0Path@Json@@QAE@ABV?$basic_string@DU?$char_traits@D@std@@V?$allocator@D@2@@std@@ABVPathArgument@1@1111@Z 100196f0 f   json_vc71_libmtd:json_value.obj
 0001:00018840       ??0PathArgument@Json@@QAE@$$QAV01@@Z 10019840 f i json_vc71_libmtd:json_value.obj
 0001:000188a0       ??0PathArgument@Json@@QAE@ABV01@@Z 100198a0 f i json_vc71_libmtd:json_value.obj
 0001:00018900       ??0PathArgument@Json@@QAE@ABV?$basic_string@DU?$char_traits@D@std@@V?$allocator@D@2@@std@@@Z 10019900 f   json_vc71_libmtd:json_value.obj
 0001:00018960       ??0PathArgument@Json@@QAE@I@Z 10019960 f   json_vc71_libmtd:json_value.obj
 0001:000189c0       ??0PathArgument@Json@@QAE@PBD@Z 100199c0 f   json_vc71_libmtd:json_value.obj
 0001:00018a20       ??0PathArgument@Json@@QAE@XZ 10019a20 f   json_vc71_libmtd:json_value.obj
 0001:00018a70       ??0StaticString@Json@@QAE@PBD@Z 10019a70 f i json_vc71_libmtd:json_value.obj
 0001:00018ab0       ??0Value@Json@@QAE@ABV01@@Z 10019ab0 f   json_vc71_libmtd:json_value.obj
 0001:00018d70       ??0Value@Json@@QAE@ABV?$basic_string@DU?$char_traits@D@std@@V?$allocator@D@2@@std@@@Z 10019d70 f   json_vc71_libmtd:json_value.obj
 0001:00018e20       ??0Value@Json@@QAE@ABVStaticString@1@@Z 10019e20 f   json_vc71_libmtd:json_value.obj
 0001:00018ea0       ??0Value@Json@@QAE@H@Z     10019ea0 f   json_vc71_libmtd:json_value.obj
 0001:00018f00       ??0Value@Json@@QAE@I@Z     10019f00 f   json_vc71_libmtd:json_value.obj
 0001:00018f60       ??0Value@Json@@QAE@N@Z     10019f60 f   json_vc71_libmtd:json_value.obj
 0001:00018fc0       ??0Value@Json@@QAE@PBD0@Z  10019fc0 f   json_vc71_libmtd:json_value.obj
 0001:00019070       ??0Value@Json@@QAE@PBD@Z   1001a070 f   json_vc71_libmtd:json_value.obj
 0001:00019120       ??0Value@Json@@QAE@W4ValueType@1@@Z 1001a120 f   json_vc71_libmtd:json_value.obj
 0001:000192c0       ??0Value@Json@@QAE@_N@Z    1001a2c0 f   json_vc71_libmtd:json_value.obj
 0001:00019320       ??0ValueAllocator@Json@@QAE@XZ 1001a320 f i json_vc71_libmtd:json_value.obj
 0001:00019360       ??0ValueConstIterator@Json@@AAE@ABV?$_Tree_iterator@V?$_Tree_val@U?$_Tree_simple_types@U?$pair@$$CBVCZString@Value@Json@@V23@@std@@@std@@@std@@@std@@@Z 1001a360 f   json_vc71_libmtd:json_value.obj
 0001:000193b0       ??0ValueConstIterator@Json@@QAE@XZ 1001a3b0 f   json_vc71_libmtd:json_value.obj
 0001:00019400       ??0ValueIterator@Json@@AAE@ABV?$_Tree_iterator@V?$_Tree_val@U?$_Tree_simple_types@U?$pair@$$CBVCZString@Value@Json@@V23@@std@@@std@@@std@@@std@@@Z 1001a400 f   json_vc71_libmtd:json_value.obj
 0001:00019450       ??0ValueIterator@Json@@QAE@ABV01@@Z 1001a450 f   json_vc71_libmtd:json_value.obj
 0001:000194a0       ??0ValueIterator@Json@@QAE@ABVValueConstIterator@1@@Z 1001a4a0 f   json_vc71_libmtd:json_value.obj
 0001:000194f0       ??0ValueIterator@Json@@QAE@XZ 1001a4f0 f   json_vc71_libmtd:json_value.obj
 0001:00019540       ??0ValueIteratorBase@Json@@QAE@ABV01@@Z 1001a540 f i json_vc71_libmtd:json_value.obj
 0001:000195a0       ??0ValueIteratorBase@Json@@QAE@ABV?$_Tree_iterator@V?$_Tree_val@U?$_Tree_simple_types@U?$pair@$$CBVCZString@Value@Json@@V23@@std@@@std@@@std@@@std@@@Z 1001a5a0 f   json_vc71_libmtd:json_value.obj
 0001:000195f0       ??0ValueIteratorBase@Json@@QAE@XZ 1001a5f0 f   json_vc71_libmtd:json_value.obj
 0001:00019640       ??0exception@std@@QAE@ABV01@@Z 1001a640 f i json_vc71_libmtd:json_value.obj
 0001:000196b0       ??0exception@std@@QAE@QBD@Z 1001a6b0 f i json_vc71_libmtd:json_value.obj
 0001:00019750       ??0runtime_error@std@@QAE@ABV01@@Z 1001a750 f i json_vc71_libmtd:json_value.obj
 0001:000197b0       ??0runtime_error@std@@QAE@PBD@Z 1001a7b0 f i json_vc71_libmtd:json_value.obj
 0001:00019810       ??1?$_Tree@V?$_Tmap_traits@VCZString@Value@Json@@V23@U?$less@VCZString@Value@Json@@@std@@V?$allocator@U?$pair@$$CBVCZString@Value@Json@@V23@@std@@@5@$0A@@std@@@std@@QAE@XZ 1001a810 f i json_vc71_libmtd:json_value.obj
 0001:00019890       ??1?$_Tree_comp_alloc@V?$_Tmap_traits@VCZString@Value@Json@@V23@U?$less@VCZString@Value@Json@@@std@@V?$allocator@U?$pair@$$CBVCZString@Value@Json@@V23@@std@@@5@$0A@@std@@@std@@QAE@XZ 1001a890 f i json_vc71_libmtd:json_value.obj
 0001:00019910       ??1?$_Tree_const_iterator@V?$_Tree_val@U?$_Tree_simple_types@U?$pair@$$CBVCZString@Value@Json@@V23@@std@@@std@@@std@@@std@@QAE@XZ 1001a910 f i json_vc71_libmtd:json_value.obj
 0001:00019950       ??1?$_Tree_iterator@V?$_Tree_val@U?$_Tree_simple_types@U?$pair@$$CBVCZString@Value@Json@@V23@@std@@@std@@@std@@@std@@QAE@XZ 1001a950 f i json_vc71_libmtd:json_value.obj
 0001:00019990       ??1?$_Tree_unchecked_const_iterator@V?$_Tree_val@U?$_Tree_simple_types@U?$pair@$$CBVCZString@Value@Json@@V23@@std@@@std@@@std@@U_Iterator_base12@2@@std@@QAE@XZ 1001a990 f i json_vc71_libmtd:json_value.obj
 0001:000199d0       ??1?$_Uninitialized_backout_al@PAV?$basic_string@DU?$char_traits@D@std@@V?$allocator@D@2@@std@@V?$allocator@V?$basic_string@DU?$char_traits@D@std@@V?$allocator@D@2@@std@@@2@@std@@QAE@XZ 1001a9d0 f i json_vc71_libmtd:json_value.obj
 0001:00019a50       ??1?$_Uninitialized_backout_al@PAVPathArgument@Json@@V?$allocator@VPathArgument@Json@@@std@@@std@@QAE@XZ 1001aa50 f i json_vc71_libmtd:json_value.obj
 0001:00019ad0       ??1?$_Vector_alloc@U?$_Vec_base_types@PBVPathArgument@Json@@V?$allocator@PBVPathArgument@Json@@@std@@@std@@@std@@QAE@XZ 1001aad0 f i json_vc71_libmtd:json_value.obj
 0001:00019b40       ??1?$_Vector_alloc@U?$_Vec_base_types@VPathArgument@Json@@V?$allocator@VPathArgument@Json@@@std@@@std@@@std@@QAE@XZ 1001ab40 f i json_vc71_libmtd:json_value.obj
 0001:00019bb0       ??1?$_Vector_const_iterator@V?$_Vector_val@U?$_Simple_types@PBVPathArgument@Json@@@std@@@std@@@std@@QAE@XZ 1001abb0 f i json_vc71_libmtd:json_value.obj
 0001:00019bf0       ??1?$_Vector_const_iterator@V?$_Vector_val@U?$_Simple_types@VPathArgument@Json@@@std@@@std@@@std@@QAE@XZ 1001abf0 f i json_vc71_libmtd:json_value.obj
 0001:00019c30       ??1?$map@VCZString@Value@Json@@V23@U?$less@VCZString@Value@Json@@@std@@V?$allocator@U?$pair@$$CBVCZString@Value@Json@@V23@@std@@@5@@std@@QAE@XZ 1001ac30 f i json_vc71_libmtd:json_value.obj
 0001:00019c70       ??1?$pair@$$CBVCZString@Value@Json@@V23@@std@@QAE@XZ 1001ac70 f i json_vc71_libmtd:json_value.obj
 0001:00019cc0       ??1?$pair@V?$_Tree_const_iterator@V?$_Tree_val@U?$_Tree_simple_types@U?$pair@$$CBVCZString@Value@Json@@V23@@std@@@std@@@std@@@std@@V12@@std@@QAE@XZ 1001acc0 f i json_vc71_libmtd:json_value.obj
 0001:00019d10       ??1?$pair@V?$_Tree_iterator@V?$_Tree_val@U?$_Tree_simple_types@U?$pair@$$CBVCZString@Value@Json@@V23@@std@@@std@@@std@@@std@@V12@@std@@QAE@XZ 1001ad10 f i json_vc71_libmtd:json_value.obj
 0001:00019d60       ??1?$pair@V?$_Tree_iterator@V?$_Tree_val@U?$_Tree_simple_types@U?$pair@$$CBVCZString@Value@Json@@V23@@std@@@std@@@std@@@std@@_N@std@@QAE@XZ 1001ad60 f i json_vc71_libmtd:json_value.obj
 0001:00019da0       ??1?$vector@PBVPathArgument@Json@@V?$allocator@PBVPathArgument@Json@@@std@@@std@@QAE@XZ 1001ada0 f i json_vc71_libmtd:json_value.obj
 0001:00019e20       ??1?$vector@VPathArgument@Json@@V?$allocator@VPathArgument@Json@@@std@@@std@@QAE@XZ 1001ae20 f i json_vc71_libmtd:json_value.obj
 0001:00019ea0       ??1CZString@Value@Json@@QAE@XZ 1001aea0 f   json_vc71_libmtd:json_value.obj
 0001:00019f50       ??1CommentInfo@Value@Json@@QAE@XZ 1001af50 f   json_vc71_libmtd:json_value.obj
 0001:00019ff0       ??1DefaultValueAllocator@Json@@UAE@XZ 1001aff0 f i json_vc71_libmtd:json_value.obj
 0001:0001a040       ??1PathArgument@Json@@QAE@XZ 1001b040 f i json_vc71_libmtd:json_value.obj
 0001:0001a080       ??1Value@Json@@QAE@XZ      1001b080 f   json_vc71_libmtd:json_value.obj
 0001:0001a220       ??1ValueAllocator@Json@@UAE@XZ 1001b220 f   json_vc71_libmtd:json_value.obj
 0001:0001a260       ??1exception@std@@UAE@XZ   1001b260 f i json_vc71_libmtd:json_value.obj
 0001:0001a2b0       ??1runtime_error@std@@UAE@XZ 1001b2b0 f i json_vc71_libmtd:json_value.obj
 0001:0001a2f0       ??4?$_Tree_const_iterator@V?$_Tree_val@U?$_Tree_simple_types@U?$pair@$$CBVCZString@Value@Json@@V23@@std@@@std@@@std@@@std@@QAEAAV01@$$QAV01@@Z 1001b2f0 f i json_vc71_libmtd:json_value.obj
 0001:0001a340       ??4?$_Tree_const_iterator@V?$_Tree_val@U?$_Tree_simple_types@U?$pair@$$CBVCZString@Value@Json@@V23@@std@@@std@@@std@@@std@@QAEAAV01@ABV01@@Z 1001b340 f i json_vc71_libmtd:json_value.obj
 0001:0001a390       ??4?$_Tree_iterator@V?$_Tree_val@U?$_Tree_simple_types@U?$pair@$$CBVCZString@Value@Json@@V23@@std@@@std@@@std@@@std@@QAEAAV01@$$QAV01@@Z 1001b390 f i json_vc71_libmtd:json_value.obj
 0001:0001a3e0       ??4?$_Tree_iterator@V?$_Tree_val@U?$_Tree_simple_types@U?$pair@$$CBVCZString@Value@Json@@V23@@std@@@std@@@std@@@std@@QAEAAV01@ABV01@@Z 1001b3e0 f i json_vc71_libmtd:json_value.obj
 0001:0001a430       ??4?$_Tree_unchecked_const_iterator@V?$_Tree_val@U?$_Tree_simple_types@U?$pair@$$CBVCZString@Value@Json@@V23@@std@@@std@@@std@@U_Iterator_base12@2@@std@@QAEAAV01@$$QAV01@@Z 1001b430 f i json_vc71_libmtd:json_value.obj
 0001:0001a490       ??4?$_Tree_unchecked_const_iterator@V?$_Tree_val@U?$_Tree_simple_types@U?$pair@$$CBVCZString@Value@Json@@V23@@std@@@std@@@std@@U_Iterator_base12@2@@std@@QAEAAV01@ABV01@@Z 1001b490 f i json_vc71_libmtd:json_value.obj
 0001:0001a4f0       ??4CZString@Value@Json@@QAEAAV012@ABV012@@Z 1001b4f0 f   json_vc71_libmtd:json_value.obj
 0001:0001a5c0       ??4Value@Json@@QAEAAV01@ABV01@@Z 1001b5c0 f   json_vc71_libmtd:json_value.obj
 0001:0001a690       ??4ValueConstIterator@Json@@QAEAAV01@ABVValueIteratorBase@1@@Z 1001b690 f   json_vc71_libmtd:json_value.obj
 0001:0001a6e0       ??4ValueIterator@Json@@QAEAAV01@ABV01@@Z 1001b6e0 f   json_vc71_libmtd:json_value.obj
 0001:0001a730       ??7Value@Json@@QBE_NXZ     1001b730 f   json_vc71_libmtd:json_value.obj
 0001:0001a770       ??8?$_Tree_const_iterator@V?$_Tree_val@U?$_Tree_simple_types@U?$pair@$$CBVCZString@Value@Json@@V23@@std@@@std@@@std@@@std@@QBE_NABV01@@Z 1001b770 f i json_vc71_libmtd:json_value.obj
 0001:0001a840       ??8?$_Tree_unchecked_const_iterator@V?$_Tree_val@U?$_Tree_simple_types@U?$pair@$$CBVCZString@Value@Json@@V23@@std@@@std@@@std@@U_Iterator_base0@2@@std@@QBE_NABV01@@Z 1001b840 f i json_vc71_libmtd:json_value.obj
 0001:0001a8a0       ??8?$_Vector_const_iterator@V?$_Vector_val@U?$_Simple_types@PBVPathArgument@Json@@@std@@@std@@@std@@QBE_NABV01@@Z 1001b8a0 f i json_vc71_libmtd:json_value.obj
 0001:0001a910       ??8?$_Vector_const_iterator@V?$_Vector_val@U?$_Simple_types@VPathArgument@Json@@@std@@@std@@@std@@QBE_NABV01@@Z 1001b910 f i json_vc71_libmtd:json_value.obj
 0001:0001a980       ??8CZString@Value@Json@@QBE_NABV012@@Z 1001b980 f   json_vc71_libmtd:json_value.obj
 0001:0001aa30       ??8Value@Json@@QBE_NABV01@@Z 1001ba30 f   json_vc71_libmtd:json_value.obj
 0001:0001ac70       ??9?$_Tree_const_iterator@V?$_Tree_val@U?$_Tree_simple_types@U?$pair@$$CBVCZString@Value@Json@@V23@@std@@@std@@@std@@@std@@QBE_NABV01@@Z 1001bc70 f i json_vc71_libmtd:json_value.obj
 0001:0001ace0       ??9?$_Tree_unchecked_const_iterator@V?$_Tree_val@U?$_Tree_simple_types@U?$pair@$$CBVCZString@Value@Json@@V23@@std@@@std@@@std@@U_Iterator_base0@2@@std@@QBE_NABV01@@Z 1001bce0 f i json_vc71_libmtd:json_value.obj
 0001:0001ad50       ??9?$_Vector_const_iterator@V?$_Vector_val@U?$_Simple_types@VPathArgument@Json@@@std@@@std@@@std@@QBE_NABV01@@Z 1001bd50 f i json_vc71_libmtd:json_value.obj
 0001:0001adc0       ??9Value@Json@@QBE_NABV01@@Z 1001bdc0 f   json_vc71_libmtd:json_value.obj
 0001:0001ae30       ??AValue@Json@@QAEAAV01@ABV?$basic_string@DU?$char_traits@D@std@@V?$allocator@D@2@@std@@@Z 1001be30 f   json_vc71_libmtd:json_value.obj
 0001:0001ae80       ??AValue@Json@@QAEAAV01@ABVStaticString@1@@Z 1001be80 f   json_vc71_libmtd:json_value.obj
 0001:0001aed0       ??AValue@Json@@QAEAAV01@I@Z 1001bed0 f   json_vc71_libmtd:json_value.obj
 0001:0001b1f0       ??AValue@Json@@QAEAAV01@PBD@Z 1001c1f0 f   json_vc71_libmtd:json_value.obj
 0001:0001b240       ??AValue@Json@@QBEABV01@ABV?$basic_string@DU?$char_traits@D@std@@V?$allocator@D@2@@std@@@Z 1001c240 f   json_vc71_libmtd:json_value.obj
 0001:0001b290       ??AValue@Json@@QBEABV01@I@Z 1001c290 f   json_vc71_libmtd:json_value.obj
 0001:0001b490       ??AValue@Json@@QBEABV01@PBD@Z 1001c490 f   json_vc71_libmtd:json_value.obj
 0001:0001b690       ??BStaticString@Json@@QBEPBDXZ 1001c690 f i json_vc71_libmtd:json_value.obj
 0001:0001b6c0       ??C?$_Tree_iterator@V?$_Tree_val@U?$_Tree_simple_types@U?$pair@$$CBVCZString@Value@Json@@V23@@std@@@std@@@std@@@std@@QBEPAU?$pair@$$CBVCZString@Value@Json@@V23@@1@XZ 1001c6c0 f i json_vc71_libmtd:json_value.obj
 0001:0001b710       ??D?$_Tree_const_iterator@V?$_Tree_val@U?$_Tree_simple_types@U?$pair@$$CBVCZString@Value@Json@@V23@@std@@@std@@@std@@@std@@QBEABU?$pair@$$CBVCZString@Value@Json@@V23@@1@XZ 1001c710 f i json_vc71_libmtd:json_value.obj
 0001:0001b810       ??D?$_Tree_iterator@V?$_Tree_val@U?$_Tree_simple_types@U?$pair@$$CBVCZString@Value@Json@@V23@@std@@@std@@@std@@@std@@QBEAAU?$pair@$$CBVCZString@Value@Json@@V23@@1@XZ 1001c810 f i json_vc71_libmtd:json_value.obj
 0001:0001b850       ??D?$_Tree_unchecked_const_iterator@V?$_Tree_val@U?$_Tree_simple_types@U?$pair@$$CBVCZString@Value@Json@@V23@@std@@@std@@@std@@U_Iterator_base0@2@@std@@QBEABU?$pair@$$CBVCZString@Value@Json@@V23@@1@XZ 1001c850 f i json_vc71_libmtd:json_value.obj
 0001:0001b890       ??D?$_Vector_const_iterator@V?$_Vector_val@U?$_Simple_types@PBVPathArgument@Json@@@std@@@std@@@std@@QBEABQBVPathArgument@Json@@XZ 1001c890 f i json_vc71_libmtd:json_value.obj
 0001:0001b990       ??D?$_Vector_const_iterator@V?$_Vector_val@U?$_Simple_types@VPathArgument@Json@@@std@@@std@@@std@@QBEABVPathArgument@Json@@XZ 1001c990 f i json_vc71_libmtd:json_value.obj
 0001:0001ba90       ??E?$_Tree_const_iterator@V?$_Tree_val@U?$_Tree_simple_types@U?$pair@$$CBVCZString@Value@Json@@V23@@std@@@std@@@std@@@std@@QAE?AV01@H@Z 1001ca90 f i json_vc71_libmtd:json_value.obj
 0001:0001bb80       ??E?$_Tree_const_iterator@V?$_Tree_val@U?$_Tree_simple_types@U?$pair@$$CBVCZString@Value@Json@@V23@@std@@@std@@@std@@@std@@QAEAAV01@XZ 1001cb80 f i json_vc71_libmtd:json_value.obj
 0001:0001bc80       ??E?$_Tree_iterator@V?$_Tree_val@U?$_Tree_simple_types@U?$pair@$$CBVCZString@Value@Json@@V23@@std@@@std@@@std@@@std@@QAEAAV01@XZ 1001cc80 f i json_vc71_libmtd:json_value.obj
 0001:0001bcd0       ??E?$_Tree_unchecked_const_iterator@V?$_Tree_val@U?$_Tree_simple_types@U?$pair@$$CBVCZString@Value@Json@@V23@@std@@@std@@@std@@U_Iterator_base0@2@@std@@QAEAAV01@XZ 1001ccd0 f i json_vc71_libmtd:json_value.obj
 0001:0001bd70       ??E?$_Tree_unchecked_const_iterator@V?$_Tree_val@U?$_Tree_simple_types@U?$pair@$$CBVCZString@Value@Json@@V23@@std@@@std@@@std@@U_Iterator_base12@2@@std@@QAEAAV01@XZ 1001cd70 f i json_vc71_libmtd:json_value.obj
 0001:0001be10       ??E?$_Vector_const_iterator@V?$_Vector_val@U?$_Simple_types@VPathArgument@Json@@@std@@@std@@@std@@QAEAAV01@XZ 1001ce10 f i json_vc71_libmtd:json_value.obj
 0001:0001bf10       ??F?$_Tree_const_iterator@V?$_Tree_val@U?$_Tree_simple_types@U?$pair@$$CBVCZString@Value@Json@@V23@@std@@@std@@@std@@@std@@QAEAAV01@XZ 1001cf10 f i json_vc71_libmtd:json_value.obj
 0001:0001c010       ??F?$_Tree_iterator@V?$_Tree_val@U?$_Tree_simple_types@U?$pair@$$CBVCZString@Value@Json@@V23@@std@@@std@@@std@@@std@@QAEAAV01@XZ 1001d010 f i json_vc71_libmtd:json_value.obj
 0001:0001c060       ??F?$_Tree_unchecked_const_iterator@V?$_Tree_val@U?$_Tree_simple_types@U?$pair@$$CBVCZString@Value@Json@@V23@@std@@@std@@@std@@U_Iterator_base12@2@@std@@QAEAAV01@XZ 1001d060 f i json_vc71_libmtd:json_value.obj
 0001:0001c130       ??MCZString@Value@Json@@QBE_NABV012@@Z 1001d130 f   json_vc71_libmtd:json_value.obj
 0001:0001c1e0       ??MValue@Json@@QBE_NABV01@@Z 1001d1e0 f   json_vc71_libmtd:json_value.obj
 0001:0001c440       ??NValue@Json@@QBE_NABV01@@Z 1001d440 f   json_vc71_libmtd:json_value.obj
 0001:0001c4b0       ??OValue@Json@@QBE_NABV01@@Z 1001d4b0 f   json_vc71_libmtd:json_value.obj
 0001:0001c500       ??PValue@Json@@QBE_NABV01@@Z 1001d500 f   json_vc71_libmtd:json_value.obj
 0001:0001c570       ??R<lambda_9366063389c5f42a00a5088cf24e69de>@@QBEXQADIQBD@Z 1001d570 f i json_vc71_libmtd:json_value.obj
 0001:0001c5e0       ??R?$less@VCZString@Value@Json@@@std@@QBE_NABVCZString@Value@Json@@0@Z 1001d5e0 f i json_vc71_libmtd:json_value.obj
 0001:0001c630       ??_ECommentInfo@Value@Json@@QAEPAXI@Z 1001d630 f i json_vc71_libmtd:json_value.obj
 0001:0001c700       ??_G?$map@VCZString@Value@Json@@V23@U?$less@VCZString@Value@Json@@@std@@V?$allocator@U?$pair@$$CBVCZString@Value@Json@@V23@@std@@@5@@std@@QAEPAXI@Z 1001d700 f i json_vc71_libmtd:json_value.obj
 0001:0001c760       ??_G?$pair@$$CBVCZString@Value@Json@@V23@@std@@QAEPAXI@Z 1001d760 f i json_vc71_libmtd:json_value.obj
 0001:0001c7c0       ??_GDefaultValueAllocator@Json@@UAEPAXI@Z 1001d7c0 f i json_vc71_libmtd:json_value.obj
 0001:0001c7c0       ??_EDefaultValueAllocator@Json@@UAEPAXI@Z 1001d7c0 f i json_vc71_libmtd:json_value.obj
 0001:0001c820       ??_GPathArgument@Json@@QAEPAXI@Z 1001d820 f i json_vc71_libmtd:json_value.obj
 0001:0001c880       ??_EValueAllocator@Json@@UAEPAXI@Z 1001d880 f i json_vc71_libmtd:json_value.obj
 0001:0001c880       ??_GValueAllocator@Json@@UAEPAXI@Z 1001d880 f i json_vc71_libmtd:json_value.obj
 0001:0001c8e0       ??_Eexception@std@@UAEPAXI@Z 1001d8e0 f i json_vc71_libmtd:json_value.obj
 0001:0001c8e0       ??_Gexception@std@@UAEPAXI@Z 1001d8e0 f i json_vc71_libmtd:json_value.obj
 0001:0001c940       ??_Gruntime_error@std@@UAEPAXI@Z 1001d940 f i json_vc71_libmtd:json_value.obj
 0001:0001c940       ??_Eruntime_error@std@@UAEPAXI@Z 1001d940 f i json_vc71_libmtd:json_value.obj
 0001:0001c9a0       ?_Adopt@_Iterator_base0@std@@QAEXPBX@Z 1001d9a0 f i json_vc71_libmtd:json_value.obj
 0001:0001c9d0       ?_Alloc_proxy@?$_Tree_comp_alloc@V?$_Tmap_traits@VCZString@Value@Json@@V23@U?$less@VCZString@Value@Json@@@std@@V?$allocator@U?$pair@$$CBVCZString@Value@Json@@V23@@std@@@5@$0A@@std@@@std@@QAEXXZ 1001d9d0 f i json_vc71_libmtd:json_value.obj
 0001:0001cac0       ?_Alloc_proxy@?$_Vector_alloc@U?$_Vec_base_types@PBVPathArgument@Json@@V?$allocator@PBVPathArgument@Json@@@std@@@std@@@std@@QAEXXZ 1001dac0 f i json_vc71_libmtd:json_value.obj
 0001:0001cbb0       ?_Alloc_proxy@?$_Vector_alloc@U?$_Vec_base_types@V?$basic_string@DU?$char_traits@D@std@@V?$allocator@D@2@@std@@V?$allocator@V?$basic_string@DU?$char_traits@D@std@@V?$allocator@D@2@@std@@@2@@std@@@std@@QAEXXZ 1001dbb0 f i json_vc71_libmtd:json_value.obj
 0001:0001cca0       ?_Alloc_proxy@?$_Vector_alloc@U?$_Vec_base_types@VPathArgument@Json@@V?$allocator@VPathArgument@Json@@@std@@@std@@@std@@QAEXXZ 1001dca0 f i json_vc71_libmtd:json_value.obj
 0001:0001cd90       ?_Assign_rv_contents_with_alloc_always_equal@?$basic_string@DU?$char_traits@D@std@@V?$allocator@D@2@@std@@QAEX$$QAV12@U?$integral_constant@_N$00@2@@Z 1001dd90 f i json_vc71_libmtd:json_value.obj
 0001:0001ce70       ?_Buyheadnode@?$_Tree_comp_alloc@V?$_Tmap_traits@VCZString@Value@Json@@V23@U?$less@VCZString@Value@Json@@@std@@V?$allocator@U?$pair@$$CBVCZString@Value@Json@@V23@@std@@@5@$0A@@std@@@std@@QAEPAU?$_Tree_node@U?$pair@$$CBVCZString@Value@Json@@V23@@std@@PAX@2@XZ 1001de70 f i json_vc71_libmtd:json_value.obj
 0001:0001cfc0       ?_Buynode0@?$_Tree_comp_alloc@V?$_Tmap_traits@VCZString@Value@Json@@V23@U?$less@VCZString@Value@Json@@@std@@V?$allocator@U?$pair@$$CBVCZString@Value@Json@@V23@@std@@@5@$0A@@std@@@std@@QAEPAU?$_Tree_node@U?$pair@$$CBVCZString@Value@Json@@V23@@std@@PAX@2@XZ 1001dfc0 f i json_vc71_libmtd:json_value.obj
 0001:0001d0f0       ?_Calculate_growth@?$vector@PBVPathArgument@Json@@V?$allocator@PBVPathArgument@Json@@@std@@@std@@ABEII@Z 1001e0f0 f i json_vc71_libmtd:json_value.obj
 0001:0001d170       ?_Calculate_growth@?$vector@V?$basic_string@DU?$char_traits@D@std@@V?$allocator@D@2@@std@@V?$allocator@V?$basic_string@DU?$char_traits@D@std@@V?$allocator@D@2@@std@@@2@@std@@ABEII@Z 1001e170 f i json_vc71_libmtd:json_value.obj
 0001:0001d1f0       ?_Calculate_growth@?$vector@VPathArgument@Json@@V?$allocator@VPathArgument@Json@@@std@@@std@@ABEII@Z 1001e1f0 f i json_vc71_libmtd:json_value.obj
 0001:0001d270       ?_Change_array@?$vector@PBVPathArgument@Json@@V?$allocator@PBVPathArgument@Json@@@std@@@std@@AAEXQAPBVPathArgument@Json@@II@Z 1001e270 f i json_vc71_libmtd:json_value.obj
 0001:0001d340       ?_Change_array@?$vector@V?$basic_string@DU?$char_traits@D@std@@V?$allocator@D@2@@std@@V?$allocator@V?$basic_string@DU?$char_traits@D@std@@V?$allocator@D@2@@std@@@2@@std@@AAEXQAV?$basic_string@DU?$char_traits@D@std@@V?$allocator@D@2@@2@II@Z 1001e340 f i json_vc71_libmtd:json_value.obj
 0001:0001d400       ?_Change_array@?$vector@VPathArgument@Json@@V?$allocator@VPathArgument@Json@@@std@@@std@@AAEXQAVPathArgument@Json@@II@Z 1001e400 f i json_vc71_libmtd:json_value.obj
 0001:0001d4c0       ?_Compare@?$_Tree@V?$_Tmap_traits@VCZString@Value@Json@@V23@U?$less@VCZString@Value@Json@@@std@@V?$allocator@U?$pair@$$CBVCZString@Value@Json@@V23@@std@@@5@$0A@@std@@@std@@IBE_NABVCZString@Value@Json@@0@Z 1001e4c0 f i json_vc71_libmtd:json_value.obj
 0001:0001d520       ?_Compat@?$_Vector_const_iterator@V?$_Vector_val@U?$_Simple_types@PBVPathArgument@Json@@@std@@@std@@@std@@QBEXABV12@@Z 1001e520 f i json_vc71_libmtd:json_value.obj
 0001:0001d5c0       ?_Compat@?$_Vector_const_iterator@V?$_Vector_val@U?$_Simple_types@VPathArgument@Json@@@std@@@std@@@std@@QBEXABV12@@Z 1001e5c0 f i json_vc71_libmtd:json_value.obj
 0001:0001d660       ?_Construct@?$_Tree_comp_alloc@V?$_Tmap_traits@VCZString@Value@Json@@V23@U?$less@VCZString@Value@Json@@@std@@V?$allocator@U?$pair@$$CBVCZString@Value@Json@@V23@@std@@@5@$0A@@std@@@std@@QAEXXZ 1001e660 f i json_vc71_libmtd:json_value.obj
 0001:0001d720       ?_Construct@?$basic_string@DU?$char_traits@D@std@@V?$allocator@D@2@@std@@QAEXQBD0Urandom_access_iterator_tag@2@@Z 1001e720 f i json_vc71_libmtd:json_value.obj
 0001:0001d780       ?_Construct_lv_contents@?$basic_string@DU?$char_traits@D@std@@V?$allocator@D@2@@std@@QAEXABV12@@Z 1001e780 f i json_vc71_libmtd:json_value.obj
 0001:0001d8f0       ?_Destroy@?$vector@PBVPathArgument@Json@@V?$allocator@PBVPathArgument@Json@@@std@@@std@@AAEXPAPBVPathArgument@Json@@0@Z 1001e8f0 f i json_vc71_libmtd:json_value.obj
 0001:0001d950       ?_Destroy@?$vector@VPathArgument@Json@@V?$allocator@VPathArgument@Json@@@std@@@std@@AAEXPAVPathArgument@Json@@0@Z 1001e950 f i json_vc71_libmtd:json_value.obj
 0001:0001d9b0       ?_Destroy_if_node@?$_Tree@V?$_Tmap_traits@VCZString@Value@Json@@V23@U?$less@VCZString@Value@Json@@@std@@V?$allocator@U?$pair@$$CBVCZString@Value@Json@@V23@@std@@@5@$0A@@std@@@std@@IAEXPAU?$_Tree_node@U?$pair@$$CBVCZString@Value@Json@@V23@@std@@PAX@2@@Z 1001e9b0 f i json_vc71_libmtd:json_value.obj
 0001:0001da20       ?_Erase@?$_Tree@V?$_Tmap_traits@VCZString@Value@Json@@V23@U?$less@VCZString@Value@Json@@@std@@V?$allocator@U?$pair@$$CBVCZString@Value@Json@@V23@@std@@@5@$0A@@std@@@std@@IAEXPAU?$_Tree_node@U?$pair@$$CBVCZString@Value@Json@@V23@@std@@PAX@2@@Z 1001ea20 f i json_vc71_libmtd:json_value.obj
 0001:0001dad0       ?_Extract@?$_Tree_val@U?$_Tree_simple_types@U?$pair@$$CBVCZString@Value@Json@@V23@@std@@@std@@@std@@QAEPAU?$_Tree_node@U?$pair@$$CBVCZString@Value@Json@@V23@@std@@PAX@2@V?$_Tree_const_iterator@V?$_Tree_val@U?$_Tree_simple_types@U?$pair@$$CBVCZString@Value@Json@@V23@@std@@@std@@@std@@@2@@Z 1001ead0 f i json_vc71_libmtd:json_value.obj
 0001:0001e000       ?_Free_proxy@?$_Tree_comp_alloc@V?$_Tmap_traits@VCZString@Value@Json@@V23@U?$less@VCZString@Value@Json@@@std@@V?$allocator@U?$pair@$$CBVCZString@Value@Json@@V23@@std@@@5@$0A@@std@@@std@@QAEXXZ 1001f000 f i json_vc71_libmtd:json_value.obj
 0001:0001e0d0       ?_Free_proxy@?$_Vector_alloc@U?$_Vec_base_types@PBVPathArgument@Json@@V?$allocator@PBVPathArgument@Json@@@std@@@std@@@std@@QAEXXZ 1001f0d0 f i json_vc71_libmtd:json_value.obj
 0001:0001e1a0       ?_Free_proxy@?$_Vector_alloc@U?$_Vec_base_types@VPathArgument@Json@@V?$allocator@VPathArgument@Json@@@std@@@std@@@std@@QAEXXZ 1001f1a0 f i json_vc71_libmtd:json_value.obj
 0001:0001e270       ?_Freeheadnode@?$_Tree_comp_alloc@V?$_Tmap_traits@VCZString@Value@Json@@V23@U?$less@VCZString@Value@Json@@@std@@V?$allocator@U?$pair@$$CBVCZString@Value@Json@@V23@@std@@@5@$0A@@std@@@std@@QAEXPAU?$_Tree_node@U?$pair@$$CBVCZString@Value@Json@@V23@@std@@PAX@2@@Z 1001f270 f i json_vc71_libmtd:json_value.obj
 0001:0001e2c0       ?_Freenode0@?$_Tree_comp_alloc@V?$_Tmap_traits@VCZString@Value@Json@@V23@U?$less@VCZString@Value@Json@@@std@@V?$allocator@U?$pair@$$CBVCZString@Value@Json@@V23@@std@@@5@$0A@@std@@@std@@QAEXPAU?$_Tree_node@U?$pair@$$CBVCZString@Value@Json@@V23@@std@@PAX@2@@Z 1001f2c0 f i json_vc71_libmtd:json_value.obj
 0001:0001e310       ?_Get_data@?$_Tree_comp_alloc@V?$_Tmap_traits@VCZString@Value@Json@@V23@U?$less@VCZString@Value@Json@@@std@@V?$allocator@U?$pair@$$CBVCZString@Value@Json@@V23@@std@@@5@$0A@@std@@@std@@QAEAAV?$_Tree_val@U?$_Tree_simple_types@U?$pair@$$CBVCZString@Value@Json@@V23@@std@@@std@@@2@XZ 1001f310 f i json_vc71_libmtd:json_value.obj
 0001:0001e360       ?_Get_data@?$_Tree_comp_alloc@V?$_Tmap_traits@VCZString@Value@Json@@V23@U?$less@VCZString@Value@Json@@@std@@V?$allocator@U?$pair@$$CBVCZString@Value@Json@@V23@@std@@@5@$0A@@std@@@std@@QBEABV?$_Tree_val@U?$_Tree_simple_types@U?$pair@$$CBVCZString@Value@Json@@V23@@std@@@std@@@2@XZ 1001f360 f i json_vc71_libmtd:json_value.obj
 0001:0001e3b0       ?_Get_data@?$_Vector_alloc@U?$_Vec_base_types@PBVPathArgument@Json@@V?$allocator@PBVPathArgument@Json@@@std@@@std@@@std@@QAEAAV?$_Vector_val@U?$_Simple_types@PBVPathArgument@Json@@@std@@@2@XZ 1001f3b0 f i json_vc71_libmtd:json_value.obj
 0001:0001e3f0       ?_Get_data@?$_Vector_alloc@U?$_Vec_base_types@PBVPathArgument@Json@@V?$allocator@PBVPathArgument@Json@@@std@@@std@@@std@@QBEABV?$_Vector_val@U?$_Simple_types@PBVPathArgument@Json@@@std@@@2@XZ 1001f3f0 f i json_vc71_libmtd:json_value.obj
 0001:0001e430       ?_Get_data@?$_Vector_alloc@U?$_Vec_base_types@VPathArgument@Json@@V?$allocator@VPathArgument@Json@@@std@@@std@@@std@@QAEAAV?$_Vector_val@U?$_Simple_types@VPathArgument@Json@@@std@@@2@XZ 1001f430 f i json_vc71_libmtd:json_value.obj
 0001:0001e470       ?_Get_data@?$_Vector_alloc@U?$_Vec_base_types@VPathArgument@Json@@V?$allocator@VPathArgument@Json@@@std@@@std@@@std@@QBEABV?$_Vector_val@U?$_Simple_types@VPathArgument@Json@@@std@@@2@XZ 1001f470 f i json_vc71_libmtd:json_value.obj
 0001:0001e4b0       ?_Get_first@?$_Compressed_pair@U?$less@VCZString@Value@Json@@@std@@V?$_Compressed_pair@V?$allocator@U?$_Tree_node@U?$pair@$$CBVCZString@Value@Json@@V23@@std@@PAX@std@@@std@@V?$_Tree_val@U?$_Tree_simple_types@U?$pair@$$CBVCZString@Value@Json@@V23@@std@@@std@@@2@$00@2@$00@std@@QAEAAU?$less@VCZString@Value@Json@@@2@XZ 1001f4b0 f i json_vc71_libmtd:json_value.obj
 0001:0001e4e0       ?_Get_first@?$_Compressed_pair@U?$less@VCZString@Value@Json@@@std@@V?$_Compressed_pair@V?$allocator@U?$_Tree_node@U?$pair@$$CBVCZString@Value@Json@@V23@@std@@PAX@std@@@std@@V?$_Tree_val@U?$_Tree_simple_types@U?$pair@$$CBVCZString@Value@Json@@V23@@std@@@std@@@2@$00@2@$00@std@@QBEABU?$less@VCZString@Value@Json@@@2@XZ 1001f4e0 f i json_vc71_libmtd:json_value.obj
 0001:0001e510       ?_Get_first@?$_Compressed_pair@V?$allocator@PBVPathArgument@Json@@@std@@V?$_Vector_val@U?$_Simple_types@PBVPathArgument@Json@@@std@@@2@$00@std@@QAEAAV?$allocator@PBVPathArgument@Json@@@2@XZ 1001f510 f i json_vc71_libmtd:json_value.obj
 0001:0001e540       ?_Get_first@?$_Compressed_pair@V?$allocator@PBVPathArgument@Json@@@std@@V?$_Vector_val@U?$_Simple_types@PBVPathArgument@Json@@@std@@@2@$00@std@@QBEABV?$allocator@PBVPathArgument@Json@@@2@XZ 1001f540 f i json_vc71_libmtd:json_value.obj
 0001:0001e570       ?_Get_first@?$_Compressed_pair@V?$allocator@U?$_Tree_node@U?$pair@$$CBVCZString@Value@Json@@V23@@std@@PAX@std@@@std@@V?$_Tree_val@U?$_Tree_simple_types@U?$pair@$$CBVCZString@Value@Json@@V23@@std@@@std@@@2@$00@std@@QAEAAV?$allocator@U?$_Tree_node@U?$pair@$$CBVCZString@Value@Json@@V23@@std@@PAX@std@@@2@XZ 1001f570 f i json_vc71_libmtd:json_value.obj
 0001:0001e5a0       ?_Get_first@?$_Compressed_pair@V?$allocator@U?$_Tree_node@U?$pair@$$CBVCZString@Value@Json@@V23@@std@@PAX@std@@@std@@V?$_Tree_val@U?$_Tree_simple_types@U?$pair@$$CBVCZString@Value@Json@@V23@@std@@@std@@@2@$00@std@@QBEABV?$allocator@U?$_Tree_node@U?$pair@$$CBVCZString@Value@Json@@V23@@std@@PAX@std@@@2@XZ 1001f5a0 f i json_vc71_libmtd:json_value.obj
 0001:0001e5d0       ?_Get_first@?$_Compressed_pair@V?$allocator@V?$basic_string@DU?$char_traits@D@std@@V?$allocator@D@2@@std@@@std@@V?$_Vector_val@U?$_Simple_types@V?$basic_string@DU?$char_traits@D@std@@V?$allocator@D@2@@std@@@std@@@2@$00@std@@QBEABV?$allocator@V?$basic_string@DU?$char_traits@D@std@@V?$allocator@D@2@@std@@@2@XZ 1001f5d0 f i json_vc71_libmtd:json_value.obj
 0001:0001e600       ?_Get_first@?$_Compressed_pair@V?$allocator@VPathArgument@Json@@@std@@V?$_Vector_val@U?$_Simple_types@VPathArgument@Json@@@std@@@2@$00@std@@QAEAAV?$allocator@VPathArgument@Json@@@2@XZ 1001f600 f i json_vc71_libmtd:json_value.obj
 0001:0001e630       ?_Get_first@?$_Compressed_pair@V?$allocator@VPathArgument@Json@@@std@@V?$_Vector_val@U?$_Simple_types@VPathArgument@Json@@@std@@@2@$00@std@@QBEABV?$allocator@VPathArgument@Json@@@2@XZ 1001f630 f i json_vc71_libmtd:json_value.obj
 0001:0001e660       ?_Get_second@?$_Compressed_pair@U?$less@VCZString@Value@Json@@@std@@V?$_Compressed_pair@V?$allocator@U?$_Tree_node@U?$pair@$$CBVCZString@Value@Json@@V23@@std@@PAX@std@@@std@@V?$_Tree_val@U?$_Tree_simple_types@U?$pair@$$CBVCZString@Value@Json@@V23@@std@@@std@@@2@$00@2@$00@std@@QAEAAV?$_Compressed_pair@V?$allocator@U?$_Tree_node@U?$pair@$$CBVCZString@Value@Json@@V23@@std@@PAX@std@@@std@@V?$_Tree_val@U?$_Tree_simple_types@U?$pair@$$CBVCZString@Value@Json@@V23@@std@@@std@@@2@$00@2@XZ 1001f660 f i json_vc71_libmtd:json_value.obj
 0001:0001e690       ?_Get_second@?$_Compressed_pair@U?$less@VCZString@Value@Json@@@std@@V?$_Compressed_pair@V?$allocator@U?$_Tree_node@U?$pair@$$CBVCZString@Value@Json@@V23@@std@@PAX@std@@@std@@V?$_Tree_val@U?$_Tree_simple_types@U?$pair@$$CBVCZString@Value@Json@@V23@@std@@@std@@@2@$00@2@$00@std@@QBEABV?$_Compressed_pair@V?$allocator@U?$_Tree_node@U?$pair@$$CBVCZString@Value@Json@@V23@@std@@PAX@std@@@std@@V?$_Tree_val@U?$_Tree_simple_types@U?$pair@$$CBVCZString@Value@Json@@V23@@std@@@std@@@2@$00@2@XZ 1001f690 f i json_vc71_libmtd:json_value.obj
 0001:0001e6c0       ?_Get_second@?$_Compressed_pair@V?$allocator@PBVPathArgument@Json@@@std@@V?$_Vector_val@U?$_Simple_types@PBVPathArgument@Json@@@std@@@2@$00@std@@QAEAAV?$_Vector_val@U?$_Simple_types@PBVPathArgument@Json@@@std@@@2@XZ 1001f6c0 f i json_vc71_libmtd:json_value.obj
 0001:0001e6f0       ?_Get_second@?$_Compressed_pair@V?$allocator@PBVPathArgument@Json@@@std@@V?$_Vector_val@U?$_Simple_types@PBVPathArgument@Json@@@std@@@2@$00@std@@QBEABV?$_Vector_val@U?$_Simple_types@PBVPathArgument@Json@@@std@@@2@XZ 1001f6f0 f i json_vc71_libmtd:json_value.obj
 0001:0001e720       ?_Get_second@?$_Compressed_pair@V?$allocator@U?$_Tree_node@U?$pair@$$CBVCZString@Value@Json@@V23@@std@@PAX@std@@@std@@V?$_Tree_val@U?$_Tree_simple_types@U?$pair@$$CBVCZString@Value@Json@@V23@@std@@@std@@@2@$00@std@@QAEAAV?$_Tree_val@U?$_Tree_simple_types@U?$pair@$$CBVCZString@Value@Json@@V23@@std@@@std@@@2@XZ 1001f720 f i json_vc71_libmtd:json_value.obj
 0001:0001e750       ?_Get_second@?$_Compressed_pair@V?$allocator@U?$_Tree_node@U?$pair@$$CBVCZString@Value@Json@@V23@@std@@PAX@std@@@std@@V?$_Tree_val@U?$_Tree_simple_types@U?$pair@$$CBVCZString@Value@Json@@V23@@std@@@std@@@2@$00@std@@QBEABV?$_Tree_val@U?$_Tree_simple_types@U?$pair@$$CBVCZString@Value@Json@@V23@@std@@@std@@@2@XZ 1001f750 f i json_vc71_libmtd:json_value.obj
 0001:0001e780       ?_Get_second@?$_Compressed_pair@V?$allocator@VPathArgument@Json@@@std@@V?$_Vector_val@U?$_Simple_types@VPathArgument@Json@@@std@@@2@$00@std@@QAEAAV?$_Vector_val@U?$_Simple_types@VPathArgument@Json@@@std@@@2@XZ 1001f780 f i json_vc71_libmtd:json_value.obj
 0001:0001e7b0       ?_Get_second@?$_Compressed_pair@V?$allocator@VPathArgument@Json@@@std@@V?$_Vector_val@U?$_Simple_types@VPathArgument@Json@@@std@@@2@$00@std@@QBEABV?$_Vector_val@U?$_Simple_types@VPathArgument@Json@@@std@@@2@XZ 1001f7b0 f i json_vc71_libmtd:json_value.obj
 0001:0001e7e0       ?_Getal@?$_Tree_comp_alloc@V?$_Tmap_traits@VCZString@Value@Json@@V23@U?$less@VCZString@Value@Json@@@std@@V?$allocator@U?$pair@$$CBVCZString@Value@Json@@V23@@std@@@5@$0A@@std@@@std@@QAEAAV?$allocator@U?$_Tree_node@U?$pair@$$CBVCZString@Value@Json@@V23@@std@@PAX@std@@@2@XZ 1001f7e0 f i json_vc71_libmtd:json_value.obj
 0001:0001e830       ?_Getal@?$_Tree_comp_alloc@V?$_Tmap_traits@VCZString@Value@Json@@V23@U?$less@VCZString@Value@Json@@@std@@V?$allocator@U?$pair@$$CBVCZString@Value@Json@@V23@@std@@@5@$0A@@std@@@std@@QBEABV?$allocator@U?$_Tree_node@U?$pair@$$CBVCZString@Value@Json@@V23@@std@@PAX@std@@@2@XZ 1001f830 f i json_vc71_libmtd:json_value.obj
 0001:0001e880       ?_Getal@?$_Vector_alloc@U?$_Vec_base_types@PBVPathArgument@Json@@V?$allocator@PBVPathArgument@Json@@@std@@@std@@@std@@QAEAAV?$allocator@PBVPathArgument@Json@@@2@XZ 1001f880 f i json_vc71_libmtd:json_value.obj
 0001:0001e8c0       ?_Getal@?$_Vector_alloc@U?$_Vec_base_types@PBVPathArgument@Json@@V?$allocator@PBVPathArgument@Json@@@std@@@std@@@std@@QBEABV?$allocator@PBVPathArgument@Json@@@2@XZ 1001f8c0 f i json_vc71_libmtd:json_value.obj
 0001:0001e900       ?_Getal@?$_Vector_alloc@U?$_Vec_base_types@V?$basic_string@DU?$char_traits@D@std@@V?$allocator@D@2@@std@@V?$allocator@V?$basic_string@DU?$char_traits@D@std@@V?$allocator@D@2@@std@@@2@@std@@@std@@QBEABV?$allocator@V?$basic_string@DU?$char_traits@D@std@@V?$allocator@D@2@@std@@@2@XZ 1001f900 f i json_vc71_libmtd:json_value.obj
 0001:0001e940       ?_Getal@?$_Vector_alloc@U?$_Vec_base_types@VPathArgument@Json@@V?$allocator@VPathArgument@Json@@@std@@@std@@@std@@QAEAAV?$allocator@VPathArgument@Json@@@2@XZ 1001f940 f i json_vc71_libmtd:json_value.obj
 0001:0001e980       ?_Getal@?$_Vector_alloc@U?$_Vec_base_types@VPathArgument@Json@@V?$allocator@VPathArgument@Json@@@std@@@std@@@std@@QBEABV?$allocator@VPathArgument@Json@@@2@XZ 1001f980 f i json_vc71_libmtd:json_value.obj
 0001:0001e9c0       ?_Getcomp@?$_Tree_comp_alloc@V?$_Tmap_traits@VCZString@Value@Json@@V23@U?$less@VCZString@Value@Json@@@std@@V?$allocator@U?$pair@$$CBVCZString@Value@Json@@V23@@std@@@5@$0A@@std@@@std@@QAEAAU?$less@VCZString@Value@Json@@@2@XZ 1001f9c0 f i json_vc71_libmtd:json_value.obj
 0001:0001ea00       ?_Getcomp@?$_Tree_comp_alloc@V?$_Tmap_traits@VCZString@Value@Json@@V23@U?$less@VCZString@Value@Json@@@std@@V?$allocator@U?$pair@$$CBVCZString@Value@Json@@V23@@std@@@5@$0A@@std@@@std@@QBEABU?$less@VCZString@Value@Json@@@2@XZ 1001fa00 f i json_vc71_libmtd:json_value.obj
 0001:0001ea40       ?_Getpfirst@?$_Tree_comp_alloc@V?$_Tmap_traits@VCZString@Value@Json@@V23@U?$less@VCZString@Value@Json@@@std@@V?$allocator@U?$pair@$$CBVCZString@Value@Json@@V23@@std@@@5@$0A@@std@@@std@@QBEPAPAU_Iterator_base12@2@XZ 1001fa40 f i json_vc71_libmtd:json_value.obj
 0001:0001ea90       ?_Getpfirst@?$_Vector_alloc@U?$_Vec_base_types@PBVPathArgument@Json@@V?$allocator@PBVPathArgument@Json@@@std@@@std@@@std@@QBEPAPAU_Iterator_base12@2@XZ 1001fa90 f i json_vc71_libmtd:json_value.obj
 0001:0001eae0       ?_Getpfirst@?$_Vector_alloc@U?$_Vec_base_types@V?$basic_string@DU?$char_traits@D@std@@V?$allocator@D@2@@std@@V?$allocator@V?$basic_string@DU?$char_traits@D@std@@V?$allocator@D@2@@std@@@2@@std@@@std@@QBEPAPAU_Iterator_base12@2@XZ 1001fae0 f i json_vc71_libmtd:json_value.obj
 0001:0001eb30       ?_Getpfirst@?$_Vector_alloc@U?$_Vec_base_types@VPathArgument@Json@@V?$allocator@VPathArgument@Json@@@std@@@std@@@std@@QBEPAPAU_Iterator_base12@2@XZ 1001fb30 f i json_vc71_libmtd:json_value.obj
 0001:0001eb80       ?_Has_unused_capacity@?$vector@PBVPathArgument@Json@@V?$allocator@PBVPathArgument@Json@@@std@@@std@@ABE_NXZ 1001fb80 f i json_vc71_libmtd:json_value.obj
 0001:0001ebf0       ?_Has_unused_capacity@?$vector@V?$basic_string@DU?$char_traits@D@std@@V?$allocator@D@2@@std@@V?$allocator@V?$basic_string@DU?$char_traits@D@std@@V?$allocator@D@2@@std@@@2@@std@@ABE_NXZ 1001fbf0 f i json_vc71_libmtd:json_value.obj
 0001:0001ec60       ?_Has_unused_capacity@?$vector@VPathArgument@Json@@V?$allocator@VPathArgument@Json@@@std@@@std@@ABE_NXZ 1001fc60 f i json_vc71_libmtd:json_value.obj
 0001:0001ecd0       ?_Key@?$_Tree@V?$_Tmap_traits@VCZString@Value@Json@@V23@U?$less@VCZString@Value@Json@@@std@@V?$allocator@U?$pair@$$CBVCZString@Value@Json@@V23@@std@@@5@$0A@@std@@@std@@IBEABVCZString@Value@Json@@PAU?$_Tree_node@U?$pair@$$CBVCZString@Value@Json@@V23@@std@@PAX@2@@Z 1001fcd0 f i json_vc71_libmtd:json_value.obj
 0001:0001ed20       ?_Kfn@?$_Tree@V?$_Tmap_traits@VCZString@Value@Json@@V23@U?$less@VCZString@Value@Json@@@std@@V?$allocator@U?$pair@$$CBVCZString@Value@Json@@V23@@std@@@5@$0A@@std@@@std@@IBEABVCZString@Value@Json@@ABU?$pair@$$CBVCZString@Value@Json@@V23@@2@@Z 1001fd20 f i json_vc71_libmtd:json_value.obj
 0001:0001ed70       ?_Lmost@?$_Tree_val@U?$_Tree_simple_types@U?$pair@$$CBVCZString@Value@Json@@V23@@std@@@std@@@std@@QBEAAPAU?$_Tree_node@U?$pair@$$CBVCZString@Value@Json@@V23@@std@@PAX@2@XZ 1001fd70 f i json_vc71_libmtd:json_value.obj
 0001:0001eda0       ?_Lrotate@?$_Tree_val@U?$_Tree_simple_types@U?$pair@$$CBVCZString@Value@Json@@V23@@std@@@std@@@std@@QAEXPAU?$_Tree_node@U?$pair@$$CBVCZString@Value@Json@@V23@@std@@PAX@2@@Z 1001fda0 f i json_vc71_libmtd:json_value.obj
 0001:0001ee60       ?_Max@?$_Tree_val@U?$_Tree_simple_types@U?$pair@$$CBVCZString@Value@Json@@V23@@std@@@std@@@std@@SAPAU?$_Tree_node@U?$pair@$$CBVCZString@Value@Json@@V23@@std@@PAX@2@PAU32@@Z 1001fe60 f i json_vc71_libmtd:json_value.obj
 0001:0001eeb0       ?_Min@?$_Tree_val@U?$_Tree_simple_types@U?$pair@$$CBVCZString@Value@Json@@V23@@std@@@std@@@std@@SAPAU?$_Tree_node@U?$pair@$$CBVCZString@Value@Json@@V23@@std@@PAX@2@PAU32@@Z 1001feb0 f i json_vc71_libmtd:json_value.obj
 0001:0001eef0       ?_Move_from@?$vector@V?$basic_string@DU?$char_traits@D@std@@V?$allocator@D@2@@std@@V?$allocator@V?$basic_string@DU?$char_traits@D@std@@V?$allocator@D@2@@std@@@2@@std@@AAEX$$QAV12@U?$integral_constant@_N$00@2@@Z 1001fef0 f i json_vc71_libmtd:json_value.obj
 0001:0001efd0       ?_Myend@?$_Vector_alloc@U?$_Vec_base_types@PBVPathArgument@Json@@V?$allocator@PBVPathArgument@Json@@@std@@@std@@@std@@QAEAAPAPBVPathArgument@Json@@XZ 1001ffd0 f i json_vc71_libmtd:json_value.obj
 0001:0001f020       ?_Myend@?$_Vector_alloc@U?$_Vec_base_types@PBVPathArgument@Json@@V?$allocator@PBVPathArgument@Json@@@std@@@std@@@std@@QBEABQAPBVPathArgument@Json@@XZ 10020020 f i json_vc71_libmtd:json_value.obj
 0001:0001f070       ?_Myend@?$_Vector_alloc@U?$_Vec_base_types@VPathArgument@Json@@V?$allocator@VPathArgument@Json@@@std@@@std@@@std@@QAEAAPAVPathArgument@Json@@XZ 10020070 f i json_vc71_libmtd:json_value.obj
 0001:0001f0c0       ?_Myend@?$_Vector_alloc@U?$_Vec_base_types@VPathArgument@Json@@V?$allocator@VPathArgument@Json@@@std@@@std@@@std@@QBEABQAVPathArgument@Json@@XZ 100200c0 f i json_vc71_libmtd:json_value.obj
 0001:0001f110       ?_Myfirst@?$_Vector_alloc@U?$_Vec_base_types@PBVPathArgument@Json@@V?$allocator@PBVPathArgument@Json@@@std@@@std@@@std@@QAEAAPAPBVPathArgument@Json@@XZ 10020110 f i json_vc71_libmtd:json_value.obj
 0001:0001f160       ?_Myfirst@?$_Vector_alloc@U?$_Vec_base_types@PBVPathArgument@Json@@V?$allocator@PBVPathArgument@Json@@@std@@@std@@@std@@QBEABQAPBVPathArgument@Json@@XZ 10020160 f i json_vc71_libmtd:json_value.obj
 0001:0001f1b0       ?_Myfirst@?$_Vector_alloc@U?$_Vec_base_types@VPathArgument@Json@@V?$allocator@VPathArgument@Json@@@std@@@std@@@std@@QAEAAPAVPathArgument@Json@@XZ 100201b0 f i json_vc71_libmtd:json_value.obj
 0001:0001f200       ?_Myfirst@?$_Vector_alloc@U?$_Vec_base_types@VPathArgument@Json@@V?$allocator@VPathArgument@Json@@@std@@@std@@@std@@QBEABQAVPathArgument@Json@@XZ 10020200 f i json_vc71_libmtd:json_value.obj
 0001:0001f250       ?_Mylast@?$_Vector_alloc@U?$_Vec_base_types@PBVPathArgument@Json@@V?$allocator@PBVPathArgument@Json@@@std@@@std@@@std@@QAEAAPAPBVPathArgument@Json@@XZ 10020250 f i json_vc71_libmtd:json_value.obj
 0001:0001f2a0       ?_Mylast@?$_Vector_alloc@U?$_Vec_base_types@PBVPathArgument@Json@@V?$allocator@PBVPathArgument@Json@@@std@@@std@@@std@@QBEABQAPBVPathArgument@Json@@XZ 100202a0 f i json_vc71_libmtd:json_value.obj
 0001:0001f2f0       ?_Mylast@?$_Vector_alloc@U?$_Vec_base_types@V?$basic_string@DU?$char_traits@D@std@@V?$allocator@D@2@@std@@V?$allocator@V?$basic_string@DU?$char_traits@D@std@@V?$allocator@D@2@@std@@@2@@std@@@std@@QBEABQAV?$basic_string@DU?$char_traits@D@std@@V?$allocator@D@2@@2@XZ 100202f0 f i json_vc71_libmtd:json_value.obj
 0001:0001f340       ?_Mylast@?$_Vector_alloc@U?$_Vec_base_types@VPathArgument@Json@@V?$allocator@VPathArgument@Json@@@std@@@std@@@std@@QAEAAPAVPathArgument@Json@@XZ 10020340 f i json_vc71_libmtd:json_value.obj
 0001:0001f390       ?_Mylast@?$_Vector_alloc@U?$_Vec_base_types@VPathArgument@Json@@V?$allocator@VPathArgument@Json@@@std@@@std@@@std@@QBEABQAVPathArgument@Json@@XZ 10020390 f i json_vc71_libmtd:json_value.obj
 0001:0001f3e0       ?_Myproxy@?$_Tree_comp_alloc@V?$_Tmap_traits@VCZString@Value@Json@@V23@U?$less@VCZString@Value@Json@@@std@@V?$allocator@U?$pair@$$CBVCZString@Value@Json@@V23@@std@@@5@$0A@@std@@@std@@QAEAAPAU_Container_proxy@2@XZ 100203e0 f i json_vc71_libmtd:json_value.obj
 0001:0001f420       ?_Myproxy@?$_Vector_alloc@U?$_Vec_base_types@PBVPathArgument@Json@@V?$allocator@PBVPathArgument@Json@@@std@@@std@@@std@@QAEAAPAU_Container_proxy@2@XZ 10020420 f i json_vc71_libmtd:json_value.obj
 0001:0001f460       ?_Myproxy@?$_Vector_alloc@U?$_Vec_base_types@VPathArgument@Json@@V?$allocator@VPathArgument@Json@@@std@@@std@@@std@@QAEAAPAU_Container_proxy@2@XZ 10020460 f i json_vc71_libmtd:json_value.obj
 0001:0001f4a0       ?_Orphan_all@?$_Tree_comp_alloc@V?$_Tmap_traits@VCZString@Value@Json@@V23@U?$less@VCZString@Value@Json@@@std@@V?$allocator@U?$pair@$$CBVCZString@Value@Json@@V23@@std@@@5@$0A@@std@@@std@@QAEXXZ 100204a0 f i json_vc71_libmtd:json_value.obj
 0001:0001f4f0       ?_Orphan_all@?$_Vector_alloc@U?$_Vec_base_types@PBVPathArgument@Json@@V?$allocator@PBVPathArgument@Json@@@std@@@std@@@std@@QAEXXZ 100204f0 f i json_vc71_libmtd:json_value.obj
 0001:0001f540       ?_Orphan_all@?$_Vector_alloc@U?$_Vec_base_types@VPathArgument@Json@@V?$allocator@VPathArgument@Json@@@std@@@std@@@std@@QAEXXZ 10020540 f i json_vc71_libmtd:json_value.obj
 0001:0001f590       ?_Orphan_ptr@?$_Tree@V?$_Tmap_traits@VCZString@Value@Json@@V23@U?$less@VCZString@Value@Json@@@std@@V?$allocator@U?$pair@$$CBVCZString@Value@Json@@V23@@std@@@5@$0A@@std@@@std@@IAEXPAU?$_Tree_node@U?$pair@$$CBVCZString@Value@Json@@V23@@std@@PAX@2@@Z 10020590 f i json_vc71_libmtd:json_value.obj
 0001:0001f6b0       ?_Orphan_range@?$vector@PBVPathArgument@Json@@V?$allocator@PBVPathArgument@Json@@@std@@@std@@ABEXPAPBVPathArgument@Json@@0@Z 100206b0 f i json_vc71_libmtd:json_value.obj
 0001:0001f7c0       ?_Orphan_range@?$vector@V?$basic_string@DU?$char_traits@D@std@@V?$allocator@D@2@@std@@V?$allocator@V?$basic_string@DU?$char_traits@D@std@@V?$allocator@D@2@@std@@@2@@std@@ABEXPAV?$basic_string@DU?$char_traits@D@std@@V?$allocator@D@2@@2@0@Z 100207c0 f i json_vc71_libmtd:json_value.obj
 0001:0001f8d0       ?_Orphan_range@?$vector@VPathArgument@Json@@V?$allocator@VPathArgument@Json@@@std@@@std@@ABEXPAVPathArgument@Json@@0@Z 100208d0 f i json_vc71_libmtd:json_value.obj
 0001:0001f9e0       ?_Reallocate_exactly@?$vector@V?$basic_string@DU?$char_traits@D@std@@V?$allocator@D@2@@std@@V?$allocator@V?$basic_string@DU?$char_traits@D@std@@V?$allocator@D@2@@std@@@2@@std@@AAEXI@Z 100209e0 f i json_vc71_libmtd:json_value.obj
 0001:0001fae0       ?_Release@?$_Uninitialized_backout_al@PAV?$basic_string@DU?$char_traits@D@std@@V?$allocator@D@2@@std@@V?$allocator@V?$basic_string@DU?$char_traits@D@std@@V?$allocator@D@2@@std@@@2@@std@@QAEPAV?$basic_string@DU?$char_traits@D@std@@V?$allocator@D@2@@2@XZ 10020ae0 f i json_vc71_libmtd:json_value.obj
 0001:0001fb20       ?_Release@?$_Uninitialized_backout_al@PAVPathArgument@Json@@V?$allocator@VPathArgument@Json@@@std@@@std@@QAEPAVPathArgument@Json@@XZ 10020b20 f i json_vc71_libmtd:json_value.obj
 0001:0001fb60       ?_Rmost@?$_Tree_val@U?$_Tree_simple_types@U?$pair@$$CBVCZString@Value@Json@@V23@@std@@@std@@@std@@QBEAAPAU?$_Tree_node@U?$pair@$$CBVCZString@Value@Json@@V23@@std@@PAX@2@XZ 10020b60 f i json_vc71_libmtd:json_value.obj
 0001:0001fba0       ?_Root@?$_Tree_val@U?$_Tree_simple_types@U?$pair@$$CBVCZString@Value@Json@@V23@@std@@@std@@@std@@QBEAAPAU?$_Tree_node@U?$pair@$$CBVCZString@Value@Json@@V23@@std@@PAX@2@XZ 10020ba0 f i json_vc71_libmtd:json_value.obj
 0001:0001fbe0       ?_Rrotate@?$_Tree_val@U?$_Tree_simple_types@U?$pair@$$CBVCZString@Value@Json@@V23@@std@@@std@@@std@@QAEXPAU?$_Tree_node@U?$pair@$$CBVCZString@Value@Json@@V23@@std@@PAX@2@@Z 10020be0 f i json_vc71_libmtd:json_value.obj
 0001:0001fca0       ?_Swap_all@?$_String_alloc@U?$_String_base_types@DV?$allocator@D@std@@@std@@@std@@QAEXAAV12@@Z 10020ca0 f i json_vc71_libmtd:json_value.obj
 0001:0001fd00       ?_Swap_all@?$_Vector_alloc@U?$_Vec_base_types@V?$basic_string@DU?$char_traits@D@std@@V?$allocator@D@2@@std@@V?$allocator@V?$basic_string@DU?$char_traits@D@std@@V?$allocator@D@2@@std@@@2@@std@@@std@@QAEXAAV12@@Z 10020d00 f i json_vc71_libmtd:json_value.obj
 0001:0001fd60       ?_Swap_all@_Container_base12@std@@QAEXAAU12@@Z 10020d60 f i json_vc71_libmtd:json_value.obj
 0001:0001fe40       ?_Tidy@?$_Tree@V?$_Tmap_traits@VCZString@Value@Json@@V23@U?$less@VCZString@Value@Json@@@std@@V?$allocator@U?$pair@$$CBVCZString@Value@Json@@V23@@std@@@5@$0A@@std@@@std@@IAEXXZ 10020e40 f i json_vc71_libmtd:json_value.obj
 0001:0001ff70       ?_Tidy@?$vector@PBVPathArgument@Json@@V?$allocator@PBVPathArgument@Json@@@std@@@std@@AAEXXZ 10020f70 f i json_vc71_libmtd:json_value.obj
 0001:00020030       ?_Tidy@?$vector@VPathArgument@Json@@V?$allocator@VPathArgument@Json@@@std@@@std@@AAEXXZ 10021030 f i json_vc71_libmtd:json_value.obj
 0001:000200f0       ?_Umove@?$vector@PBVPathArgument@Json@@V?$allocator@PBVPathArgument@Json@@@std@@@std@@AAEPAPBVPathArgument@Json@@PAPBV34@00@Z 100210f0 f i json_vc71_libmtd:json_value.obj
 0001:00020150       ?_Umove@?$vector@V?$basic_string@DU?$char_traits@D@std@@V?$allocator@D@2@@std@@V?$allocator@V?$basic_string@DU?$char_traits@D@std@@V?$allocator@D@2@@std@@@2@@std@@AAEPAV?$basic_string@DU?$char_traits@D@std@@V?$allocator@D@2@@2@PAV32@00@Z 10021150 f i json_vc71_libmtd:json_value.obj
 0001:000201b0       ?_Umove@?$vector@VPathArgument@Json@@V?$allocator@VPathArgument@Json@@@std@@@std@@AAEPAVPathArgument@Json@@PAV34@00@Z 100211b0 f i json_vc71_libmtd:json_value.obj
 0001:00020210       ?_Umove_if_noexcept1@?$vector@PBVPathArgument@Json@@V?$allocator@PBVPathArgument@Json@@@std@@@std@@AAEXPAPBVPathArgument@Json@@00U?$integral_constant@_N$00@2@@Z 10021210 f i json_vc71_libmtd:json_value.obj
 0001:00020270       ?_Umove_if_noexcept1@?$vector@V?$basic_string@DU?$char_traits@D@std@@V?$allocator@D@2@@std@@V?$allocator@V?$basic_string@DU?$char_traits@D@std@@V?$allocator@D@2@@std@@@2@@std@@AAEXPAV?$basic_string@DU?$char_traits@D@std@@V?$allocator@D@2@@2@00U?$integral_constant@_N$00@2@@Z 10021270 f i json_vc71_libmtd:json_value.obj
 0001:000202d0       ?_Umove_if_noexcept1@?$vector@VPathArgument@Json@@V?$allocator@VPathArgument@Json@@@std@@@std@@AAEXPAVPathArgument@Json@@00U?$integral_constant@_N$00@2@@Z 100212d0 f i json_vc71_libmtd:json_value.obj
 0001:00020330       ?_Umove_if_noexcept@?$vector@PBVPathArgument@Json@@V?$allocator@PBVPathArgument@Json@@@std@@@std@@AAEXPAPBVPathArgument@Json@@00@Z 10021330 f i json_vc71_libmtd:json_value.obj
 0001:00020390       ?_Umove_if_noexcept@?$vector@V?$basic_string@DU?$char_traits@D@std@@V?$allocator@D@2@@std@@V?$allocator@V?$basic_string@DU?$char_traits@D@std@@V?$allocator@D@2@@std@@@2@@std@@AAEXPAV?$basic_string@DU?$char_traits@D@std@@V?$allocator@D@2@@2@00@Z 10021390 f i json_vc71_libmtd:json_value.obj
 0001:000203f0       ?_Umove_if_noexcept@?$vector@VPathArgument@Json@@V?$allocator@VPathArgument@Json@@@std@@@std@@AAEXPAVPathArgument@Json@@00@Z 100213f0 f i json_vc71_libmtd:json_value.obj
 0001:00020450       ?_Unwrapped@?$_Tree_const_iterator@V?$_Tree_val@U?$_Tree_simple_types@U?$pair@$$CBVCZString@Value@Json@@V23@@std@@@std@@@std@@@std@@QBE?AV?$_Tree_unchecked_const_iterator@V?$_Tree_val@U?$_Tree_simple_types@U?$pair@$$CBVCZString@Value@Json@@V23@@std@@@std@@@std@@U_Iterator_base0@2@@2@XZ 10021450 f i json_vc71_libmtd:json_value.obj
 0001:000204b0       ?_Verify_range@std@@YAXABV?$_Tree_const_iterator@V?$_Tree_val@U?$_Tree_simple_types@U?$pair@$$CBVCZString@Value@Json@@V23@@std@@@std@@@std@@@1@0@Z 100214b0 f i json_vc71_libmtd:json_value.obj
 0001:00020550       ?_Xlength@?$vector@PBVPathArgument@Json@@V?$allocator@PBVPathArgument@Json@@@std@@@std@@CAXXZ 10021550 f i json_vc71_libmtd:json_value.obj
 0001:00020590       ?_Xlength@?$vector@V?$basic_string@DU?$char_traits@D@std@@V?$allocator@D@2@@std@@V?$allocator@V?$basic_string@DU?$char_traits@D@std@@V?$allocator@D@2@@std@@@2@@std@@CAXXZ 10021590 f i json_vc71_libmtd:json_value.obj
 0001:000205d0       ?_Xlength@?$vector@VPathArgument@Json@@V?$allocator@VPathArgument@Json@@@std@@@std@@CAXXZ 100215d0 f i json_vc71_libmtd:json_value.obj
 0001:00020610       ?addPathInArg@Path@Json@@AAEXABV?$basic_string@DU?$char_traits@D@std@@V?$allocator@D@2@@std@@ABV?$vector@PBVPathArgument@Json@@V?$allocator@PBVPathArgument@Json@@@std@@@4@AAV?$_Vector_const_iterator@V?$_Vector_val@U?$_Simple_types@PBVPathArgument@Json@@@std@@@std@@@4@W4Kind@PathArgument@2@@Z 10021610 f   json_vc71_libmtd:json_value.obj
 0001:00020700       ?allocate@?$allocator@PBVPathArgument@Json@@@std@@QAEPAPBVPathArgument@Json@@I@Z 10021700 f i json_vc71_libmtd:json_value.obj
 0001:00020750       ?allocate@?$allocator@U?$_Tree_node@U?$pair@$$CBVCZString@Value@Json@@V23@@std@@PAX@std@@@std@@QAEPAU?$_Tree_node@U?$pair@$$CBVCZString@Value@Json@@V23@@std@@PAX@2@I@Z 10021750 f i json_vc71_libmtd:json_value.obj
 0001:000207a0       ?allocate@?$allocator@V?$basic_string@DU?$char_traits@D@std@@V?$allocator@D@2@@std@@@std@@QAEPAV?$basic_string@DU?$char_traits@D@std@@V?$allocator@D@2@@2@I@Z 100217a0 f i json_vc71_libmtd:json_value.obj
 0001:000207f0       ?allocate@?$allocator@VPathArgument@Json@@@std@@QAEPAVPathArgument@Json@@I@Z 100217f0 f i json_vc71_libmtd:json_value.obj
 0001:00020840       ?append@Value@Json@@QAEAAV12@ABV12@@Z 10021840 f   json_vc71_libmtd:json_value.obj
 0001:000208a0       ?asBool@Value@Json@@QBE_NXZ 100218a0 f   json_vc71_libmtd:json_value.obj
 0001:00020a20       ?asCString@Value@Json@@QBEPBDXZ 10021a20 f   json_vc71_libmtd:json_value.obj
 0001:00020a90       ?asDouble@Value@Json@@QBENXZ 10021a90 f   json_vc71_libmtd:json_value.obj
 0001:00020bf0       ?asInt@Value@Json@@QBEHXZ  10021bf0 f   json_vc71_libmtd:json_value.obj
 0001:00020d80       ?asString@Value@Json@@QBE?AV?$basic_string@DU?$char_traits@D@std@@V?$allocator@D@2@@std@@XZ 10021d80 f   json_vc71_libmtd:json_value.obj
 0001:00020f30       ?asUInt@Value@Json@@QBEIXZ 10021f30 f   json_vc71_libmtd:json_value.obj
 0001:000210c0       ?begin@?$_Tree@V?$_Tmap_traits@VCZString@Value@Json@@V23@U?$less@VCZString@Value@Json@@@std@@V?$allocator@U?$pair@$$CBVCZString@Value@Json@@V23@@std@@@5@$0A@@std@@@std@@QAE?AV?$_Tree_iterator@V?$_Tree_val@U?$_Tree_simple_types@U?$pair@$$CBVCZString@Value@Json@@V23@@std@@@std@@@std@@@2@XZ 100220c0 f i json_vc71_libmtd:json_value.obj
 0001:00021160       ?begin@?$_Tree@V?$_Tmap_traits@VCZString@Value@Json@@V23@U?$less@VCZString@Value@Json@@@std@@V?$allocator@U?$pair@$$CBVCZString@Value@Json@@V23@@std@@@5@$0A@@std@@@std@@QBE?AV?$_Tree_const_iterator@V?$_Tree_val@U?$_Tree_simple_types@U?$pair@$$CBVCZString@Value@Json@@V23@@std@@@std@@@std@@@2@XZ 10022160 f i json_vc71_libmtd:json_value.obj
 0001:00021200       ?begin@?$vector@PBVPathArgument@Json@@V?$allocator@PBVPathArgument@Json@@@std@@@std@@QBE?AV?$_Vector_const_iterator@V?$_Vector_val@U?$_Simple_types@PBVPathArgument@Json@@@std@@@std@@@2@XZ 10022200 f i json_vc71_libmtd:json_value.obj
 0001:00021290       ?begin@?$vector@VPathArgument@Json@@V?$allocator@VPathArgument@Json@@@std@@@std@@QBE?AV?$_Vector_const_iterator@V?$_Vector_val@U?$_Simple_types@VPathArgument@Json@@@std@@@std@@@2@XZ 10022290 f i json_vc71_libmtd:json_value.obj
 0001:00021320       ?begin@Value@Json@@QAE?AVValueIterator@2@XZ 10022320 f   json_vc71_libmtd:json_value.obj
 0001:00021440       ?begin@Value@Json@@QBE?AVValueConstIterator@2@XZ 10022440 f   json_vc71_libmtd:json_value.obj
 0001:00021560       ?c_str@CZString@Value@Json@@QBEPBDXZ 10022560 f   json_vc71_libmtd:json_value.obj
 0001:00021590       ?c_str@StaticString@Json@@QBEPBDXZ 10022590 f i json_vc71_libmtd:json_value.obj
 0001:000215c0       ?capacity@?$vector@PBVPathArgument@Json@@V?$allocator@PBVPathArgument@Json@@@std@@@std@@QBEIXZ 100225c0 f i json_vc71_libmtd:json_value.obj
 0001:00021620       ?capacity@?$vector@VPathArgument@Json@@V?$allocator@VPathArgument@Json@@@std@@@std@@QBEIXZ 10022620 f i json_vc71_libmtd:json_value.obj
 0001:00021680       ?clear@?$_Tree@V?$_Tmap_traits@VCZString@Value@Json@@V23@U?$less@VCZString@Value@Json@@@std@@V?$allocator@U?$pair@$$CBVCZString@Value@Json@@V23@@std@@@5@$0A@@std@@@std@@QAEXXZ 10022680 f i json_vc71_libmtd:json_value.obj
 0001:00021750       ?clear@Value@Json@@QAEXXZ  10022750 f   json_vc71_libmtd:json_value.obj
 0001:00021810       ?compare@Value@Json@@QAEHABV12@@Z 10022810 f   json_vc71_libmtd:json_value.obj
 0001:00021840       ?computeDistance@ValueIteratorBase@Json@@IBEHABV12@@Z 10022840 f   json_vc71_libmtd:json_value.obj
 0001:00021940       ?copy@ValueIteratorBase@Json@@IAEXABV12@@Z 10022940 f   json_vc71_libmtd:json_value.obj
 0001:00021990       ?deallocate@?$_Default_allocator_traits@V?$allocator@U?$_Tree_node@U?$pair@$$CBVCZString@Value@Json@@V23@@std@@PAX@std@@@std@@@std@@SAXAAV?$allocator@U?$_Tree_node@U?$pair@$$CBVCZString@Value@Json@@V23@@std@@PAX@std@@@2@QAU?$_Tree_node@U?$pair@$$CBVCZString@Value@Json@@V23@@std@@PAX@2@I@Z 10022990 f i json_vc71_libmtd:json_value.obj
 0001:000219e0       ?deallocate@?$allocator@PBVPathArgument@Json@@@std@@QAEXQAPBVPathArgument@Json@@I@Z 100229e0 f i json_vc71_libmtd:json_value.obj
 0001:00021a30       ?deallocate@?$allocator@U?$_Tree_node@U?$pair@$$CBVCZString@Value@Json@@V23@@std@@PAX@std@@@std@@QAEXQAU?$_Tree_node@U?$pair@$$CBVCZString@Value@Json@@V23@@std@@PAX@2@I@Z 10022a30 f i json_vc71_libmtd:json_value.obj
 0001:00021a80       ?deallocate@?$allocator@VPathArgument@Json@@@std@@QAEXQAVPathArgument@Json@@I@Z 10022a80 f i json_vc71_libmtd:json_value.obj
 0001:00021ad0       ?decrement@ValueIteratorBase@Json@@IAEXXZ 10022ad0 f   json_vc71_libmtd:json_value.obj
 0001:00021b10       ?deref@ValueIteratorBase@Json@@IBEAAVValue@2@XZ 10022b10 f   json_vc71_libmtd:json_value.obj
 0001:00021b60       ?duplicateStringValue@DefaultValueAllocator@Json@@UAEPADPBDI@Z 10022b60 f i json_vc71_libmtd:json_value.obj
 0001:00021be0       ?empty@?$_Tree@V?$_Tmap_traits@VCZString@Value@Json@@V23@U?$less@VCZString@Value@Json@@@std@@V?$allocator@U?$pair@$$CBVCZString@Value@Json@@V23@@std@@@5@$0A@@std@@@std@@QBE_NXZ 10022be0 f i json_vc71_libmtd:json_value.obj
 0001:00021c40       ?empty@Value@Json@@QBE_NXZ 10022c40 f   json_vc71_libmtd:json_value.obj
 0001:00021ce0       ?end@?$_Tree@V?$_Tmap_traits@VCZString@Value@Json@@V23@U?$less@VCZString@Value@Json@@@std@@V?$allocator@U?$pair@$$CBVCZString@Value@Json@@V23@@std@@@5@$0A@@std@@@std@@QAE?AV?$_Tree_iterator@V?$_Tree_val@U?$_Tree_simple_types@U?$pair@$$CBVCZString@Value@Json@@V23@@std@@@std@@@std@@@2@XZ 10022ce0 f i json_vc71_libmtd:json_value.obj
 0001:00021d70       ?end@?$_Tree@V?$_Tmap_traits@VCZString@Value@Json@@V23@U?$less@VCZString@Value@Json@@@std@@V?$allocator@U?$pair@$$CBVCZString@Value@Json@@V23@@std@@@5@$0A@@std@@@std@@QBE?AV?$_Tree_const_iterator@V?$_Tree_val@U?$_Tree_simple_types@U?$pair@$$CBVCZString@Value@Json@@V23@@std@@@std@@@std@@@2@XZ 10022d70 f i json_vc71_libmtd:json_value.obj
 0001:00021e00       ?end@?$vector@PBVPathArgument@Json@@V?$allocator@PBVPathArgument@Json@@@std@@@std@@QBE?AV?$_Vector_const_iterator@V?$_Vector_val@U?$_Simple_types@PBVPathArgument@Json@@@std@@@std@@@2@XZ 10022e00 f i json_vc71_libmtd:json_value.obj
 0001:00021e90       ?end@?$vector@VPathArgument@Json@@V?$allocator@VPathArgument@Json@@@std@@@std@@QBE?AV?$_Vector_const_iterator@V?$_Vector_val@U?$_Simple_types@VPathArgument@Json@@@std@@@std@@@2@XZ 10022e90 f i json_vc71_libmtd:json_value.obj
 0001:00021f20       ?end@Value@Json@@QAE?AVValueIterator@2@XZ 10022f20 f   json_vc71_libmtd:json_value.obj
 0001:00022040       ?end@Value@Json@@QBE?AVValueConstIterator@2@XZ 10023040 f   json_vc71_libmtd:json_value.obj
 0001:00022160       ?equal_range@?$_Tree@V?$_Tmap_traits@VCZString@Value@Json@@V23@U?$less@VCZString@Value@Json@@@std@@V?$allocator@U?$pair@$$CBVCZString@Value@Json@@V23@@std@@@5@$0A@@std@@@std@@QAE?AU?$pair@V?$_Tree_iterator@V?$_Tree_val@U?$_Tree_simple_types@U?$pair@$$CBVCZString@Value@Json@@V23@@std@@@std@@@std@@@std@@V12@@2@ABVCZString@Value@Json@@@Z 10023160 f i json_vc71_libmtd:json_value.obj
 0001:000221d0       ?erase@?$_Tree@V?$_Tmap_traits@VCZString@Value@Json@@V23@U?$less@VCZString@Value@Json@@@std@@V?$allocator@U?$pair@$$CBVCZString@Value@Json@@V23@@std@@@5@$0A@@std@@@std@@QAE?AV?$_Tree_iterator@V?$_Tree_val@U?$_Tree_simple_types@U?$pair@$$CBVCZString@Value@Json@@V23@@std@@@std@@@std@@@2@V?$_Tree_const_iterator@V?$_Tree_val@U?$_Tree_simple_types@U?$pair@$$CBVCZString@Value@Json@@V23@@std@@@std@@@std@@@2@0@Z 100231d0 f i json_vc71_libmtd:json_value.obj
 0001:00022450       ?erase@?$_Tree@V?$_Tmap_traits@VCZString@Value@Json@@V23@U?$less@VCZString@Value@Json@@@std@@V?$allocator@U?$pair@$$CBVCZString@Value@Json@@V23@@std@@@5@$0A@@std@@@std@@QAE?AV?$_Tree_iterator@V?$_Tree_val@U?$_Tree_simple_types@U?$pair@$$CBVCZString@Value@Json@@V23@@std@@@std@@@std@@@2@V?$_Tree_const_iterator@V?$_Tree_val@U?$_Tree_simple_types@U?$pair@$$CBVCZString@Value@Json@@V23@@std@@@std@@@std@@@2@@Z 10023450 f i json_vc71_libmtd:json_value.obj
 0001:00022640       ?erase@?$_Tree@V?$_Tmap_traits@VCZString@Value@Json@@V23@U?$less@VCZString@Value@Json@@@std@@V?$allocator@U?$pair@$$CBVCZString@Value@Json@@V23@@std@@@5@$0A@@std@@@std@@QAEIABVCZString@Value@Json@@@Z 10023640 f i json_vc71_libmtd:json_value.obj
 0001:00022790       ?find@?$_Tree@V?$_Tmap_traits@VCZString@Value@Json@@V23@U?$less@VCZString@Value@Json@@@std@@V?$allocator@U?$pair@$$CBVCZString@Value@Json@@V23@@std@@@5@$0A@@std@@@std@@QAE?AV?$_Tree_iterator@V?$_Tree_val@U?$_Tree_simple_types@U?$pair@$$CBVCZString@Value@Json@@V23@@std@@@std@@@std@@@2@ABVCZString@Value@Json@@@Z 10023790 f i json_vc71_libmtd:json_value.obj
 0001:000229b0       ?get@Value@Json@@QBE?AV12@ABV?$basic_string@DU?$char_traits@D@std@@V?$allocator@D@2@@std@@ABV12@@Z 100239b0 f   json_vc71_libmtd:json_value.obj
 0001:00022a20       ?get@Value@Json@@QBE?AV12@IABV12@@Z 10023a20 f   json_vc71_libmtd:json_value.obj
 0001:00022ac0       ?get@Value@Json@@QBE?AV12@PBDABV12@@Z 10023ac0 f   json_vc71_libmtd:json_value.obj
 0001:00022b60       ?getComment@Value@Json@@QBE?AV?$basic_string@DU?$char_traits@D@std@@V?$allocator@D@2@@std@@W4CommentPlacement@2@@Z 10023b60 f   json_vc71_libmtd:json_value.obj
 0001:00022c00       ?getMemberNames@Value@Json@@QBE?AV?$vector@V?$basic_string@DU?$char_traits@D@std@@V?$allocator@D@2@@std@@V?$allocator@V?$basic_string@DU?$char_traits@D@std@@V?$allocator@D@2@@std@@@2@@std@@XZ 10023c00 f   json_vc71_libmtd:json_value.obj
 0001:00022e80       ?hasComment@Value@Json@@QBE_NW4CommentPlacement@2@@Z 10023e80 f   json_vc71_libmtd:json_value.obj
 0001:00022ee0       ?increment@ValueIteratorBase@Json@@IAEXXZ 10023ee0 f   json_vc71_libmtd:json_value.obj
 0001:00022f20       ?index@CZString@Value@Json@@QBEHXZ 10023f20 f   json_vc71_libmtd:json_value.obj
 0001:00022f50       ?index@ValueIteratorBase@Json@@QBEIXZ 10023f50 f   json_vc71_libmtd:json_value.obj
 0001:00023050       ?invalidPath@Path@Json@@AAEXABV?$basic_string@DU?$char_traits@D@std@@V?$allocator@D@2@@std@@H@Z 10024050 f   json_vc71_libmtd:json_value.obj
 0001:00023080       ?isArray@Value@Json@@QBE_NXZ 10024080 f   json_vc71_libmtd:json_value.obj
 0001:000230f0       ?isBool@Value@Json@@QBE_NXZ 100240f0 f   json_vc71_libmtd:json_value.obj
 0001:00023150       ?isConvertibleTo@Value@Json@@QBE_NW4ValueType@2@@Z 10024150 f   json_vc71_libmtd:json_value.obj
 0001:00023460       ?isDouble@Value@Json@@QBE_NXZ 10024460 f   json_vc71_libmtd:json_value.obj
 0001:000234c0       ?isEqual@ValueIteratorBase@Json@@IBE_NABV12@@Z 100244c0 f   json_vc71_libmtd:json_value.obj
 0001:00023520       ?isInt@Value@Json@@QBE_NXZ 10024520 f   json_vc71_libmtd:json_value.obj
 0001:00023580       ?isIntegral@Value@Json@@QBE_NXZ 10024580 f   json_vc71_libmtd:json_value.obj
 0001:00023600       ?isMember@Value@Json@@QBE_NABV?$basic_string@DU?$char_traits@D@std@@V?$allocator@D@2@@std@@@Z 10024600 f   json_vc71_libmtd:json_value.obj
 0001:00023650       ?isMember@Value@Json@@QBE_NPBD@Z 10024650 f   json_vc71_libmtd:json_value.obj
 0001:000236c0       ?isNull@Value@Json@@QBE_NXZ 100246c0 f   json_vc71_libmtd:json_value.obj
 0001:00023720       ?isNumeric@Value@Json@@QBE_NXZ 10024720 f   json_vc71_libmtd:json_value.obj
 0001:000237a0       ?isObject@Value@Json@@QBE_NXZ 100247a0 f   json_vc71_libmtd:json_value.obj
 0001:00023810       ?isStaticString@CZString@Value@Json@@QBE_NXZ 10024810 f   json_vc71_libmtd:json_value.obj
 0001:00023860       ?isString@Value@Json@@QBE_NXZ 10024860 f   json_vc71_libmtd:json_value.obj
 0001:000238c0       ?isUInt@Value@Json@@QBE_NXZ 100248c0 f   json_vc71_libmtd:json_value.obj
 0001:00023920       ?isValidIndex@Value@Json@@QBE_NI@Z 10024920 f   json_vc71_libmtd:json_value.obj
 0001:00023990       ?key@ValueIteratorBase@Json@@QBE?AVValue@2@XZ 10024990 f   json_vc71_libmtd:json_value.obj
 0001:00023b10       ?key_comp@?$_Tree@V?$_Tmap_traits@VCZString@Value@Json@@V23@U?$less@VCZString@Value@Json@@@std@@V?$allocator@U?$pair@$$CBVCZString@Value@Json@@V23@@std@@@5@$0A@@std@@@std@@QBE?AU?$less@VCZString@Value@Json@@@2@XZ 10024b10 f i json_vc71_libmtd:json_value.obj
 0001:00023b60       ?length@?$basic_string@DU?$char_traits@D@std@@V?$allocator@D@2@@std@@QBEIXZ 10024b60 f i json_vc71_libmtd:json_value.obj
 0001:00023bb0       ?lower_bound@?$_Tree@V?$_Tmap_traits@VCZString@Value@Json@@V23@U?$less@VCZString@Value@Json@@@std@@V?$allocator@U?$pair@$$CBVCZString@Value@Json@@V23@@std@@@5@$0A@@std@@@std@@QAE?AV?$_Tree_iterator@V?$_Tree_val@U?$_Tree_simple_types@U?$pair@$$CBVCZString@Value@Json@@V23@@std@@@std@@@std@@@2@ABVCZString@Value@Json@@@Z 10024bb0 f i json_vc71_libmtd:json_value.obj
 0001:00023c30       ?make@Path@Json@@QBEAAVValue@2@AAV32@@Z 10024c30 f   json_vc71_libmtd:json_value.obj
 0001:00023da0       ?makeMemberName@DefaultValueAllocator@Json@@UAEPADPBD@Z 10024da0 f i json_vc71_libmtd:json_value.obj
 0001:00023e00       ?makePath@Path@Json@@AAEXABV?$basic_string@DU?$char_traits@D@std@@V?$allocator@D@2@@std@@ABV?$vector@PBVPathArgument@Json@@V?$allocator@PBVPathArgument@Json@@@std@@@4@@Z 10024e00 f   json_vc71_libmtd:json_value.obj
 0001:000240f0       ?max_size@?$_Default_allocator_traits@V?$allocator@PBVPathArgument@Json@@@std@@@std@@SAIABV?$allocator@PBVPathArgument@Json@@@2@@Z 100250f0 f i json_vc71_libmtd:json_value.obj
 0001:00024120       ?max_size@?$_Default_allocator_traits@V?$allocator@U?$_Tree_node@U?$pair@$$CBVCZString@Value@Json@@V23@@std@@PAX@std@@@std@@@std@@SAIABV?$allocator@U?$_Tree_node@U?$pair@$$CBVCZString@Value@Json@@V23@@std@@PAX@std@@@2@@Z 10025120 f i json_vc71_libmtd:json_value.obj
 0001:00024150       ?max_size@?$_Default_allocator_traits@V?$allocator@V?$basic_string@DU?$char_traits@D@std@@V?$allocator@D@2@@std@@@std@@@std@@SAIABV?$allocator@V?$basic_string@DU?$char_traits@D@std@@V?$allocator@D@2@@std@@@2@@Z 10025150 f i json_vc71_libmtd:json_value.obj
 0001:00024180       ?max_size@?$_Default_allocator_traits@V?$allocator@VPathArgument@Json@@@std@@@std@@SAIABV?$allocator@VPathArgument@Json@@@2@@Z 10025180 f i json_vc71_libmtd:json_value.obj
 0001:000241b0       ?max_size@?$_Tree@V?$_Tmap_traits@VCZString@Value@Json@@V23@U?$less@VCZString@Value@Json@@@std@@V?$allocator@U?$pair@$$CBVCZString@Value@Json@@V23@@std@@@5@$0A@@std@@@std@@QBEIXZ 100251b0 f i json_vc71_libmtd:json_value.obj
 0001:00024200       ?max_size@?$vector@PBVPathArgument@Json@@V?$allocator@PBVPathArgument@Json@@@std@@@std@@QBEIXZ 10025200 f i json_vc71_libmtd:json_value.obj
 0001:00024280       ?max_size@?$vector@V?$basic_string@DU?$char_traits@D@std@@V?$allocator@D@2@@std@@V?$allocator@V?$basic_string@DU?$char_traits@D@std@@V?$allocator@D@2@@std@@@2@@std@@QBEIXZ 10025280 f i json_vc71_libmtd:json_value.obj
 0001:00024300       ?max_size@?$vector@VPathArgument@Json@@V?$allocator@VPathArgument@Json@@@std@@@std@@QBEIXZ 10025300 f i json_vc71_libmtd:json_value.obj
 0001:00024380       ?memberName@ValueIteratorBase@Json@@QBEPBDXZ 10025380 f   json_vc71_libmtd:json_value.obj
 0001:000243f0       ?pointer_to@?$pointer_traits@PAU?$pair@$$CBVCZString@Value@Json@@V23@@std@@@std@@SAPAU?$pair@$$CBVCZString@Value@Json@@V23@@2@AAU32@@Z 100253f0 f i json_vc71_libmtd:json_value.obj
 0001:00024430       ?push_back@?$vector@PBVPathArgument@Json@@V?$allocator@PBVPathArgument@Json@@@std@@@std@@QAEX$$QAPBVPathArgument@Json@@@Z 10025430 f i json_vc71_libmtd:json_value.obj
 0001:00024480       ?push_back@?$vector@V?$basic_string@DU?$char_traits@D@std@@V?$allocator@D@2@@std@@V?$allocator@V?$basic_string@DU?$char_traits@D@std@@V?$allocator@D@2@@std@@@2@@std@@QAEX$$QAV?$basic_string@DU?$char_traits@D@std@@V?$allocator@D@2@@2@@Z 10025480 f i json_vc71_libmtd:json_value.obj
 0001:000244d0       ?push_back@?$vector@VPathArgument@Json@@V?$allocator@VPathArgument@Json@@@std@@@std@@QAEX$$QAVPathArgument@Json@@@Z 100254d0 f i json_vc71_libmtd:json_value.obj
 0001:00024520       ?push_back@?$vector@VPathArgument@Json@@V?$allocator@VPathArgument@Json@@@std@@@std@@QAEXABVPathArgument@Json@@@Z 10025520 f i json_vc71_libmtd:json_value.obj
 0001:00024570       ?releaseMemberName@DefaultValueAllocator@Json@@UAEXPAD@Z 10025570 f i json_vc71_libmtd:json_value.obj
 0001:000245d0       ?releaseStringValue@DefaultValueAllocator@Json@@UAEXPAD@Z 100255d0 f i json_vc71_libmtd:json_value.obj
 0001:00024620       ?removeMember@Value@Json@@QAE?AV12@ABV?$basic_string@DU?$char_traits@D@std@@V?$allocator@D@2@@std@@@Z 10025620 f   json_vc71_libmtd:json_value.obj
 0001:00024690       ?removeMember@Value@Json@@QAE?AV12@PBD@Z 10025690 f   json_vc71_libmtd:json_value.obj
 0001:00024920       ?reserve@?$vector@V?$basic_string@DU?$char_traits@D@std@@V?$allocator@D@2@@std@@V?$allocator@V?$basic_string@DU?$char_traits@D@std@@V?$allocator@D@2@@std@@@2@@std@@QAEXI@Z 10025920 f i json_vc71_libmtd:json_value.obj
 0001:00024990       ?resize@Value@Json@@QAEXI@Z 10025990 f   json_vc71_libmtd:json_value.obj
 0001:00024b40       ?resolve@Path@Json@@QBE?AVValue@2@ABV32@0@Z 10025b40 f   json_vc71_libmtd:json_value.obj
 0001:00024da0       ?resolve@Path@Json@@QBEABVValue@2@ABV32@@Z 10025da0 f   json_vc71_libmtd:json_value.obj
 0001:00024f20       ?resolveReference@Value@Json@@AAEAAV12@PBD_N@Z 10025f20 f   json_vc71_libmtd:json_value.obj
 0001:00025270       ?select_on_container_copy_construction@?$_Default_allocator_traits@V?$allocator@D@std@@@std@@SA?AV?$allocator@D@2@ABV32@@Z 10026270 f i json_vc71_libmtd:json_value.obj
 0001:000252a0       ?select_on_container_copy_construction@?$_Default_allocator_traits@V?$allocator@U?$_Tree_node@U?$pair@$$CBVCZString@Value@Json@@V23@@std@@PAX@std@@@std@@@std@@SA?AV?$allocator@U?$_Tree_node@U?$pair@$$CBVCZString@Value@Json@@V23@@std@@PAX@std@@@2@ABV32@@Z 100262a0 f i json_vc71_libmtd:json_value.obj
 0001:000252d0       ?setComment@CommentInfo@Value@Json@@QAEXPBD@Z 100262d0 f   json_vc71_libmtd:json_value.obj
 0001:000253e0       ?setComment@Value@Json@@QAEXABV?$basic_string@DU?$char_traits@D@std@@V?$allocator@D@2@@std@@W4CommentPlacement@2@@Z 100263e0 f   json_vc71_libmtd:json_value.obj
 0001:00025430       ?setComment@Value@Json@@QAEXPBDW4CommentPlacement@2@@Z 10026430 f   json_vc71_libmtd:json_value.obj
 0001:00025540       ?size@?$_Tree@V?$_Tmap_traits@VCZString@Value@Json@@V23@U?$less@VCZString@Value@Json@@@std@@V?$allocator@U?$pair@$$CBVCZString@Value@Json@@V23@@std@@@5@$0A@@std@@@std@@QBEIXZ 10026540 f i json_vc71_libmtd:json_value.obj
 0001:00025590       ?size@?$vector@PBVPathArgument@Json@@V?$allocator@PBVPathArgument@Json@@@std@@@std@@QBEIXZ 10026590 f i json_vc71_libmtd:json_value.obj
 0001:000255f0       ?size@?$vector@V?$basic_string@DU?$char_traits@D@std@@V?$allocator@D@2@@std@@V?$allocator@V?$basic_string@DU?$char_traits@D@std@@V?$allocator@D@2@@std@@@2@@std@@QBEIXZ 100265f0 f i json_vc71_libmtd:json_value.obj
 0001:00025650       ?size@?$vector@VPathArgument@Json@@V?$allocator@VPathArgument@Json@@@std@@@std@@QBEIXZ 10026650 f i json_vc71_libmtd:json_value.obj
 0001:000256b0       ?size@Value@Json@@QBEIXZ   100266b0 f   json_vc71_libmtd:json_value.obj
 0001:00025850       ?swap@CZString@Value@Json@@AAEXAAV123@@Z 10026850 f   json_vc71_libmtd:json_value.obj
 0001:000258b0       ?swap@Value@Json@@QAEXAAV12@@Z 100268b0 f   json_vc71_libmtd:json_value.obj
 0001:000259a0       ?toStyledString@Value@Json@@QBE?AV?$basic_string@DU?$char_traits@D@std@@V?$allocator@D@2@@std@@XZ 100269a0 f   json_vc71_libmtd:json_value.obj
 0001:00025a90       ?type@Value@Json@@QBE?AW4ValueType@2@XZ 10026a90 f   json_vc71_libmtd:json_value.obj
 0001:00025b60       ?what@exception@std@@UBEPBDXZ 10026b60 f i json_vc71_libmtd:json_value.obj
 0001:00025bc0       ??$?0$$V@?$_Compressed_pair@V?$allocator@PAVValue@Json@@@std@@V?$_Deque_val@U?$_Deque_simple_types@PAVValue@Json@@@std@@@2@$00@std@@QAE@U_Zero_then_variadic_args_t@1@@Z 10026bc0 f i json_vc71_libmtd:json_reader.obj
 0001:00025c10       ??$?0$$V@?$_Compressed_pair@V?$allocator@VErrorInfo@Reader@Json@@@std@@V?$_Deque_val@U?$_Deque_simple_types@VErrorInfo@Reader@Json@@@std@@@2@$00@std@@QAE@U_Zero_then_variadic_args_t@1@@Z 10026c10 f i json_vc71_libmtd:json_reader.obj
 0001:00025c60       ??$?0AAPAV_Facet_base@std@@@?$_Compressed_pair@U?$default_delete@V_Facet_base@std@@@std@@PAV_Facet_base@2@$00@std@@QAE@U_Zero_then_variadic_args_t@1@AAPAV_Facet_base@1@@Z 10026c60 f i json_vc71_libmtd:json_reader.obj
 0001:00025cb0       ??$?0PAV_Facet_base@std@@@?$_Unique_ptr_base@V_Facet_base@std@@U?$default_delete@V_Facet_base@std@@@2@@std@@QAE@PAV_Facet_base@1@@Z 10026cb0 f i json_vc71_libmtd:json_reader.obj
 0001:00025d00       ??$?0U?$default_delete@V_Facet_base@std@@@std@@$0A@@?$unique_ptr@V_Facet_base@std@@U?$default_delete@V_Facet_base@std@@@2@@std@@QAE@PAV_Facet_base@1@@Z 10026d00 f i json_vc71_libmtd:json_reader.obj
 0001:00025d80       ??$?HDU?$char_traits@D@std@@V?$allocator@D@1@@std@@YA?AV?$basic_string@DU?$char_traits@D@std@@V?$allocator@D@2@@0@$$QAV10@QBD@Z 10026d80 f i json_vc71_libmtd:json_reader.obj
 0001:00025df0       ??$?HDU?$char_traits@D@std@@V?$allocator@D@1@@std@@YA?AV?$basic_string@DU?$char_traits@D@std@@V?$allocator@D@2@@0@QBD$$QAV10@@Z 10026df0 f i json_vc71_libmtd:json_reader.obj
 0001:00025e60       ??$?HDU?$char_traits@D@std@@V?$allocator@D@1@@std@@YA?AV?$basic_string@DU?$char_traits@D@std@@V?$allocator@D@2@@0@QBDABV10@@Z 10026e60 f i json_vc71_libmtd:json_reader.obj
 0001:00025f80       ??$_Copy_memmove@PAPAPAVValue@Json@@PAPAPAV12@@std@@YAPAPAPAVValue@Json@@PAPAPAV12@00@Z 10026f80 f i json_vc71_libmtd:json_reader.obj
 0001:00025ff0       ??$_Copy_memmove@PAPAVErrorInfo@Reader@Json@@PAPAV123@@std@@YAPAPAVErrorInfo@Reader@Json@@PAPAV123@00@Z 10026ff0 f i json_vc71_libmtd:json_reader.obj
 0001:00026060       ??$_Destroy_range1@V?$allocator@PAPAVValue@Json@@@std@@@std@@YAXPAPAPAVValue@Json@@0AAV?$allocator@PAPAVValue@Json@@@0@U?$integral_constant@_N$00@0@@Z 10027060 f i json_vc71_libmtd:json_reader.obj
 0001:00026090       ??$_Destroy_range1@V?$allocator@PAVErrorInfo@Reader@Json@@@std@@@std@@YAXPAPAVErrorInfo@Reader@Json@@0AAV?$allocator@PAVErrorInfo@Reader@Json@@@0@U?$integral_constant@_N$00@0@@Z 10027090 f i json_vc71_libmtd:json_reader.obj
 0001:000260c0       ??$_Destroy_range@V?$allocator@PAPAVValue@Json@@@std@@@std@@YAXPAPAPAVValue@Json@@0AAV?$allocator@PAPAVValue@Json@@@0@@Z 100270c0 f i json_vc71_libmtd:json_reader.obj
 0001:00026120       ??$_Destroy_range@V?$allocator@PAVErrorInfo@Reader@Json@@@std@@@std@@YAXPAPAVErrorInfo@Reader@Json@@0AAV?$allocator@PAVErrorInfo@Reader@Json@@@0@@Z 10027120 f i json_vc71_libmtd:json_reader.obj
 0001:00026180       ??$_Get_size_of_n@$0CM@@std@@YAII@Z 10027180 f i json_vc71_libmtd:json_reader.obj
 0001:000261d0       ??$_Get_unwrapped@PAPAVValue@Json@@@std@@YAPAPAPAVValue@Json@@QAPAPAV12@@Z 100271d0 f i json_vc71_libmtd:json_reader.obj
 0001:00026200       ??$_Get_unwrapped@PAVErrorInfo@Reader@Json@@@std@@YAPAPAVErrorInfo@Reader@Json@@QAPAV123@@Z 10027200 f i json_vc71_libmtd:json_reader.obj
 0001:00026230       ??$_Get_unwrapped_n@PAPAVValue@Json@@H$0A@@std@@YAPAPAPAVValue@Json@@QAPAPAV12@H@Z 10027230 f i json_vc71_libmtd:json_reader.obj
 0001:00026260       ??$_Get_unwrapped_n@PAVErrorInfo@Reader@Json@@H$0A@@std@@YAPAPAVErrorInfo@Reader@Json@@QAPAV123@H@Z 10027260 f i json_vc71_libmtd:json_reader.obj
 0001:00026290       ??$_Idl_distance1@PAPAPAVValue@Json@@PAPAPAV12@@std@@YAHABQAPAPAVValue@Json@@0Urandom_access_iterator_tag@0@@Z 10027290 f i json_vc71_libmtd:json_reader.obj
 0001:000262d0       ??$_Idl_distance1@PAPAVErrorInfo@Reader@Json@@PAPAV123@@std@@YAHABQAPAVErrorInfo@Reader@Json@@0Urandom_access_iterator_tag@0@@Z 100272d0 f i json_vc71_libmtd:json_reader.obj
 0001:00026310       ??$_Idl_distance@PAPAPAVValue@Json@@PAPAPAV12@@std@@YA@ABQAPAPAVValue@Json@@0@Z 10027310 f i json_vc71_libmtd:json_reader.obj
 0001:00026360       ??$_Idl_distance@PAPAVErrorInfo@Reader@Json@@PAPAV123@@std@@YA@ABQAPAVErrorInfo@Reader@Json@@0@Z 10027360 f i json_vc71_libmtd:json_reader.obj
 0001:000263b0       ??$_Immortalize@V_Iostream_error_category@std@@@std@@YAAAV_Iostream_error_category@0@XZ 100273b0 f i json_vc71_libmtd:json_reader.obj
 0001:00026410       ??$_Immortalize_impl@V_Iostream_error_category@std@@@std@@YGHPAX0PAPAX@Z 10027410 f i json_vc71_libmtd:json_reader.obj
 0001:00026470       ??$_Pocca@V?$allocator@D@std@@@std@@YAXAAV?$allocator@D@0@ABV10@@Z 10027470 f i json_vc71_libmtd:json_reader.obj
 0001:000264f0       ??$_Pocca@V?$allocator@D@std@@@std@@YAXAAV?$allocator@D@0@ABV10@U?$integral_constant@_N$0A@@0@@Z 100274f0 f i json_vc71_libmtd:json_reader.obj
 0001:00026520       ??$_Ptr_copy_cat@PAPAVValue@Json@@PAPAV12@@std@@YA?AU_Really_trivial_ptr_iterator_tag@0@ABQAPAPAVValue@Json@@0@Z 10027520 f i json_vc71_libmtd:json_reader.obj
 0001:00026550       ??$_Ptr_copy_cat@PAVErrorInfo@Reader@Json@@PAV123@@std@@YA?AU_Really_trivial_ptr_iterator_tag@0@ABQAPAVErrorInfo@Reader@Json@@0@Z 10027550 f i json_vc71_libmtd:json_reader.obj
 0001:00026580       ??$_Reallocate_grow_by@V<lambda_15711c68e099a15a58f4d77303cb286d>@@D@?$basic_string@DU?$char_traits@D@std@@V?$allocator@D@2@@std@@QAEAAV01@IV<lambda_15711c68e099a15a58f4d77303cb286d>@@D@Z 10027580 f i json_vc71_libmtd:json_reader.obj
 0001:00026710       ??$_Reallocate_grow_by@V<lambda_4d79bb85f269e6e8002a4599002d832c>@@IPBDI@?$basic_string@DU?$char_traits@D@std@@V?$allocator@D@2@@std@@QAEAAV01@IV<lambda_4d79bb85f269e6e8002a4599002d832c>@@IPBDI@Z 10027710 f i json_vc71_libmtd:json_reader.obj
 0001:000268b0       ??$_Reallocate_grow_by@V<lambda_67d87d4aa1269033985980465fd1d824>@@$$V@?$basic_string@DU?$char_traits@D@std@@V?$allocator@D@2@@std@@QAEAAV01@IV<lambda_67d87d4aa1269033985980465fd1d824>@@@Z 100278b0 f i json_vc71_libmtd:json_reader.obj
 0001:00026a30       ??$_Reallocate_grow_by@V<lambda_ab246b20b9526e2ef7792587e4298a77>@@PBDI@?$basic_string@DU?$char_traits@D@std@@V?$allocator@D@2@@std@@QAEAAV01@IV<lambda_ab246b20b9526e2ef7792587e4298a77>@@PBDI@Z 10027a30 f i json_vc71_libmtd:json_reader.obj
 0001:00026bc0       ??$_Reallocate_grow_by@V<lambda_c1b8c41cb4019640539cfd828748c4d4>@@ID@?$basic_string@DU?$char_traits@D@std@@V?$allocator@D@2@@std@@QAEAAV01@IV<lambda_c1b8c41cb4019640539cfd828748c4d4>@@ID@Z 10027bc0 f i json_vc71_libmtd:json_reader.obj
 0001:00026d50       ??$_Seek_wrapped@PAPAVValue@Json@@@std@@YAXAAPAPAPAVValue@Json@@QAPAPAV12@@Z 10027d50 f i json_vc71_libmtd:json_reader.obj
 0001:00026d80       ??$_Seek_wrapped@PAVErrorInfo@Reader@Json@@@std@@YAXAAPAPAVErrorInfo@Reader@Json@@QAPAV123@@Z 10027d80 f i json_vc71_libmtd:json_reader.obj
 0001:00026db0       ??$_Uninitialized_copy@PAPAPAVValue@Json@@PAPAPAV12@V?$allocator@PAPAVValue@Json@@@std@@@std@@YAPAPAPAVValue@Json@@QAPAPAV12@0PAPAPAV12@AAV?$allocator@PAPAVValue@Json@@@0@@Z 10027db0 f i json_vc71_libmtd:json_reader.obj
 0001:00026ed0       ??$_Uninitialized_copy@PAPAVErrorInfo@Reader@Json@@PAPAV123@V?$allocator@PAVErrorInfo@Reader@Json@@@std@@@std@@YAPAPAVErrorInfo@Reader@Json@@QAPAV123@0PAPAV123@AAV?$allocator@PAVErrorInfo@Reader@Json@@@0@@Z 10027ed0 f i json_vc71_libmtd:json_reader.obj
 0001:00026ff0       ??$_Uninitialized_copy_al_unchecked@PAPAVValue@Json@@PAPAV12@V?$allocator@PAPAVValue@Json@@@std@@@std@@YAPAPAPAVValue@Json@@QAPAPAV12@00AAV?$allocator@PAPAVValue@Json@@@0@U_Really_trivial_ptr_iterator_tag@0@U?$integral_constant@_N$00@0@@Z 10027ff0 f i json_vc71_libmtd:json_reader.obj
 0001:00027040       ??$_Uninitialized_copy_al_unchecked@PAVErrorInfo@Reader@Json@@PAV123@V?$allocator@PAVErrorInfo@Reader@Json@@@std@@@std@@YAPAPAVErrorInfo@Reader@Json@@QAPAV123@00AAV?$allocator@PAVErrorInfo@Reader@Json@@@0@U_Really_trivial_ptr_iterator_tag@0@U?$integral_constant@_N$00@0@@Z 10028040 f i json_vc71_libmtd:json_reader.obj
 0001:00027090       ??$_Uninitialized_value_construct_n1@PAPAPAVValue@Json@@IV?$allocator@PAPAVValue@Json@@@std@@@std@@YAPAPAPAVValue@Json@@PAPAPAV12@IAAV?$allocator@PAPAVValue@Json@@@0@U?$integral_constant@_N$00@0@@Z 10028090 f i json_vc71_libmtd:json_reader.obj
 0001:000270e0       ??$_Uninitialized_value_construct_n1@PAPAVErrorInfo@Reader@Json@@IV?$allocator@PAVErrorInfo@Reader@Json@@@std@@@std@@YAPAPAVErrorInfo@Reader@Json@@PAPAV123@IAAV?$allocator@PAVErrorInfo@Reader@Json@@@0@U?$integral_constant@_N$00@0@@Z 100280e0 f i json_vc71_libmtd:json_reader.obj
 0001:00027130       ??$_Uninitialized_value_construct_n@PAPAPAVValue@Json@@IV?$allocator@PAPAVValue@Json@@@std@@@std@@YAPAPAPAVValue@Json@@PAPAPAV12@IAAV?$allocator@PAPAVValue@Json@@@0@@Z 10028130 f i json_vc71_libmtd:json_reader.obj
 0001:00027190       ??$_Uninitialized_value_construct_n@PAPAVErrorInfo@Reader@Json@@IV?$allocator@PAVErrorInfo@Reader@Json@@@std@@@std@@YAPAPAVErrorInfo@Reader@Json@@PAPAV123@IAAV?$allocator@PAVErrorInfo@Reader@Json@@@0@@Z 10028190 f i json_vc71_libmtd:json_reader.obj
 0001:000271f0       ??$_Zero_range@PAPAPAVValue@Json@@@std@@YAPAPAPAVValue@Json@@QAPAPAV12@0@Z 100281f0 f i json_vc71_libmtd:json_reader.obj
 0001:00027250       ??$_Zero_range@PAPAVErrorInfo@Reader@Json@@@std@@YAPAPAVErrorInfo@Reader@Json@@QAPAV123@0@Z 10028250 f i json_vc71_libmtd:json_reader.obj
 0001:000272b0       ??$addressof@$$CBV?$_Deque_val@U?$_Deque_simple_types@VErrorInfo@Reader@Json@@@std@@@std@@@std@@YAPBV?$_Deque_val@U?$_Deque_simple_types@VErrorInfo@Reader@Json@@@std@@@0@ABV10@@Z 100282b0 f i json_vc71_libmtd:json_reader.obj
 0001:000272e0       ??$addressof@$$CBV?$basic_string@DU?$char_traits@D@std@@V?$allocator@D@2@@std@@@std@@YAPBV?$basic_string@DU?$char_traits@D@std@@V?$allocator@D@2@@0@ABV10@@Z 100282e0 f i json_vc71_libmtd:json_reader.obj
 0001:00027310       ??$addressof@V?$_Deque_val@U?$_Deque_simple_types@PAVValue@Json@@@std@@@std@@@std@@YAPAV?$_Deque_val@U?$_Deque_simple_types@PAVValue@Json@@@std@@@0@AAV10@@Z 10028310 f i json_vc71_libmtd:json_reader.obj
 0001:00027340       ??$addressof@V?$_Deque_val@U?$_Deque_simple_types@VErrorInfo@Reader@Json@@@std@@@std@@@std@@YAPAV?$_Deque_val@U?$_Deque_simple_types@VErrorInfo@Reader@Json@@@std@@@0@AAV10@@Z 10028340 f i json_vc71_libmtd:json_reader.obj
 0001:00027370       ??$construct@PAVValue@Json@@PAV12@@?$_Default_allocator_traits@V?$allocator@PAVValue@Json@@@std@@@std@@SAXAAV?$allocator@PAVValue@Json@@@1@QAPAVValue@Json@@$$QAPAV34@@Z 10028370 f i json_vc71_libmtd:json_reader.obj
 0001:000273d0       ??$construct@VErrorInfo@Reader@Json@@$$V@?$_Default_allocator_traits@V?$allocator@VErrorInfo@Reader@Json@@@std@@@std@@SAXAAV?$allocator@VErrorInfo@Reader@Json@@@1@QAVErrorInfo@Reader@Json@@@Z 100283d0 f i json_vc71_libmtd:json_reader.obj
 0001:00027440       ??$construct@VErrorInfo@Reader@Json@@ABV123@@?$_Default_allocator_traits@V?$allocator@VErrorInfo@Reader@Json@@@std@@@std@@SAXAAV?$allocator@VErrorInfo@Reader@Json@@@1@QAVErrorInfo@Reader@Json@@ABV345@@Z 10028440 f i json_vc71_libmtd:json_reader.obj
 0001:000274a0       ??$emplace_back@$$V@?$deque@VErrorInfo@Reader@Json@@V?$allocator@VErrorInfo@Reader@Json@@@std@@@std@@QAE@XZ 100284a0 f i json_vc71_libmtd:json_reader.obj
 0001:00027610       ??$forward@AAPAV_Facet_base@std@@@std@@YAAAPAV_Facet_base@0@AAPAV10@@Z 10028610 f i json_vc71_libmtd:json_reader.obj
 0001:00027640       ??$forward@ABVErrorInfo@Reader@Json@@@std@@YAABVErrorInfo@Reader@Json@@ABV123@@Z 10028640 f i json_vc71_libmtd:json_reader.obj
 0001:00027670       ??$forward@PAVValue@Json@@@std@@YA$$QAPAVValue@Json@@AAPAV12@@Z 10028670 f i json_vc71_libmtd:json_reader.obj
 0001:000276a0       ??$getline@DU?$char_traits@D@std@@V?$allocator@D@2@@std@@YAAAV?$basic_istream@DU?$char_traits@D@std@@@0@$$QAV10@AAV?$basic_string@DU?$char_traits@D@std@@V?$allocator@D@2@@0@D@Z 100286a0 f i json_vc71_libmtd:json_reader.obj
 0001:00027940       ??$getline@DU?$char_traits@D@std@@V?$allocator@D@2@@std@@YAAAV?$basic_istream@DU?$char_traits@D@std@@@0@AAV10@AAV?$basic_string@DU?$char_traits@D@std@@V?$allocator@D@2@@0@D@Z 10028940 f i json_vc71_libmtd:json_reader.obj
 0001:00027990       ??$move@AAPAVValue@Json@@@std@@YA$$QAPAVValue@Json@@AAPAV12@@Z 10028990 f i json_vc71_libmtd:json_reader.obj
 0001:000279c0       ??$move@AAV?$basic_istream@DU?$char_traits@D@std@@@std@@@std@@YA$$QAV?$basic_istream@DU?$char_traits@D@std@@@0@AAV10@@Z 100289c0 f i json_vc71_libmtd:json_reader.obj
 0001:000279f0       ??$use_facet@V?$ctype@D@std@@@std@@YAABV?$ctype@D@0@ABVlocale@0@@Z 100289f0 f i json_vc71_libmtd:json_reader.obj
 0001:00027ba0       ??0?$_Deque_alloc@U?$_Deque_base_types@PAVValue@Json@@V?$allocator@PAVValue@Json@@@std@@@std@@@std@@QAE@XZ 10028ba0 f i json_vc71_libmtd:json_reader.obj
 0001:00027c00       ??0?$_Deque_alloc@U?$_Deque_base_types@VErrorInfo@Reader@Json@@V?$allocator@VErrorInfo@Reader@Json@@@std@@@std@@@std@@QAE@XZ 10028c00 f i json_vc71_libmtd:json_reader.obj
 0001:00027c60       ??0?$_Deque_const_iterator@V?$_Deque_val@U?$_Deque_simple_types@PAVValue@Json@@@std@@@std@@@std@@QAE@ABV01@@Z 10028c60 f i json_vc71_libmtd:json_reader.obj
 0001:00027cc0       ??0?$_Deque_const_iterator@V?$_Deque_val@U?$_Deque_simple_types@PAVValue@Json@@@std@@@std@@@std@@QAE@IPBU_Container_base12@1@@Z 10028cc0 f i json_vc71_libmtd:json_reader.obj
 0001:00027d60       ??0?$_Deque_const_iterator@V?$_Deque_val@U?$_Deque_simple_types@VErrorInfo@Reader@Json@@@std@@@std@@@std@@QAE@IPBU_Container_base12@1@@Z 10028d60 f i json_vc71_libmtd:json_reader.obj
 0001:00027e00       ??0?$_Deque_iterator@V?$_Deque_val@U?$_Deque_simple_types@PAVValue@Json@@@std@@@std@@@std@@QAE@ABV01@@Z 10028e00 f i json_vc71_libmtd:json_reader.obj
 0001:00027e50       ??0?$_Deque_iterator@V?$_Deque_val@U?$_Deque_simple_types@PAVValue@Json@@@std@@@std@@@std@@QAE@IPBU_Container_base12@1@@Z 10028e50 f i json_vc71_libmtd:json_reader.obj
 0001:00027ea0       ??0?$_Deque_val@U?$_Deque_simple_types@PAVValue@Json@@@std@@@std@@QAE@XZ 10028ea0 f i json_vc71_libmtd:json_reader.obj
 0001:00027f10       ??0?$_Deque_val@U?$_Deque_simple_types@VErrorInfo@Reader@Json@@@std@@@std@@QAE@XZ 10028f10 f i json_vc71_libmtd:json_reader.obj
 0001:00027f80       ??0?$_Yarn@D@std@@QAE@XZ   10028f80 f i json_vc71_libmtd:json_reader.obj
 0001:00027fc0       ??0?$_Yarn@_W@std@@QAE@XZ  10028fc0 f i json_vc71_libmtd:json_reader.obj
 0001:00028000       ??0?$allocator@PAVValue@Json@@@std@@QAE@XZ 10029000 f i json_vc71_libmtd:json_reader.obj
 0001:00028030       ??0?$allocator@VErrorInfo@Reader@Json@@@std@@QAE@XZ 10029030 f i json_vc71_libmtd:json_reader.obj
 0001:00028060       ??0?$ctype@D@std@@QAE@ABV_Locinfo@1@I@Z 10029060 f i json_vc71_libmtd:json_reader.obj
 0001:00028100       ??0?$deque@PAVValue@Json@@V?$allocator@PAVValue@Json@@@std@@@std@@QAE@XZ 10029100 f i json_vc71_libmtd:json_reader.obj
 0001:00028150       ??0?$deque@VErrorInfo@Reader@Json@@V?$allocator@VErrorInfo@Reader@Json@@@std@@@std@@QAE@XZ 10029150 f i json_vc71_libmtd:json_reader.obj
 0001:000281a0       ??0?$stack@PAVValue@Json@@V?$deque@PAVValue@Json@@V?$allocator@PAVValue@Json@@@std@@@std@@@std@@QAE@XZ 100291a0 f i json_vc71_libmtd:json_reader.obj
 0001:000281f0       ??0ErrorInfo@Reader@Json@@QAE@ABV012@@Z 100291f0 f i json_vc71_libmtd:json_reader.obj
 0001:00028260       ??0ErrorInfo@Reader@Json@@QAE@XZ 10029260 f i json_vc71_libmtd:json_reader.obj
 0001:000282b0       ??0Features@Json@@QAE@XZ   100292b0 f   json_vc71_libmtd:json_reader.obj
 0001:000282f0       ??0Reader@Json@@QAE@ABVFeatures@1@@Z 100292f0 f   json_vc71_libmtd:json_reader.obj
 0001:000283a0       ??0Reader@Json@@QAE@XZ     100293a0 f   json_vc71_libmtd:json_reader.obj
 0001:00028460       ??0_Facet_base@std@@QAE@XZ 10029460 f i json_vc71_libmtd:json_reader.obj
 0001:000284a0       ??0_Generic_error_category@std@@QAE@XZ 100294a0 f i json_vc71_libmtd:json_reader.obj
 0001:00028500       ??0_Iostream_error_category@std@@QAE@XZ 10029500 f i json_vc71_libmtd:json_reader.obj
 0001:00028560       ??0_Locinfo@std@@QAE@PBD@Z 10029560 f i json_vc71_libmtd:json_reader.obj
 0001:00028670       ??0_Sentry_base@?$basic_istream@DU?$char_traits@D@std@@@std@@QAE@AAV12@@Z 10029670 f i json_vc71_libmtd:json_reader.obj
 0001:00028720       ??0_Sentry_base@?$basic_ostream@DU?$char_traits@D@std@@@std@@QAE@AAV12@@Z 10029720 f i json_vc71_libmtd:json_reader.obj
 0001:000287d0       ??0_System_error@std@@IAE@Verror_code@1@ABV?$basic_string@DU?$char_traits@D@std@@V?$allocator@D@2@@1@@Z 100297d0 f i json_vc71_libmtd:json_reader.obj
 0001:000288c0       ??0_System_error@std@@QAE@ABV01@@Z 100298c0 f i json_vc71_libmtd:json_reader.obj
 0001:00028930       ??0bad_cast@std@@QAE@ABV01@@Z 10029930 f i json_vc71_libmtd:json_reader.obj
 0001:00028990       ??0bad_cast@std@@QAE@XZ    10029990 f i json_vc71_libmtd:json_reader.obj
 0001:000289f0       ??0ctype_base@std@@QAE@I@Z 100299f0 f i json_vc71_libmtd:json_reader.obj
 0001:00028a50       ??0error_category@std@@QAE@XZ 10029a50 f i json_vc71_libmtd:json_reader.obj
 0001:00028a90       ??0error_code@std@@QAE@HABVerror_category@1@@Z 10029a90 f i json_vc71_libmtd:json_reader.obj
 0001:00028ad0       ??0error_condition@std@@QAE@HABVerror_category@1@@Z 10029ad0 f i json_vc71_libmtd:json_reader.obj
 0001:00028b10       ??0exception@std@@QAE@QBDH@Z 10029b10 f i json_vc71_libmtd:json_reader.obj
 0001:00028b60       ??0facet@locale@std@@IAE@I@Z 10029b60 f i json_vc71_libmtd:json_reader.obj
 0001:00028bc0       ??0failure@ios_base@std@@QAE@ABV012@@Z 10029bc0 f i json_vc71_libmtd:json_reader.obj
 0001:00028c20       ??0failure@ios_base@std@@QAE@PBDABVerror_code@2@@Z 10029c20 f i json_vc71_libmtd:json_reader.obj
 0001:00028c80       ??0locale@std@@QAE@ABV01@@Z 10029c80 f i json_vc71_libmtd:json_reader.obj
 0001:00028d10       ??0runtime_error@std@@QAE@ABV?$basic_string@DU?$char_traits@D@std@@V?$allocator@D@2@@1@@Z 10029d10 f i json_vc71_libmtd:json_reader.obj
 0001:00028d70       ??0sentry@?$basic_istream@DU?$char_traits@D@std@@@std@@QAE@AAV12@_N@Z 10029d70 f i json_vc71_libmtd:json_reader.obj
 0001:00028e10       ??0sentry@?$basic_ostream@DU?$char_traits@D@std@@@std@@QAE@AAV12@@Z 10029e10 f i json_vc71_libmtd:json_reader.obj
 0001:00028f10       ??0system_error@std@@QAE@ABV01@@Z 10029f10 f i json_vc71_libmtd:json_reader.obj
 0001:00028f70       ??0system_error@std@@QAE@Verror_code@1@PBD@Z 10029f70 f i json_vc71_libmtd:json_reader.obj
 0001:00029030       ??1?$_Deque_const_iterator@V?$_Deque_val@U?$_Deque_simple_types@PAVValue@Json@@@std@@@std@@@std@@QAE@XZ 1002a030 f i json_vc71_libmtd:json_reader.obj
 0001:00029070       ??1?$_Deque_const_iterator@V?$_Deque_val@U?$_Deque_simple_types@VErrorInfo@Reader@Json@@@std@@@std@@@std@@QAE@XZ 1002a070 f i json_vc71_libmtd:json_reader.obj
 0001:000290b0       ??1?$_Deque_iterator@V?$_Deque_val@U?$_Deque_simple_types@PAVValue@Json@@@std@@@std@@@std@@QAE@XZ 1002a0b0 f i json_vc71_libmtd:json_reader.obj
 0001:000290f0       ??1?$_Yarn@D@std@@QAE@XZ   1002a0f0 f i json_vc71_libmtd:json_reader.obj
 0001:00029160       ??1?$_Yarn@_W@std@@QAE@XZ  1002a160 f i json_vc71_libmtd:json_reader.obj
 0001:000291d0       ??1?$ctype@D@std@@MAE@XZ   1002a1d0 f i json_vc71_libmtd:json_reader.obj
 0001:00029250       ??1?$unique_ptr@V_Facet_base@std@@U?$default_delete@V_Facet_base@std@@@2@@std@@QAE@XZ 1002a250 f i json_vc71_libmtd:json_reader.obj
 0001:000292b0       ??1_Facet_base@std@@UAE@XZ 1002a2b0 f i json_vc71_libmtd:json_reader.obj
 0001:000292f0       ??1_Generic_error_category@std@@UAE@XZ 1002a2f0 f i json_vc71_libmtd:json_reader.obj
 0001:00029330       ??1_Iostream_error_category@std@@UAE@XZ 1002a330 f i json_vc71_libmtd:json_reader.obj
 0001:00029370       ??1_Locinfo@std@@QAE@XZ    1002a370 f i json_vc71_libmtd:json_reader.obj
 0001:00029430       ??1_Sentry_base@?$basic_istream@DU?$char_traits@D@std@@@std@@QAE@XZ 1002a430 f i json_vc71_libmtd:json_reader.obj
 0001:00029500       ??1_Sentry_base@?$basic_ostream@DU?$char_traits@D@std@@@std@@QAE@XZ 1002a500 f i json_vc71_libmtd:json_reader.obj
 0001:000295d0       ??1_System_error@std@@UAE@XZ 1002a5d0 f i json_vc71_libmtd:json_reader.obj
 0001:00029610       ??1bad_cast@std@@UAE@XZ    1002a610 f i json_vc71_libmtd:json_reader.obj
 0001:00029650       ??1ctype_base@std@@UAE@XZ  1002a650 f i json_vc71_libmtd:json_reader.obj
 0001:000296a0       ??1error_category@std@@UAE@XZ 1002a6a0 f i json_vc71_libmtd:json_reader.obj
 0001:000296d0       ??1facet@locale@std@@MAE@XZ 1002a6d0 f i json_vc71_libmtd:json_reader.obj
 0001:00029720       ??1failure@ios_base@std@@UAE@XZ 1002a720 f i json_vc71_libmtd:json_reader.obj
 0001:00029760       ??1locale@std@@QAE@XZ      1002a760 f i json_vc71_libmtd:json_reader.obj
 0001:00029830       ??1sentry@?$basic_istream@DU?$char_traits@D@std@@@std@@QAE@XZ 1002a830 f i json_vc71_libmtd:json_reader.obj
 0001:00029870       ??1sentry@?$basic_ostream@DU?$char_traits@D@std@@@std@@QAE@XZ 1002a870 f i json_vc71_libmtd:json_reader.obj
 0001:000298f0       ??1system_error@std@@UAE@XZ 1002a8f0 f i json_vc71_libmtd:json_reader.obj
 0001:00029930       ??2_Crt_new_delete@std@@SAPAXI@Z 1002a930 f i json_vc71_libmtd:json_reader.obj
 0001:00029990       ??2_Crt_new_delete@std@@SAPAXIABUnothrow_t@1@@Z 1002a990 f i json_vc71_libmtd:json_reader.obj
 0001:00029a00       ??3_Crt_new_delete@std@@SAXPAX@Z 1002aa00 f i json_vc71_libmtd:json_reader.obj
 0001:00029a40       ??4?$basic_string@DU?$char_traits@D@std@@V?$allocator@D@2@@std@@QAEAAV01@ABV01@@Z 1002aa40 f i json_vc71_libmtd:json_reader.obj
 0001:00029ad0       ??4?$basic_string@DU?$char_traits@D@std@@V?$allocator@D@2@@std@@QAEAAV01@QBD@Z 1002aad0 f i json_vc71_libmtd:json_reader.obj
 0001:00029b20       ??5Json@@YAAAV?$basic_istream@DU?$char_traits@D@std@@@std@@AAV12@AAVValue@0@@Z 1002ab20 f   json_vc71_libmtd:json_reader.obj
 0001:00029c70       ??8?$_Deque_const_iterator@V?$_Deque_val@U?$_Deque_simple_types@VErrorInfo@Reader@Json@@@std@@@std@@@std@@QBE_NABV01@@Z 1002ac70 f i json_vc71_libmtd:json_reader.obj
 0001:00029ce0       ??8error_category@std@@QBE_NABV01@@Z 1002ace0 f i json_vc71_libmtd:json_reader.obj
 0001:00029d40       ??8std@@YA_NABVerror_condition@0@0@Z 1002ad40 f i json_vc71_libmtd:json_reader.obj
 0001:00029dd0       ??9?$_Deque_const_iterator@V?$_Deque_val@U?$_Deque_simple_types@VErrorInfo@Reader@Json@@@std@@@std@@@std@@QBE_NABV01@@Z 1002add0 f i json_vc71_libmtd:json_reader.obj
 0001:00029e40       ??A?$basic_string@DU?$char_traits@D@std@@V?$allocator@D@2@@std@@QAEAADI@Z 1002ae40 f i json_vc71_libmtd:json_reader.obj
 0001:00029ef0       ??Bid@locale@std@@QAEIXZ   1002aef0 f i json_vc71_libmtd:json_reader.obj
 0001:00029fa0       ??Bsentry@?$basic_istream@DU?$char_traits@D@std@@@std@@QBE_NXZ 1002afa0 f i json_vc71_libmtd:json_reader.obj
 0001:00029fd0       ??Bsentry@?$basic_ostream@DU?$char_traits@D@std@@@std@@QBE_NXZ 1002afd0 f i json_vc71_libmtd:json_reader.obj
 0001:0002a000       ??D?$_Deque_const_iterator@V?$_Deque_val@U?$_Deque_simple_types@PAVValue@Json@@@std@@@std@@@std@@QBEABQAVValue@Json@@XZ 1002b000 f i json_vc71_libmtd:json_reader.obj
 0001:0002a140       ??D?$_Deque_const_iterator@V?$_Deque_val@U?$_Deque_simple_types@VErrorInfo@Reader@Json@@@std@@@std@@@std@@QBEABVErrorInfo@Reader@Json@@XZ 1002b140 f i json_vc71_libmtd:json_reader.obj
 0001:0002a280       ??D?$_Deque_iterator@V?$_Deque_val@U?$_Deque_simple_types@PAVValue@Json@@@std@@@std@@@std@@QBEAAPAVValue@Json@@XZ 1002b280 f i json_vc71_libmtd:json_reader.obj
 0001:0002a2c0       ??E?$_Deque_const_iterator@V?$_Deque_val@U?$_Deque_simple_types@VErrorInfo@Reader@Json@@@std@@@std@@@std@@QAEAAV01@XZ 1002b2c0 f i json_vc71_libmtd:json_reader.obj
 0001:0002a3d0       ??G?$_Deque_iterator@V?$_Deque_val@U?$_Deque_simple_types@PAVValue@Json@@@std@@@std@@@std@@QBE?AV01@H@Z 1002b3d0 f i json_vc71_libmtd:json_reader.obj
 0001:0002a4c0       ??R<lambda_15711c68e099a15a58f4d77303cb286d>@@QBEXQADQBDID@Z 1002b4c0 f i json_vc71_libmtd:json_reader.obj
 0001:0002a550       ??R<lambda_4d79bb85f269e6e8002a4599002d832c>@@QBEXQADQBDII1I@Z 1002b550 f i json_vc71_libmtd:json_reader.obj
 0001:0002a5e0       ??R<lambda_67d87d4aa1269033985980465fd1d824>@@QBEXQADQBDI@Z 1002b5e0 f i json_vc71_libmtd:json_reader.obj
 0001:0002a630       ??R<lambda_ab246b20b9526e2ef7792587e4298a77>@@QBEXQADQBDI1I@Z 1002b630 f i json_vc71_libmtd:json_reader.obj
 0001:0002a6c0       ??R<lambda_c1b8c41cb4019640539cfd828748c4d4>@@QBEXQADQBDIID@Z 1002b6c0 f i json_vc71_libmtd:json_reader.obj
 0001:0002a750       ??R?$default_delete@V_Facet_base@std@@@std@@QBEXPAV_Facet_base@1@@Z 1002b750 f i json_vc71_libmtd:json_reader.obj
 0001:0002a7e0       ??Y?$_Deque_iterator@V?$_Deque_val@U?$_Deque_simple_types@PAVValue@Json@@@std@@@std@@@std@@QAEAAV01@H@Z 1002b7e0 f i json_vc71_libmtd:json_reader.obj
 0001:0002a820       ??Y?$basic_string@DU?$char_traits@D@std@@V?$allocator@D@2@@std@@QAEAAV01@ABV01@@Z 1002b820 f i json_vc71_libmtd:json_reader.obj
 0001:0002a870       ??Y?$basic_string@DU?$char_traits@D@std@@V?$allocator@D@2@@std@@QAEAAV01@D@Z 1002b870 f i json_vc71_libmtd:json_reader.obj
 0001:0002a8c0       ??Y?$basic_string@DU?$char_traits@D@std@@V?$allocator@D@2@@std@@QAEAAV01@QBD@Z 1002b8c0 f i json_vc71_libmtd:json_reader.obj
 0001:0002a910       ??Z?$_Deque_iterator@V?$_Deque_val@U?$_Deque_simple_types@PAVValue@Json@@@std@@@std@@@std@@QAEAAV01@H@Z 1002b910 f i json_vc71_libmtd:json_reader.obj
 0001:0002a960       ??_E?$ctype@D@std@@MAEPAXI@Z 1002b960 f i json_vc71_libmtd:json_reader.obj
 0001:0002a960       ??_G?$ctype@D@std@@MAEPAXI@Z 1002b960 f i json_vc71_libmtd:json_reader.obj
 0001:0002a9d0       ??_E_Facet_base@std@@UAEPAXI@Z 1002b9d0 f i json_vc71_libmtd:json_reader.obj
 0001:0002a9d0       ??_G_Facet_base@std@@UAEPAXI@Z 1002b9d0 f i json_vc71_libmtd:json_reader.obj
 0001:0002aa30       ??_E_Generic_error_category@std@@UAEPAXI@Z 1002ba30 f i json_vc71_libmtd:json_reader.obj
 0001:0002aa30       ??_G_Generic_error_category@std@@UAEPAXI@Z 1002ba30 f i json_vc71_libmtd:json_reader.obj
 0001:0002aa90       ??_E_Iostream_error_category@std@@UAEPAXI@Z 1002ba90 f i json_vc71_libmtd:json_reader.obj
 0001:0002aa90       ??_G_Iostream_error_category@std@@UAEPAXI@Z 1002ba90 f i json_vc71_libmtd:json_reader.obj
 0001:0002aaf0       ??_E_System_error@std@@UAEPAXI@Z 1002baf0 f i json_vc71_libmtd:json_reader.obj
 0001:0002aaf0       ??_G_System_error@std@@UAEPAXI@Z 1002baf0 f i json_vc71_libmtd:json_reader.obj
 0001:0002ab50       ??_Ebad_cast@std@@UAEPAXI@Z 1002bb50 f i json_vc71_libmtd:json_reader.obj
 0001:0002ab50       ??_Gbad_cast@std@@UAEPAXI@Z 1002bb50 f i json_vc71_libmtd:json_reader.obj
 0001:0002abb0       ??_Gctype_base@std@@UAEPAXI@Z 1002bbb0 f i json_vc71_libmtd:json_reader.obj
 0001:0002abb0       ??_Ectype_base@std@@UAEPAXI@Z 1002bbb0 f i json_vc71_libmtd:json_reader.obj
 0001:0002ac20       ??_Gfacet@locale@std@@MAEPAXI@Z 1002bc20 f i json_vc71_libmtd:json_reader.obj
 0001:0002ac20       ??_Efacet@locale@std@@MAEPAXI@Z 1002bc20 f i json_vc71_libmtd:json_reader.obj
 0001:0002ac90       ??_Efailure@ios_base@std@@UAEPAXI@Z 1002bc90 f i json_vc71_libmtd:json_reader.obj
 0001:0002ac90       ??_Gfailure@ios_base@std@@UAEPAXI@Z 1002bc90 f i json_vc71_libmtd:json_reader.obj
 0001:0002acf0       ??_Esystem_error@std@@UAEPAXI@Z 1002bcf0 f i json_vc71_libmtd:json_reader.obj
 0001:0002acf0       ??_Gsystem_error@std@@UAEPAXI@Z 1002bcf0 f i json_vc71_libmtd:json_reader.obj
 0001:0002ad50       ?_Alloc_proxy@?$_Deque_alloc@U?$_Deque_base_types@PAVValue@Json@@V?$allocator@PAVValue@Json@@@std@@@std@@@std@@QAEXXZ 1002bd50 f i json_vc71_libmtd:json_reader.obj
 0001:0002ae40       ?_Alloc_proxy@?$_Deque_alloc@U?$_Deque_base_types@VErrorInfo@Reader@Json@@V?$allocator@VErrorInfo@Reader@Json@@@std@@@std@@@std@@QAEXXZ 1002be40 f i json_vc71_libmtd:json_reader.obj
 0001:0002af30       ?_Become_small@?$basic_string@DU?$char_traits@D@std@@V?$allocator@D@2@@std@@QAEXXZ 1002bf30 f i json_vc71_libmtd:json_reader.obj
 0001:0002aff0       ?_Check_offset@?$_String_val@U?$_Simple_types@D@std@@@std@@QBEXI@Z 1002bff0 f i json_vc71_libmtd:json_reader.obj
 0001:0002b040       ?_Compat@?$_Deque_const_iterator@V?$_Deque_val@U?$_Deque_simple_types@VErrorInfo@Reader@Json@@@std@@@std@@@std@@QBEXABV12@@Z 1002c040 f i json_vc71_libmtd:json_reader.obj
 0001:0002b0e0       ?_Copy_alloc@?$_String_alloc@U?$_String_base_types@DV?$allocator@D@std@@@std@@@std@@QAEXABV?$allocator@D@2@@Z 1002c0e0 f i json_vc71_libmtd:json_reader.obj
 0001:0002b150       ?_Decref@facet@locale@std@@UAEPAV_Facet_base@3@XZ 1002c150 f i json_vc71_libmtd:json_reader.obj
 0001:0002b1a0       ?_Eos@?$basic_string@DU?$char_traits@D@std@@V?$allocator@D@2@@std@@QAEXI@Z 1002c1a0 f i json_vc71_libmtd:json_reader.obj
 0001:0002b210       ?_Get_first@?$_Compressed_pair@U?$default_delete@V_Facet_base@std@@@std@@PAV_Facet_base@2@$00@std@@QAEAAU?$default_delete@V_Facet_base@std@@@2@XZ 1002c210 f i json_vc71_libmtd:json_reader.obj
 0001:0002b240       ?_Get_first@?$_Compressed_pair@V?$allocator@PAVValue@Json@@@std@@V?$_Deque_val@U?$_Deque_simple_types@PAVValue@Json@@@std@@@2@$00@std@@QBEABV?$allocator@PAVValue@Json@@@2@XZ 1002c240 f i json_vc71_libmtd:json_reader.obj
 0001:0002b270       ?_Get_first@?$_Compressed_pair@V?$allocator@VErrorInfo@Reader@Json@@@std@@V?$_Deque_val@U?$_Deque_simple_types@VErrorInfo@Reader@Json@@@std@@@2@$00@std@@QBEABV?$allocator@VErrorInfo@Reader@Json@@@2@XZ 1002c270 f i json_vc71_libmtd:json_reader.obj
 0001:0002b2a0       ?_Get_second@?$_Compressed_pair@U?$default_delete@V_Facet_base@std@@@std@@PAV_Facet_base@2@$00@std@@QAEAAPAV_Facet_base@2@XZ 1002c2a0 f i json_vc71_libmtd:json_reader.obj
 0001:0002b2d0       ?_Get_second@?$_Compressed_pair@U?$default_delete@V_Facet_base@std@@@std@@PAV_Facet_base@2@$00@std@@QBEABQAV_Facet_base@2@XZ 1002c2d0 f i json_vc71_libmtd:json_reader.obj
 0001:0002b300       ?_Getal@?$_Deque_alloc@U?$_Deque_base_types@PAVValue@Json@@V?$allocator@PAVValue@Json@@@std@@@std@@@std@@QBEABV?$allocator@PAVValue@Json@@@2@XZ 1002c300 f i json_vc71_libmtd:json_reader.obj
 0001:0002b340       ?_Getal@?$_Deque_alloc@U?$_Deque_base_types@VErrorInfo@Reader@Json@@V?$allocator@VErrorInfo@Reader@Json@@@std@@@std@@@std@@QBEABV?$allocator@VErrorInfo@Reader@Json@@@2@XZ 1002c340 f i json_vc71_libmtd:json_reader.obj
 0001:0002b380       ?_Getcat@?$ctype@D@std@@SAIPAPBVfacet@locale@2@PBV42@@Z 1002c380 f i json_vc71_libmtd:json_reader.obj
 0001:0002b4d0       ?_Getctype@_Locinfo@std@@QBE?AU_Ctypevec@@XZ 1002c4d0 f i json_vc71_libmtd:json_reader.obj
 0001:0002b570       ?_Getfacet@locale@std@@QBEPBVfacet@12@I@Z 1002c570 f i json_vc71_libmtd:json_reader.obj
 0001:0002b640       ?_Gnavail@?$basic_streambuf@DU?$char_traits@D@std@@@std@@IBE_JXZ 1002c640 f i json_vc71_libmtd:json_reader.obj
 0001:0002b6a0       ?_Gninc@?$basic_streambuf@DU?$char_traits@D@std@@@std@@IAEPADXZ 1002c6a0 f i json_vc71_libmtd:json_reader.obj
 0001:0002b710       ?_Gnpreinc@?$basic_streambuf@DU?$char_traits@D@std@@@std@@IAEPADXZ 1002c710 f i json_vc71_libmtd:json_reader.obj
 0001:0002b780       ?_Growmap@?$deque@PAVValue@Json@@V?$allocator@PAVValue@Json@@@std@@@std@@IAEXI@Z 1002c780 f i json_vc71_libmtd:json_reader.obj
 0001:0002ba60       ?_Growmap@?$deque@VErrorInfo@Reader@Json@@V?$allocator@VErrorInfo@Reader@Json@@@std@@@std@@IAEXI@Z 1002ca60 f i json_vc71_libmtd:json_reader.obj
 0001:0002bd30       ?_Incref@facet@locale@std@@UAEXXZ 1002cd30 f i json_vc71_libmtd:json_reader.obj
 0001:0002bd70       ?_Init@?$ctype@D@std@@IAEXABV_Locinfo@2@@Z 1002cd70 f i json_vc71_libmtd:json_reader.obj
 0001:0002bde0       ?_Ipfx@?$basic_istream@DU?$char_traits@D@std@@@std@@QAE_N_N@Z 1002cde0 f i json_vc71_libmtd:json_reader.obj
 0001:0002c080       ?_Makestr@_System_error@std@@CA?AV?$basic_string@DU?$char_traits@D@std@@V?$allocator@D@2@@2@Verror_code@2@V32@@Z 1002d080 f i json_vc71_libmtd:json_reader.obj
 0001:0002c190       ?_Myptr@?$_Unique_ptr_base@V_Facet_base@std@@U?$default_delete@V_Facet_base@std@@@2@@std@@QAEAAPAV_Facet_base@2@XZ 1002d190 f i json_vc71_libmtd:json_reader.obj
 0001:0002c1d0       ?_Myptr@?$_Unique_ptr_base@V_Facet_base@std@@U?$default_delete@V_Facet_base@std@@@2@@std@@QBEABQAV_Facet_base@2@XZ 1002d1d0 f i json_vc71_libmtd:json_reader.obj
 0001:0002c210       ?_Osfx@?$basic_ostream@DU?$char_traits@D@std@@@std@@QAEXXZ 1002d210 f i json_vc71_libmtd:json_reader.obj
 0001:0002c330       ?_Setcont@?$_Deque_const_iterator@V?$_Deque_val@U?$_Deque_simple_types@PAVValue@Json@@@std@@@std@@@std@@QAEXPBV?$_Deque_val@U?$_Deque_simple_types@PAVValue@Json@@@std@@@2@@Z 1002d330 f i json_vc71_libmtd:json_reader.obj
 0001:0002c380       ?_Setcont@?$_Deque_const_iterator@V?$_Deque_val@U?$_Deque_simple_types@VErrorInfo@Reader@Json@@@std@@@std@@@std@@QAEXPBV?$_Deque_val@U?$_Deque_simple_types@VErrorInfo@Reader@Json@@@std@@@2@@Z 1002d380 f i json_vc71_libmtd:json_reader.obj
 0001:0002c3d0       ?_Tidy@?$_Yarn@D@std@@AAEXXZ 1002d3d0 f i json_vc71_libmtd:json_reader.obj
 0001:0002c430       ?_Tidy@?$_Yarn@_W@std@@AAEXXZ 1002d430 f i json_vc71_libmtd:json_reader.obj
 0001:0002c490       ?_Tidy@?$ctype@D@std@@IAEXXZ 1002d490 f i json_vc71_libmtd:json_reader.obj
 0001:0002c520       ?_Xlen@?$deque@PAVValue@Json@@V?$allocator@PAVValue@Json@@@std@@@std@@IBEXXZ 1002d520 f i json_vc71_libmtd:json_reader.obj
 0001:0002c570       ?_Xlen@?$deque@VErrorInfo@Reader@Json@@V?$allocator@VErrorInfo@Reader@Json@@@std@@@std@@IBEXXZ 1002d570 f i json_vc71_libmtd:json_reader.obj
 0001:0002c5c0       ?_Xran@?$_String_val@U?$_Simple_types@D@std@@@std@@SAXXZ 1002d5c0 f i json_vc71_libmtd:json_reader.obj
 0001:0002c600       ?addComment@Reader@Json@@AAEXPBD0W4CommentPlacement@2@@Z 1002d600 f   json_vc71_libmtd:json_reader.obj
 0001:0002c7b0       ?addError@Reader@Json@@AAE_NABV?$basic_string@DU?$char_traits@D@std@@V?$allocator@D@2@@std@@AAVToken@12@PBD@Z 1002d7b0 f   json_vc71_libmtd:json_reader.obj
 0001:0002c8b0       ?addErrorAndRecover@Reader@Json@@AAE_NABV?$basic_string@DU?$char_traits@D@std@@V?$allocator@D@2@@std@@AAVToken@12@W4TokenType@12@@Z 1002d8b0 f   json_vc71_libmtd:json_reader.obj
 0001:0002c910       ?all@Features@Json@@SA?AV12@XZ 1002d910 f   json_vc71_libmtd:json_reader.obj
 0001:0002c950       ?allocate@?$allocator@PAPAVValue@Json@@@std@@QAEPAPAPAVValue@Json@@I@Z 1002d950 f i json_vc71_libmtd:json_reader.obj
 0001:0002c9a0       ?allocate@?$allocator@PAVErrorInfo@Reader@Json@@@std@@QAEPAPAVErrorInfo@Reader@Json@@I@Z 1002d9a0 f i json_vc71_libmtd:json_reader.obj
 0001:0002c9f0       ?allocate@?$allocator@PAVValue@Json@@@std@@QAEPAPAVValue@Json@@I@Z 1002d9f0 f i json_vc71_libmtd:json_reader.obj
 0001:0002ca40       ?allocate@?$allocator@VErrorInfo@Reader@Json@@@std@@QAEPAVErrorInfo@Reader@Json@@I@Z 1002da40 f i json_vc71_libmtd:json_reader.obj
 0001:0002ca90       ?append@?$basic_string@DU?$char_traits@D@std@@V?$allocator@D@2@@std@@QAEAAV12@ABV12@@Z 1002da90 f i json_vc71_libmtd:json_reader.obj
 0001:0002caf0       ?append@?$basic_string@DU?$char_traits@D@std@@V?$allocator@D@2@@std@@QAEAAV12@ID@Z 1002daf0 f i json_vc71_libmtd:json_reader.obj
 0001:0002cbd0       ?append@?$basic_string@DU?$char_traits@D@std@@V?$allocator@D@2@@std@@QAEAAV12@QBD@Z 1002dbd0 f i json_vc71_libmtd:json_reader.obj
 0001:0002cc30       ?append@?$basic_string@DU?$char_traits@D@std@@V?$allocator@D@2@@std@@QAEAAV12@QBDI@Z 1002dc30 f i json_vc71_libmtd:json_reader.obj
 0001:0002cd10       ?assign@?$char_traits@D@std@@SAPADQADID@Z 1002dd10 f i json_vc71_libmtd:json_reader.obj
 0001:0002cd60       ?back@?$deque@PAVValue@Json@@V?$allocator@PAVValue@Json@@@std@@@std@@QAEAAPAVValue@Json@@XZ 1002dd60 f i json_vc71_libmtd:json_reader.obj
 0001:0002ce50       ?begin@?$deque@VErrorInfo@Reader@Json@@V?$allocator@VErrorInfo@Reader@Json@@@std@@@std@@QBE?AV?$_Deque_const_iterator@V?$_Deque_val@U?$_Deque_simple_types@VErrorInfo@Reader@Json@@@std@@@std@@@2@XZ 1002de50 f i json_vc71_libmtd:json_reader.obj
 0001:0002cee0       ?c_str@?$_Yarn@D@std@@QBEPBDXZ 1002dee0 f i json_vc71_libmtd:json_reader.obj
 0001:0002cf40       ?c_str@locale@std@@QBEPBDXZ 1002df40 f i json_vc71_libmtd:json_reader.obj
 0001:0002cfb0       ?category@error_code@std@@QBEABVerror_category@2@XZ 1002dfb0 f i json_vc71_libmtd:json_reader.obj
 0001:0002cfe0       ?category@error_condition@std@@QBEABVerror_category@2@XZ 1002dfe0 f i json_vc71_libmtd:json_reader.obj
 0001:0002d010       ?clear@?$basic_ios@DU?$char_traits@D@std@@@std@@QAEXH_N@Z 1002e010 f i json_vc71_libmtd:json_reader.obj
 0001:0002d080       ?clear@?$deque@VErrorInfo@Reader@Json@@V?$allocator@VErrorInfo@Reader@Json@@@std@@@std@@QAEXXZ 1002e080 f i json_vc71_libmtd:json_reader.obj
 0001:0002d0f0       ?clear@ios_base@std@@QAEXH_N@Z 1002e0f0 f i json_vc71_libmtd:json_reader.obj
 0001:0002d460       ?currentValue@Reader@Json@@AAEAAVValue@2@XZ 1002e460 f   json_vc71_libmtd:json_reader.obj
 0001:0002d4b0       ?decodeDouble@Reader@Json@@AAE_NAAVToken@12@@Z 1002e4b0 f   json_vc71_libmtd:json_reader.obj
 0001:0002d780       ?decodeNumber@Reader@Json@@AAE_NAAVToken@12@@Z 1002e780 f   json_vc71_libmtd:json_reader.obj
 0001:0002db40       ?decodeString@Reader@Json@@AAE_NAAVToken@12@@Z 1002eb40 f   json_vc71_libmtd:json_reader.obj
 0001:0002dc80       ?decodeString@Reader@Json@@AAE_NAAVToken@12@AAV?$basic_string@DU?$char_traits@D@std@@V?$allocator@D@2@@std@@@Z 1002ec80 f   json_vc71_libmtd:json_reader.obj
 0001:0002e010       ?decodeUnicodeCodePoint@Reader@Json@@AAE_NAAVToken@12@AAPBDPBDAAI@Z 1002f010 f   json_vc71_libmtd:json_reader.obj
 0001:0002e280       ?decodeUnicodeEscapeSequence@Reader@Json@@AAE_NAAVToken@12@AAPBDPBDAAI@Z 1002f280 f   json_vc71_libmtd:json_reader.obj
 0001:0002e470       ?default_error_condition@error_category@std@@UBE?AVerror_condition@2@H@Z 1002f470 f i json_vc71_libmtd:json_reader.obj
 0001:0002e4c0       ?do_narrow@?$ctype@D@std@@MBEDDD@Z 1002f4c0 f i json_vc71_libmtd:json_reader.obj
 0001:0002e4f0       ?do_narrow@?$ctype@D@std@@MBEPBDPBD0DPAD@Z 1002f4f0 f i json_vc71_libmtd:json_reader.obj
 0001:0002e560       ?do_tolower@?$ctype@D@std@@MBEDD@Z 1002f560 f i json_vc71_libmtd:json_reader.obj
 0001:0002e5b0       ?do_tolower@?$ctype@D@std@@MBEPBDPADPBD@Z 1002f5b0 f i json_vc71_libmtd:json_reader.obj
 0001:0002e640       ?do_toupper@?$ctype@D@std@@MBEDD@Z 1002f640 f i json_vc71_libmtd:json_reader.obj
 0001:0002e690       ?do_toupper@?$ctype@D@std@@MBEPBDPADPBD@Z 1002f690 f i json_vc71_libmtd:json_reader.obj
 0001:0002e720       ?do_widen@?$ctype@D@std@@MBEDD@Z 1002f720 f i json_vc71_libmtd:json_reader.obj
 0001:0002e750       ?do_widen@?$ctype@D@std@@MBEPBDPBD0PAD@Z 1002f750 f i json_vc71_libmtd:json_reader.obj
 0001:0002e7c0       ?empty@?$basic_string@DU?$char_traits@D@std@@V?$allocator@D@2@@std@@QBE_NXZ 1002f7c0 f i json_vc71_libmtd:json_reader.obj
 0001:0002e820       ?empty@?$stack@PAVValue@Json@@V?$deque@PAVValue@Json@@V?$allocator@PAVValue@Json@@@std@@@std@@@std@@QBE_NXZ 1002f820 f i json_vc71_libmtd:json_reader.obj
 0001:0002e860       ?end@?$deque@PAVValue@Json@@V?$allocator@PAVValue@Json@@@std@@@std@@QAE?AV?$_Deque_iterator@V?$_Deque_val@U?$_Deque_simple_types@PAVValue@Json@@@std@@@std@@@2@XZ 1002f860 f i json_vc71_libmtd:json_reader.obj
 0001:0002e900       ?end@?$deque@VErrorInfo@Reader@Json@@V?$allocator@VErrorInfo@Reader@Json@@@std@@@std@@QBE?AV?$_Deque_const_iterator@V?$_Deque_val@U?$_Deque_simple_types@VErrorInfo@Reader@Json@@@std@@@std@@@2@XZ 1002f900 f i json_vc71_libmtd:json_reader.obj
 0001:0002e9a0       ?eof@?$char_traits@D@std@@SAHXZ 1002f9a0 f i json_vc71_libmtd:json_reader.obj
 0001:0002e9d0       ?eq_int_type@?$char_traits@D@std@@SA_NABH0@Z 1002f9d0 f i json_vc71_libmtd:json_reader.obj
 0001:0002ea20       ?equivalent@error_category@std@@UBE_NABVerror_code@2@H@Z 1002fa20 f i json_vc71_libmtd:json_reader.obj
 0001:0002eaa0       ?equivalent@error_category@std@@UBE_NHABVerror_condition@2@@Z 1002faa0 f i json_vc71_libmtd:json_reader.obj
 0001:0002eb10       ?erase@?$basic_string@DU?$char_traits@D@std@@V?$allocator@D@2@@std@@QAEAAV12@I@Z 1002fb10 f i json_vc71_libmtd:json_reader.obj
 0001:0002eb70       ?expectToken@Reader@Json@@AAE_NW4TokenType@12@AAVToken@12@PBD@Z 1002fb70 f   json_vc71_libmtd:json_reader.obj
 0001:0002ec50       ?flags@ios_base@std@@QBEHXZ 1002fc50 f i json_vc71_libmtd:json_reader.obj
 0001:0002ec80       ?flush@?$basic_ostream@DU?$char_traits@D@std@@@std@@QAEAAV12@XZ 1002fc80 f i json_vc71_libmtd:json_reader.obj
 0001:0002ed90       ?get@?$unique_ptr@V_Facet_base@std@@U?$default_delete@V_Facet_base@std@@@2@@std@@QBEPAV_Facet_base@2@XZ 1002fd90 f i json_vc71_libmtd:json_reader.obj
 0001:0002ede0       ?getFormatedErrorMessages@Reader@Json@@QBE?AV?$basic_string@DU?$char_traits@D@std@@V?$allocator@D@2@@std@@XZ 1002fde0 f   json_vc71_libmtd:json_reader.obj
 0001:0002f1b0       ?getLocationLineAndColumn@Reader@Json@@ABE?AV?$basic_string@DU?$char_traits@D@std@@V?$allocator@D@2@@std@@PBD@Z 100301b0 f   json_vc71_libmtd:json_reader.obj
 0001:0002f2b0       ?getLocationLineAndColumn@Reader@Json@@ABEXPBDAAH1@Z 100302b0 f   json_vc71_libmtd:json_reader.obj
 0001:0002f390       ?getNextChar@Reader@Json@@AAEDXZ 10030390 f   json_vc71_libmtd:json_reader.obj
 0001:0002f3f0       ?get_deleter@?$_Unique_ptr_base@V_Facet_base@std@@U?$default_delete@V_Facet_base@std@@@2@@std@@QAEAAU?$default_delete@V_Facet_base@std@@@2@XZ 100303f0 f i json_vc71_libmtd:json_reader.obj
 0001:0002f430       ?getloc@ios_base@std@@QBE?AVlocale@2@XZ 10030430 f i json_vc71_libmtd:json_reader.obj
 0001:0002f4a0       ?good@ios_base@std@@QBE_NXZ 100304a0 f i json_vc71_libmtd:json_reader.obj
 0001:0002f500       ?gptr@?$basic_streambuf@DU?$char_traits@D@std@@@std@@IBEPADXZ 10030500 f i json_vc71_libmtd:json_reader.obj
 0001:0002f640       ?insert@?$basic_string@DU?$char_traits@D@std@@V?$allocator@D@2@@std@@QAEAAV12@IQBD@Z 10030640 f i json_vc71_libmtd:json_reader.obj
 0001:0002f6a0       ?insert@?$basic_string@DU?$char_traits@D@std@@V?$allocator@D@2@@std@@QAEAAV12@IQBDI@Z 100306a0 f i json_vc71_libmtd:json_reader.obj
 0001:0002f7f0       ?iostream_category@std@@YAABVerror_category@1@XZ 100307f0 f i json_vc71_libmtd:json_reader.obj
 0001:0002f860       ?is@?$ctype@D@std@@QBE_NFD@Z 10030860 f i json_vc71_libmtd:json_reader.obj
 0001:0002f8c0       ?make_error_code@std@@YA?AVerror_code@1@W4io_errc@1@@Z 100308c0 f i json_vc71_libmtd:json_reader.obj
 0001:0002f910       ?match@Reader@Json@@AAE_NPBDH@Z 10030910 f   json_vc71_libmtd:json_reader.obj
 0001:0002f9b0       ?max_size@?$_Default_allocator_traits@V?$allocator@PAVValue@Json@@@std@@@std@@SAIABV?$allocator@PAVValue@Json@@@2@@Z 100309b0 f i json_vc71_libmtd:json_reader.obj
 0001:0002f9e0       ?max_size@?$_Default_allocator_traits@V?$allocator@VErrorInfo@Reader@Json@@@std@@@std@@SAIABV?$allocator@VErrorInfo@Reader@Json@@@2@@Z 100309e0 f i json_vc71_libmtd:json_reader.obj
 0001:0002fa10       ?max_size@?$deque@PAVValue@Json@@V?$allocator@PAVValue@Json@@@std@@@std@@QBEIXZ 10030a10 f i json_vc71_libmtd:json_reader.obj
 0001:0002fa60       ?max_size@?$deque@VErrorInfo@Reader@Json@@V?$allocator@VErrorInfo@Reader@Json@@@std@@@std@@QBEIXZ 10030a60 f i json_vc71_libmtd:json_reader.obj
 0001:0002fab0       ?message@_Generic_error_category@std@@UBE?AV?$basic_string@DU?$char_traits@D@std@@V?$allocator@D@2@@2@H@Z 10030ab0 f i json_vc71_libmtd:json_reader.obj
 0001:0002fb20       ?message@_Iostream_error_category@std@@UBE?AV?$basic_string@DU?$char_traits@D@std@@V?$allocator@D@2@@2@H@Z 10030b20 f i json_vc71_libmtd:json_reader.obj
 0001:0002fbb0       ?message@error_code@std@@QBE?AV?$basic_string@DU?$char_traits@D@std@@V?$allocator@D@2@@2@XZ 10030bb0 f i json_vc71_libmtd:json_reader.obj
 0001:0002fc40       ?name@_Generic_error_category@std@@UBEPBDXZ 10030c40 f i json_vc71_libmtd:json_reader.obj
 0001:0002fc70       ?name@_Iostream_error_category@std@@UBEPBDXZ 10030c70 f i json_vc71_libmtd:json_reader.obj
 0001:0002fca0       ?parse@Reader@Json@@QAE_NAAV?$basic_istream@DU?$char_traits@D@std@@@std@@AAVValue@2@_N@Z 10030ca0 f   json_vc71_libmtd:json_reader.obj
 0001:0002fd90       ?parse@Reader@Json@@QAE_NABV?$basic_string@DU?$char_traits@D@std@@V?$allocator@D@2@@std@@AAVValue@2@_N@Z 10030d90 f   json_vc71_libmtd:json_reader.obj
 0001:0002fe10       ?parse@Reader@Json@@QAE_NPBD0AAVValue@2@_N@Z 10030e10 f   json_vc71_libmtd:json_reader.obj
 0001:00030010       ?pop@?$stack@PAVValue@Json@@V?$deque@PAVValue@Json@@V?$allocator@PAVValue@Json@@@std@@@std@@@std@@QAEXXZ 10031010 f i json_vc71_libmtd:json_reader.obj
 0001:00030050       ?pubsync@?$basic_streambuf@DU?$char_traits@D@std@@@std@@QAEHXZ 10031050 f i json_vc71_libmtd:json_reader.obj
 0001:000300a0       ?push@?$stack@PAVValue@Json@@V?$deque@PAVValue@Json@@V?$allocator@PAVValue@Json@@@std@@@std@@@std@@QAEX$$QAPAVValue@Json@@@Z 100310a0 f i json_vc71_libmtd:json_reader.obj
 0001:000300f0       ?push_back@?$basic_string@DU?$char_traits@D@std@@V?$allocator@D@2@@std@@QAEXD@Z 100310f0 f i json_vc71_libmtd:json_reader.obj
 0001:000301c0       ?push_back@?$deque@PAVValue@Json@@V?$allocator@PAVValue@Json@@@std@@@std@@QAEX$$QAPAVValue@Json@@@Z 100311c0 f i json_vc71_libmtd:json_reader.obj
 0001:00030350       ?push_back@?$deque@VErrorInfo@Reader@Json@@V?$allocator@VErrorInfo@Reader@Json@@@std@@@std@@QAEXABVErrorInfo@Reader@Json@@@Z 10031350 f i json_vc71_libmtd:json_reader.obj
 0001:000304d0       ?rdbuf@?$basic_ios@DU?$char_traits@D@std@@@std@@QBEPAV?$basic_streambuf@DU?$char_traits@D@std@@@2@XZ 100314d0 f i json_vc71_libmtd:json_reader.obj
 0001:00030500       ?rdstate@ios_base@std@@QBEHXZ 10031500 f i json_vc71_libmtd:json_reader.obj
 0001:00030530       ?readArray@Reader@Json@@AAE_NAAVToken@12@@Z 10031530 f   json_vc71_libmtd:json_reader.obj
 0001:000307a0       ?readCStyleComment@Reader@Json@@AAE_NXZ 100317a0 f   json_vc71_libmtd:json_reader.obj
 0001:00030840       ?readComment@Reader@Json@@AAE_NXZ 10031840 f   json_vc71_libmtd:json_reader.obj
 0001:00030940       ?readCppStyleComment@Reader@Json@@AAE_NXZ 10031940 f   json_vc71_libmtd:json_reader.obj
 0001:000309b0       ?readNumber@Reader@Json@@AAEXXZ 100319b0 f   json_vc71_libmtd:json_reader.obj
 0001:00030a50       ?readObject@Reader@Json@@AAE_NAAVToken@12@@Z 10031a50 f   json_vc71_libmtd:json_reader.obj
 0001:00030e80       ?readString@Reader@Json@@AAE_NXZ 10031e80 f   json_vc71_libmtd:json_reader.obj
 0001:00030f20       ?readToken@Reader@Json@@AAE_NAAVToken@12@@Z 10031f20 f   json_vc71_libmtd:json_reader.obj
 0001:00031180       ?readValue@Reader@Json@@AAE_NXZ 10032180 f   json_vc71_libmtd:json_reader.obj
 0001:00031460       ?recoverFromError@Reader@Json@@AAE_NW4TokenType@12@@Z 10032460 f   json_vc71_libmtd:json_reader.obj
 0001:00031530       ?release@?$unique_ptr@V_Facet_base@std@@U?$default_delete@V_Facet_base@std@@@2@@std@@QAEPAV_Facet_base@2@XZ 10032530 f i json_vc71_libmtd:json_reader.obj
 0001:00031590       ?reserve@?$basic_string@DU?$char_traits@D@std@@V?$allocator@D@2@@std@@QAEXI@Z 10032590 f i json_vc71_libmtd:json_reader.obj
 0001:00031650       ?resize@?$basic_string@DU?$char_traits@D@std@@V?$allocator@D@2@@std@@QAEXID@Z 10032650 f i json_vc71_libmtd:json_reader.obj
 0001:000316c0       ?resize@?$deque@VErrorInfo@Reader@Json@@V?$allocator@VErrorInfo@Reader@Json@@@std@@@std@@QAEXI@Z 100326c0 f i json_vc71_libmtd:json_reader.obj
 0001:00031730       ?sbumpc@?$basic_streambuf@DU?$char_traits@D@std@@@std@@QAEHXZ 10032730 f i json_vc71_libmtd:json_reader.obj
 0001:000317d0       ?setstate@?$basic_ios@DU?$char_traits@D@std@@@std@@QAEXH_N@Z 100327d0 f i json_vc71_libmtd:json_reader.obj
 0001:00031830       ?sgetc@?$basic_streambuf@DU?$char_traits@D@std@@@std@@QAEHXZ 10032830 f i json_vc71_libmtd:json_reader.obj
 0001:000318d0       ?size@?$deque@VErrorInfo@Reader@Json@@V?$allocator@VErrorInfo@Reader@Json@@@std@@@std@@QBEIXZ 100328d0 f i json_vc71_libmtd:json_reader.obj
 0001:00031920       ?skipCommentTokens@Reader@Json@@AAEXAAVToken@12@@Z 10032920 f   json_vc71_libmtd:json_reader.obj
 0001:00031990       ?skipSpaces@Reader@Json@@AAEXXZ 10032990 f   json_vc71_libmtd:json_reader.obj
 0001:00031a10       ?snextc@?$basic_streambuf@DU?$char_traits@D@std@@@std@@QAEHXZ 10032a10 f i json_vc71_libmtd:json_reader.obj
 0001:00031af0       ?strictMode@Features@Json@@SA?AV12@XZ 10032af0 f   json_vc71_libmtd:json_reader.obj
 0001:00031b70       ?tie@?$basic_ios@DU?$char_traits@D@std@@@std@@QBEPAV?$basic_ostream@DU?$char_traits@D@std@@@2@XZ 10032b70 f i json_vc71_libmtd:json_reader.obj
 0001:00031ba0       ?to_char_type@?$char_traits@D@std@@SADABH@Z 10032ba0 f i json_vc71_libmtd:json_reader.obj
 0001:00031bd0       ?to_int_type@?$char_traits@D@std@@SAHABD@Z 10032bd0 f i json_vc71_libmtd:json_reader.obj
 0001:00031c00       ?top@?$stack@PAVValue@Json@@V?$deque@PAVValue@Json@@V?$allocator@PAVValue@Json@@@std@@@std@@@std@@QAEAAPAVValue@Json@@XZ 10032c00 f i json_vc71_libmtd:json_reader.obj
 0001:00031c40       ?value@error_code@std@@QBEHXZ 10032c40 f i json_vc71_libmtd:json_reader.obj
 0001:00031c70       ?value@error_condition@std@@QBEHXZ 10032c70 f i json_vc71_libmtd:json_reader.obj
 0001:00031ca0       ___local_stdio_printf_options 10032ca0 f i json_vc71_libmtd:json_reader.obj
 0001:00031cd0       ___local_stdio_scanf_options 10032cd0 f i json_vc71_libmtd:json_reader.obj
 0001:00031d00       __vsnprintf_l              10032d00 f i json_vc71_libmtd:json_reader.obj
 0001:00031d90       __vsprintf_l               10032d90 f i json_vc71_libmtd:json_reader.obj
 0001:00031de0       __vsscanf_l                10032de0 f i json_vc71_libmtd:json_reader.obj
 0001:00031e40       _sprintf                   10032e40 f i json_vc71_libmtd:json_reader.obj
 0001:00031ea0       _sscanf                    10032ea0 f i json_vc71_libmtd:json_reader.obj
 0001:00031f00       ??$?6DU?$char_traits@D@std@@D@std@@YAAAV?$basic_ostream@DU?$char_traits@D@std@@@0@AAV10@ABU?$_Fillobj@D@0@@Z 10032f00 f i json_vc71_libmtd:json_writer.obj
 0001:00031f50       ??$?6DU?$char_traits@D@std@@V?$allocator@D@1@@std@@YAAAV?$basic_ostream@DU?$char_traits@D@std@@@0@AAV10@ABV?$basic_string@DU?$char_traits@D@std@@V?$allocator@D@2@@0@@Z 10032f50 f i json_vc71_libmtd:json_writer.obj
 0001:00031fa0       ??$?6DU?$char_traits@D@std@@_J@std@@YAAAV?$basic_ostream@DU?$char_traits@D@std@@@0@AAV10@ABU?$_Smanip@_J@0@@Z 10032fa0 f i json_vc71_libmtd:json_writer.obj
 0001:00032000       ??$?6U?$char_traits@D@std@@@std@@YAAAV?$basic_ostream@DU?$char_traits@D@std@@@0@AAV10@D@Z 10033000 f i json_vc71_libmtd:json_writer.obj
 0001:000323d0       ??$?6U?$char_traits@D@std@@@std@@YAAAV?$basic_ostream@DU?$char_traits@D@std@@@0@AAV10@PBD@Z 100333d0 f i json_vc71_libmtd:json_writer.obj
 0001:000327d0       ??$?9DD@std@@YA_NABV?$allocator@D@0@0@Z 100337d0 f i json_vc71_libmtd:json_writer.obj
 0001:00032800       ??$_Emplace_back_with_unused_capacity@ABV?$basic_string@DU?$char_traits@D@std@@V?$allocator@D@2@@std@@@?$vector@V?$basic_string@DU?$char_traits@D@std@@V?$allocator@D@2@@std@@V?$allocator@V?$basic_string@DU?$char_traits@D@std@@V?$allocator@D@2@@std@@@2@@std@@AAE@ABV?$basic_string@DU?$char_traits@D@std@@V?$allocator@D@2@@1@@Z 10033800 f i json_vc71_libmtd:json_writer.obj
 0001:000328c0       ??$_Emplace_reallocate@ABV?$basic_string@DU?$char_traits@D@std@@V?$allocator@D@2@@std@@@?$vector@V?$basic_string@DU?$char_traits@D@std@@V?$allocator@D@2@@std@@V?$allocator@V?$basic_string@DU?$char_traits@D@std@@V?$allocator@D@2@@std@@@2@@std@@QAEPAV?$basic_string@DU?$char_traits@D@std@@V?$allocator@D@2@@1@QAV21@ABV21@@Z 100338c0 f i json_vc71_libmtd:json_writer.obj
 0001:00032ad0       ??$_Getvals@D@?$numpunct@D@std@@IAEXDPBUlconv@@U_Cvtvec@@@Z 10033ad0 f i json_vc71_libmtd:json_writer.obj
 0001:00032b60       ??$_Insert_string@DU?$char_traits@D@std@@I@std@@YAAAV?$basic_ostream@DU?$char_traits@D@std@@@0@AAV10@QBDI@Z 10033b60 f i json_vc71_libmtd:json_writer.obj
 0001:00032f00       ??$_Maklocchr@D@std@@YADDPADABU_Cvtvec@@@Z 10033f00 f i json_vc71_libmtd:json_writer.obj
 0001:00032f30       ??$_Maklocstr@D@std@@YAPADPBDPADABU_Cvtvec@@@Z 10033f30 f i json_vc71_libmtd:json_writer.obj
 0001:00032fe0       ??$_Max_value@PAD@std@@YAABQADABQAD0@Z 10033fe0 f i json_vc71_libmtd:json_writer.obj
 0001:00033040       ??$_Pocma@V?$allocator@D@std@@@std@@YAXAAV?$allocator@D@0@0@Z 10034040 f i json_vc71_libmtd:json_writer.obj
 0001:000330c0       ??$_Pocma@V?$allocator@D@std@@@std@@YAXAAV?$allocator@D@0@0U?$integral_constant@_N$00@0@@Z 100340c0 f i json_vc71_libmtd:json_writer.obj
 0001:00033100       ??$_Reallocate_for@V<lambda_c6753c90be971fc9cc00b4f35f237a75>@@D@?$basic_string@DU?$char_traits@D@std@@V?$allocator@D@2@@std@@QAEAAV01@IV<lambda_c6753c90be971fc9cc00b4f35f237a75>@@D@Z 10034100 f i json_vc71_libmtd:json_writer.obj
 0001:00033240       ??$_Reallocate_grow_by@V<lambda_6607a66f2a10a1261ff9db96cba1015b>@@IID@?$basic_string@DU?$char_traits@D@std@@V?$allocator@D@2@@std@@QAEAAV01@IV<lambda_6607a66f2a10a1261ff9db96cba1015b>@@IID@Z 10034240 f i json_vc71_libmtd:json_writer.obj
 0001:000333e0       ??$addressof@D@std@@YAPADAAD@Z 100343e0 f i json_vc71_libmtd:json_writer.obj
 0001:00033410       ??$addressof@V?$basic_string@DU?$char_traits@D@std@@V?$allocator@D@2@@std@@@std@@YAPAV?$basic_string@DU?$char_traits@D@std@@V?$allocator@D@2@@0@AAV10@@Z 10034410 f i json_vc71_libmtd:json_writer.obj
 0001:00033440       ??$construct@V?$basic_string@DU?$char_traits@D@std@@V?$allocator@D@2@@std@@ABV12@@?$_Default_allocator_traits@V?$allocator@V?$basic_string@DU?$char_traits@D@std@@V?$allocator@D@2@@std@@@std@@@std@@SAXAAV?$allocator@V?$basic_string@DU?$char_traits@D@std@@V?$allocator@D@2@@std@@@1@QAV?$basic_string@DU?$char_traits@D@std@@V?$allocator@D@2@@1@ABV31@@Z 10034440 f i json_vc71_libmtd:json_writer.obj
 0001:000334a0       ??$emplace_back@ABV?$basic_string@DU?$char_traits@D@std@@V?$allocator@D@2@@std@@@?$vector@V?$basic_string@DU?$char_traits@D@std@@V?$allocator@D@2@@std@@V?$allocator@V?$basic_string@DU?$char_traits@D@std@@V?$allocator@D@2@@std@@@2@@std@@QAE@ABV?$basic_string@DU?$char_traits@D@std@@V?$allocator@D@2@@1@@Z 100344a0 f i json_vc71_libmtd:json_writer.obj
 0001:00033530       ??$forward@ABV?$basic_string@DU?$char_traits@D@std@@V?$allocator@D@2@@std@@@std@@YAABV?$basic_string@DU?$char_traits@D@std@@V?$allocator@D@2@@0@ABV10@@Z 10034530 f i json_vc71_libmtd:json_writer.obj
 0001:00033560       ??$setfill@D@std@@YA?AU?$_Fillobj@D@0@D@Z 10034560 f i json_vc71_libmtd:json_writer.obj
 0001:000335b0       ??$use_facet@V?$num_put@DV?$ostreambuf_iterator@DU?$char_traits@D@std@@@std@@@std@@@std@@YAABV?$num_put@DV?$ostreambuf_iterator@DU?$char_traits@D@std@@@std@@@0@ABVlocale@0@@Z 100345b0 f i json_vc71_libmtd:json_writer.obj
 0001:00033760       ??$use_facet@V?$numpunct@D@std@@@std@@YAABV?$numpunct@D@0@ABVlocale@0@@Z 10034760 f i json_vc71_libmtd:json_writer.obj
 0001:00033910       ??0?$_Fillobj@D@std@@QAE@D@Z 10034910 f i json_vc71_libmtd:json_writer.obj
 0001:00033950       ??0?$_Vector_const_iterator@V?$_Vector_val@U?$_Simple_types@V?$basic_string@DU?$char_traits@D@std@@V?$allocator@D@2@@std@@@std@@@std@@@std@@QAE@PAV?$basic_string@DU?$char_traits@D@std@@V?$allocator@D@2@@1@PBU_Container_base12@1@@Z 10034950 f i json_vc71_libmtd:json_writer.obj
 0001:000339b0       ??0?$_Vector_iterator@V?$_Vector_val@U?$_Simple_types@V?$basic_string@DU?$char_traits@D@std@@V?$allocator@D@2@@std@@@std@@@std@@@std@@QAE@PAV?$basic_string@DU?$char_traits@D@std@@V?$allocator@D@2@@1@PBU_Container_base12@1@@Z 100349b0 f i json_vc71_libmtd:json_writer.obj
 0001:00033a00       ??0?$basic_ios@DU?$char_traits@D@std@@@std@@IAE@XZ 10034a00 f i json_vc71_libmtd:json_writer.obj
 0001:00033a50       ??0?$basic_ostream@DU?$char_traits@D@std@@@std@@QAE@PAV?$basic_streambuf@DU?$char_traits@D@std@@@1@_N@Z 10034a50 f i json_vc71_libmtd:json_writer.obj
 0001:00033b40       ??0?$basic_ostringstream@DU?$char_traits@D@std@@V?$allocator@D@2@@std@@QAE@H@Z 10034b40 f i json_vc71_libmtd:json_writer.obj
 0001:00033c40       ??0?$basic_streambuf@DU?$char_traits@D@std@@@std@@IAE@XZ 10034c40 f i json_vc71_libmtd:json_writer.obj
 0001:00033cd0       ??0?$basic_string@DU?$char_traits@D@std@@V?$allocator@D@2@@std@@QAE@ABV?$allocator@D@1@@Z 10034cd0 f i json_vc71_libmtd:json_writer.obj
 0001:00033d50       ??0?$basic_string@DU?$char_traits@D@std@@V?$allocator@D@2@@std@@QAE@ID@Z 10034d50 f i json_vc71_libmtd:json_writer.obj
 0001:00033df0       ??0?$basic_stringbuf@DU?$char_traits@D@std@@V?$allocator@D@2@@std@@QAE@H@Z 10034df0 f i json_vc71_libmtd:json_writer.obj
 0001:00033ea0       ??0?$fpos@U_Mbstatet@@@std@@QAE@_J@Z 10034ea0 f i json_vc71_libmtd:json_writer.obj
 0001:00033f00       ??0?$num_put@DV?$ostreambuf_iterator@DU?$char_traits@D@std@@@std@@@std@@QAE@ABV_Locinfo@1@I@Z 10034f00 f i json_vc71_libmtd:json_writer.obj
 0001:00033fa0       ??0?$numpunct@D@std@@QAE@ABV_Locinfo@1@I_N@Z 10034fa0 f i json_vc71_libmtd:json_writer.obj
 0001:00034040       ??0?$ostreambuf_iterator@DU?$char_traits@D@std@@@std@@QAE@PAV?$basic_streambuf@DU?$char_traits@D@std@@@1@@Z 10035040 f i json_vc71_libmtd:json_writer.obj
 0001:00034080       ??0FastWriter@Json@@QAE@XZ 10035080 f   json_vc71_libmtd:json_writer.obj
 0001:000340e0       ??0StyledStreamWriter@Json@@QAE@V?$basic_string@DU?$char_traits@D@std@@V?$allocator@D@2@@std@@@Z 100350e0 f   json_vc71_libmtd:json_writer.obj
 0001:000341a0       ??0StyledWriter@Json@@QAE@XZ 100351a0 f   json_vc71_libmtd:json_writer.obj
 0001:00034220       ??0Writer@Json@@QAE@XZ     10035220 f i json_vc71_libmtd:json_writer.obj
 0001:00034260       ??0id@locale@std@@QAE@I@Z  10035260 f i json_vc71_libmtd:json_writer.obj
 0001:000342a0       ??0ios_base@std@@IAE@XZ    100352a0 f i json_vc71_libmtd:json_writer.obj
 0001:000342e0       ??0locale@std@@QAE@XZ      100352e0 f i json_vc71_libmtd:json_writer.obj
 0001:00034360       ??1?$_Vector_const_iterator@V?$_Vector_val@U?$_Simple_types@V?$basic_string@DU?$char_traits@D@std@@V?$allocator@D@2@@std@@@std@@@std@@@std@@QAE@XZ 10035360 f i json_vc71_libmtd:json_writer.obj
 0001:000343a0       ??1?$_Vector_iterator@V?$_Vector_val@U?$_Simple_types@V?$basic_string@DU?$char_traits@D@std@@V?$allocator@D@2@@std@@@std@@@std@@@std@@QAE@XZ 100353a0 f i json_vc71_libmtd:json_writer.obj
 0001:000343e0       ??1?$basic_ios@DU?$char_traits@D@std@@@std@@UAE@XZ 100353e0 f i json_vc71_libmtd:json_writer.obj
 0001:00034430       ??1?$basic_ostream@DU?$char_traits@D@std@@@std@@UAE@XZ 10035430 f i json_vc71_libmtd:json_writer.obj
 0001:00034490       ??1?$basic_ostringstream@DU?$char_traits@D@std@@V?$allocator@D@2@@std@@UAE@XZ 10035490 f i json_vc71_libmtd:json_writer.obj
 0001:00034510       ??1?$basic_streambuf@DU?$char_traits@D@std@@@std@@UAE@XZ 10035510 f i json_vc71_libmtd:json_writer.obj
 0001:00034590       ??1?$basic_stringbuf@DU?$char_traits@D@std@@V?$allocator@D@2@@std@@UAE@XZ 10035590 f i json_vc71_libmtd:json_writer.obj
 0001:00034610       ??1?$num_put@DV?$ostreambuf_iterator@DU?$char_traits@D@std@@@std@@@std@@MAE@XZ 10035610 f i json_vc71_libmtd:json_writer.obj
 0001:00034660       ??1?$numpunct@D@std@@MAE@XZ 10035660 f i json_vc71_libmtd:json_writer.obj
 0001:000346e0       ??1FastWriter@Json@@UAE@XZ 100356e0 f i json_vc71_libmtd:json_writer.obj
 0001:00034740       ??1StyledStreamWriter@Json@@QAE@XZ 10035740 f i json_vc71_libmtd:json_writer.obj
 0001:000347a0       ??1Writer@Json@@UAE@XZ     100357a0 f   json_vc71_libmtd:json_writer.obj
 0001:000347e0       ??1ios_base@std@@UAE@XZ    100357e0 f i json_vc71_libmtd:json_writer.obj
 0001:00034860       ??4?$basic_string@DU?$char_traits@D@std@@V?$allocator@D@2@@std@@QAEAAV01@$$QAV01@@Z 10035860 f i json_vc71_libmtd:json_writer.obj
 0001:00034920       ??4?$ostreambuf_iterator@DU?$char_traits@D@std@@@std@@QAEAAV01@D@Z 10035920 f i json_vc71_libmtd:json_writer.obj
 0001:000349b0       ??6?$basic_ostream@DU?$char_traits@D@std@@@std@@QAEAAV01@H@Z 100359b0 f i json_vc71_libmtd:json_writer.obj
 0001:00034c00       ??6?$basic_ostream@DU?$char_traits@D@std@@@std@@QAEAAV01@P6AAAVios_base@1@AAV21@@Z@Z 10035c00 f i json_vc71_libmtd:json_writer.obj
 0001:00034c80       ??6Json@@YAAAV?$basic_ostream@DU?$char_traits@D@std@@@std@@AAV12@ABVValue@0@@Z 10035c80 f   json_vc71_libmtd:json_writer.obj
 0001:00034d70       ??8?$_Vector_const_iterator@V?$_Vector_val@U?$_Simple_types@V?$basic_string@DU?$char_traits@D@std@@V?$allocator@D@2@@std@@@std@@@std@@@std@@QBE_NABV01@@Z 10035d70 f i json_vc71_libmtd:json_writer.obj
 0001:00034de0       ??9?$_Vector_const_iterator@V?$_Vector_val@U?$_Simple_types@V?$basic_string@DU?$char_traits@D@std@@V?$allocator@D@2@@std@@@std@@@std@@@std@@QBE_NABV01@@Z 10035de0 f i json_vc71_libmtd:json_writer.obj
 0001:00034e50       ??A?$basic_string@DU?$char_traits@D@std@@V?$allocator@D@2@@std@@QBEABDI@Z 10035e50 f i json_vc71_libmtd:json_writer.obj
 0001:00034f00       ??A?$vector@V?$basic_string@DU?$char_traits@D@std@@V?$allocator@D@2@@std@@V?$allocator@V?$basic_string@DU?$char_traits@D@std@@V?$allocator@D@2@@std@@@2@@std@@QAEAAV?$basic_string@DU?$char_traits@D@std@@V?$allocator@D@2@@1@I@Z 10035f00 f i json_vc71_libmtd:json_writer.obj
 0001:00034fb0       ??B?$fpos@U_Mbstatet@@@std@@QBE_JXZ 10035fb0 f i json_vc71_libmtd:json_writer.obj
 0001:00034ff0       ??D?$_Vector_const_iterator@V?$_Vector_val@U?$_Simple_types@V?$basic_string@DU?$char_traits@D@std@@V?$allocator@D@2@@std@@@std@@@std@@@std@@QBEABV?$basic_string@DU?$char_traits@D@std@@V?$allocator@D@2@@1@XZ 10035ff0 f i json_vc71_libmtd:json_writer.obj
 0001:000350f0       ??D?$_Vector_iterator@V?$_Vector_val@U?$_Simple_types@V?$basic_string@DU?$char_traits@D@std@@V?$allocator@D@2@@std@@@std@@@std@@@std@@QBEAAV?$basic_string@DU?$char_traits@D@std@@V?$allocator@D@2@@1@XZ 100360f0 f i json_vc71_libmtd:json_writer.obj
 0001:00035130       ??D?$ostreambuf_iterator@DU?$char_traits@D@std@@@std@@QAEAAV01@XZ 10036130 f i json_vc71_libmtd:json_writer.obj
 0001:00035160       ??E?$_Vector_const_iterator@V?$_Vector_val@U?$_Simple_types@V?$basic_string@DU?$char_traits@D@std@@V?$allocator@D@2@@std@@@std@@@std@@@std@@QAEAAV01@XZ 10036160 f i json_vc71_libmtd:json_writer.obj
 0001:00035260       ??E?$_Vector_iterator@V?$_Vector_val@U?$_Simple_types@V?$basic_string@DU?$char_traits@D@std@@V?$allocator@D@2@@std@@@std@@@std@@@std@@QAEAAV01@XZ 10036260 f i json_vc71_libmtd:json_writer.obj
 0001:000352b0       ??E?$ostreambuf_iterator@DU?$char_traits@D@std@@@std@@QAEAAV01@XZ 100362b0 f i json_vc71_libmtd:json_writer.obj
 0001:000352e0       ??R<lambda_6607a66f2a10a1261ff9db96cba1015b>@@QBEXQADQBDIIID@Z 100362e0 f i json_vc71_libmtd:json_writer.obj
 0001:00035370       ??R<lambda_c6753c90be971fc9cc00b4f35f237a75>@@QBEXQADID@Z 10036370 f i json_vc71_libmtd:json_writer.obj
 0001:000353e0       ??_D?$basic_ostream@DU?$char_traits@D@std@@@std@@QAEXXZ 100363e0 f i json_vc71_libmtd:json_writer.obj
 0001:00035430       ??_D?$basic_ostringstream@DU?$char_traits@D@std@@V?$allocator@D@2@@std@@QAEXXZ 10036430 f i json_vc71_libmtd:json_writer.obj
 0001:0003547d       ??_E?$basic_ostream@DU?$char_traits@D@std@@@std@@$4PPPPPPPM@A@AEPAXI@Z 1003647d f i json_vc71_libmtd:json_writer.obj
 0001:00035485       ??_E?$basic_ostringstream@DU?$char_traits@D@std@@V?$allocator@D@2@@std@@$4PPPPPPPM@A@AEPAXI@Z 10036485 f i json_vc71_libmtd:json_writer.obj
 0001:00035490       ??_G?$basic_ios@DU?$char_traits@D@std@@@std@@UAEPAXI@Z 10036490 f i json_vc71_libmtd:json_writer.obj
 0001:00035490       ??_E?$basic_ios@DU?$char_traits@D@std@@@std@@UAEPAXI@Z 10036490 f i json_vc71_libmtd:json_writer.obj
 0001:000354f0       ??_G?$basic_ostream@DU?$char_traits@D@std@@@std@@UAEPAXI@Z 100364f0 f i json_vc71_libmtd:json_writer.obj
 0001:000354f0       ??_E?$basic_ostream@DU?$char_traits@D@std@@@std@@UAEPAXI@Z 100364f0 f i json_vc71_libmtd:json_writer.obj
 0001:00035560       ??_E?$basic_ostringstream@DU?$char_traits@D@std@@V?$allocator@D@2@@std@@UAEPAXI@Z 10036560 f i json_vc71_libmtd:json_writer.obj
 0001:00035560       ??_G?$basic_ostringstream@DU?$char_traits@D@std@@V?$allocator@D@2@@std@@UAEPAXI@Z 10036560 f i json_vc71_libmtd:json_writer.obj
 0001:000355d0       ??_G?$basic_streambuf@DU?$char_traits@D@std@@@std@@UAEPAXI@Z 100365d0 f i json_vc71_libmtd:json_writer.obj
 0001:000355d0       ??_E?$basic_streambuf@DU?$char_traits@D@std@@@std@@UAEPAXI@Z 100365d0 f i json_vc71_libmtd:json_writer.obj
 0001:00035630       ??_G?$basic_stringbuf@DU?$char_traits@D@std@@V?$allocator@D@2@@std@@UAEPAXI@Z 10036630 f i json_vc71_libmtd:json_writer.obj
 0001:00035630       ??_E?$basic_stringbuf@DU?$char_traits@D@std@@V?$allocator@D@2@@std@@UAEPAXI@Z 10036630 f i json_vc71_libmtd:json_writer.obj
 0001:00035690       ??_E?$num_put@DV?$ostreambuf_iterator@DU?$char_traits@D@std@@@std@@@std@@MAEPAXI@Z 10036690 f i json_vc71_libmtd:json_writer.obj
 0001:00035690       ??_G?$num_put@DV?$ostreambuf_iterator@DU?$char_traits@D@std@@@std@@@std@@MAEPAXI@Z 10036690 f i json_vc71_libmtd:json_writer.obj
 0001:00035700       ??_G?$numpunct@D@std@@MAEPAXI@Z 10036700 f i json_vc71_libmtd:json_writer.obj
 0001:00035700       ??_E?$numpunct@D@std@@MAEPAXI@Z 10036700 f i json_vc71_libmtd:json_writer.obj
 0001:00035770       ??_EFastWriter@Json@@UAEPAXI@Z 10036770 f i json_vc71_libmtd:json_writer.obj
 0001:00035770       ??_GFastWriter@Json@@UAEPAXI@Z 10036770 f i json_vc71_libmtd:json_writer.obj
 0001:000357d0       ??_EWriter@Json@@UAEPAXI@Z 100367d0 f i json_vc71_libmtd:json_writer.obj
 0001:000357d0       ??_GWriter@Json@@UAEPAXI@Z 100367d0 f i json_vc71_libmtd:json_writer.obj
 0001:00035830       ??_Gios_base@std@@UAEPAXI@Z 10036830 f i json_vc71_libmtd:json_writer.obj
 0001:00035830       ??_Eios_base@std@@UAEPAXI@Z 10036830 f i json_vc71_libmtd:json_writer.obj
 0001:00035890       ??_Glocale@std@@QAEPAXI@Z  10036890 f i json_vc71_libmtd:json_writer.obj
 0001:00035900       ?_Assign_rv_contents@?$basic_string@DU?$char_traits@D@std@@V?$allocator@D@2@@std@@QAEX$$QAV12@U?$integral_constant@_N$00@2@@Z 10036900 f i json_vc71_libmtd:json_writer.obj
 0001:00035960       ?_Compat@?$_Vector_const_iterator@V?$_Vector_val@U?$_Simple_types@V?$basic_string@DU?$char_traits@D@std@@V?$allocator@D@2@@std@@@std@@@std@@@std@@QBEXABV12@@Z 10036960 f i json_vc71_libmtd:json_writer.obj
 0001:00035a00       ?_Ffmt@?$num_put@DV?$ostreambuf_iterator@DU?$char_traits@D@std@@@std@@@std@@ABAPADPADDH@Z 10036a00 f i json_vc71_libmtd:json_writer.obj
 0001:00035b90       ?_Fput@?$num_put@DV?$ostreambuf_iterator@DU?$char_traits@D@std@@@std@@@std@@ABA?AV?$ostreambuf_iterator@DU?$char_traits@D@std@@@2@V32@AAVios_base@2@DPBDI@Z 10036b90 f i json_vc71_libmtd:json_writer.obj
 0001:00036190       ?_Getcat@?$num_put@DV?$ostreambuf_iterator@DU?$char_traits@D@std@@@std@@@std@@SAIPAPBVfacet@locale@2@PBV42@@Z 10037190 f i json_vc71_libmtd:json_writer.obj
 0001:000362e0       ?_Getcat@?$numpunct@D@std@@SAIPAPBVfacet@locale@2@PBV42@@Z 100372e0 f i json_vc71_libmtd:json_writer.obj
 0001:00036430       ?_Getcvt@_Locinfo@std@@QBE?AU_Cvtvec@@XZ 10037430 f i json_vc71_libmtd:json_writer.obj
 0001:000364b0       ?_Getfalse@_Locinfo@std@@QBEPBDXZ 100374b0 f i json_vc71_libmtd:json_writer.obj
 0001:000364e0       ?_Getlconv@_Locinfo@std@@QBEPBUlconv@@XZ 100374e0 f i json_vc71_libmtd:json_writer.obj
 0001:00036520       ?_Getstate@?$basic_stringbuf@DU?$char_traits@D@std@@V?$allocator@D@2@@std@@CAHH@Z 10037520 f i json_vc71_libmtd:json_writer.obj
 0001:000365a0       ?_Gettrue@_Locinfo@std@@QBEPBDXZ 100375a0 f i json_vc71_libmtd:json_writer.obj
 0001:000365d0       ?_Ifmt@?$num_put@DV?$ostreambuf_iterator@DU?$char_traits@D@std@@@std@@@std@@ABAPADPADPBDH@Z 100375d0 f i json_vc71_libmtd:json_writer.obj
 0001:00036720       ?_Init@?$basic_streambuf@DU?$char_traits@D@std@@@std@@IAEXXZ 10037720 f i json_vc71_libmtd:json_writer.obj
 0001:000367c0       ?_Init@?$num_put@DV?$ostreambuf_iterator@DU?$char_traits@D@std@@@std@@@std@@IAEXABV_Locinfo@2@@Z 100377c0 f i json_vc71_libmtd:json_writer.obj
 0001:000367f0       ?_Init@?$numpunct@D@std@@IAEXABV_Locinfo@2@_N@Z 100377f0 f i json_vc71_libmtd:json_writer.obj
 0001:00036a20       ?_Init@ios_base@std@@IAEXXZ 10037a20 f i json_vc71_libmtd:json_writer.obj
 0001:00036b10       ?_Iput@?$num_put@DV?$ostreambuf_iterator@DU?$char_traits@D@std@@@std@@@std@@ABA?AV?$ostreambuf_iterator@DU?$char_traits@D@std@@@2@V32@AAVios_base@2@DPADI@Z 10037b10 f i json_vc71_libmtd:json_writer.obj
 0001:00037040       ?_Lock@?$basic_streambuf@DU?$char_traits@D@std@@@std@@UAEXXZ 10038040 f i json_vc71_libmtd:json_writer.obj
 0001:00037070       ?_Move_alloc@?$_String_alloc@U?$_String_base_types@DV?$allocator@D@std@@@std@@@std@@QAEXAAV?$allocator@D@2@@Z 10038070 f i json_vc71_libmtd:json_writer.obj
 0001:00037120       ?_Pnavail@?$basic_streambuf@DU?$char_traits@D@std@@@std@@IBE_JXZ 10038120 f i json_vc71_libmtd:json_writer.obj
 0001:00037180       ?_Pninc@?$basic_streambuf@DU?$char_traits@D@std@@@std@@IAEPADXZ 10038180 f i json_vc71_libmtd:json_writer.obj
 0001:000371f0       ?_Put@?$num_put@DV?$ostreambuf_iterator@DU?$char_traits@D@std@@@std@@@std@@ABA?AV?$ostreambuf_iterator@DU?$char_traits@D@std@@@2@V32@PBDI@Z 100381f0 f i json_vc71_libmtd:json_writer.obj
 0001:00037270       ?_Rep@?$num_put@DV?$ostreambuf_iterator@DU?$char_traits@D@std@@@std@@@std@@ABA?AV?$ostreambuf_iterator@DU?$char_traits@D@std@@@2@V32@DI@Z 10038270 f i json_vc71_libmtd:json_writer.obj
 0001:000372f0       ?_Tidy@?$basic_stringbuf@DU?$char_traits@D@std@@V?$allocator@D@2@@std@@IAEXXZ 100382f0 f i json_vc71_libmtd:json_writer.obj
 0001:000373c0       ?_Tidy@?$numpunct@D@std@@AAEXXZ 100383c0 f i json_vc71_libmtd:json_writer.obj
 0001:00037430       ?_Unlock@?$basic_streambuf@DU?$char_traits@D@std@@@std@@UAEXXZ 10038430 f i json_vc71_libmtd:json_writer.obj
 0001:00037460       ?assign@?$basic_string@DU?$char_traits@D@std@@V?$allocator@D@2@@std@@QAEAAV12@$$QAV12@@Z 10038460 f i json_vc71_libmtd:json_writer.obj
 0001:000374c0       ?assign@?$basic_string@DU?$char_traits@D@std@@V?$allocator@D@2@@std@@QAEAAV12@ID@Z 100384c0 f i json_vc71_libmtd:json_writer.obj
 0001:00037580       ?begin@?$vector@V?$basic_string@DU?$char_traits@D@std@@V?$allocator@D@2@@std@@V?$allocator@V?$basic_string@DU?$char_traits@D@std@@V?$allocator@D@2@@std@@@2@@std@@QAE?AV?$_Vector_iterator@V?$_Vector_val@U?$_Simple_types@V?$basic_string@DU?$char_traits@D@std@@V?$allocator@D@2@@std@@@std@@@std@@@2@XZ 10038580 f i json_vc71_libmtd:json_writer.obj
 0001:00037610       ?clear@?$vector@V?$basic_string@DU?$char_traits@D@std@@V?$allocator@D@2@@std@@V?$allocator@V?$basic_string@DU?$char_traits@D@std@@V?$allocator@D@2@@std@@@2@@std@@QAEXXZ 10038610 f i json_vc71_libmtd:json_writer.obj
 0001:000376b0       ?clear@ios_base@std@@QAEXH@Z 100386b0 f i json_vc71_libmtd:json_writer.obj
 0001:00037770       ?data@?$basic_string@DU?$char_traits@D@std@@V?$allocator@D@2@@std@@QBEPBDXZ 10038770 f i json_vc71_libmtd:json_writer.obj
 0001:000377e0       ?decimal_point@?$numpunct@D@std@@QBEDXZ 100387e0 f i json_vc71_libmtd:json_writer.obj
 0001:00037830       ?do_decimal_point@?$numpunct@D@std@@MBEDXZ 10038830 f i json_vc71_libmtd:json_writer.obj
 0001:00037860       ?do_falsename@?$numpunct@D@std@@MBE?AV?$basic_string@DU?$char_traits@D@std@@V?$allocator@D@2@@2@XZ 10038860 f i json_vc71_libmtd:json_writer.obj
 0001:000378d0       ?do_grouping@?$numpunct@D@std@@MBE?AV?$basic_string@DU?$char_traits@D@std@@V?$allocator@D@2@@2@XZ 100388d0 f i json_vc71_libmtd:json_writer.obj
 0001:00037940       ?do_put@?$num_put@DV?$ostreambuf_iterator@DU?$char_traits@D@std@@@std@@@std@@MBE?AV?$ostreambuf_iterator@DU?$char_traits@D@std@@@2@V32@AAVios_base@2@DJ@Z 10038940 f i json_vc71_libmtd:json_writer.obj
 0001:00037a30       ?do_put@?$num_put@DV?$ostreambuf_iterator@DU?$char_traits@D@std@@@std@@@std@@MBE?AV?$ostreambuf_iterator@DU?$char_traits@D@std@@@2@V32@AAVios_base@2@DK@Z 10038a30 f i json_vc71_libmtd:json_writer.obj
 0001:00037b20       ?do_put@?$num_put@DV?$ostreambuf_iterator@DU?$char_traits@D@std@@@std@@@std@@MBE?AV?$ostreambuf_iterator@DU?$char_traits@D@std@@@2@V32@AAVios_base@2@DN@Z 10038b20 f i json_vc71_libmtd:json_writer.obj
 0001:00037db0       ?do_put@?$num_put@DV?$ostreambuf_iterator@DU?$char_traits@D@std@@@std@@@std@@MBE?AV?$ostreambuf_iterator@DU?$char_traits@D@std@@@2@V32@AAVios_base@2@DO@Z 10038db0 f i json_vc71_libmtd:json_writer.obj
 0001:00038040       ?do_put@?$num_put@DV?$ostreambuf_iterator@DU?$char_traits@D@std@@@std@@@std@@MBE?AV?$ostreambuf_iterator@DU?$char_traits@D@std@@@2@V32@AAVios_base@2@DPBX@Z 10039040 f i json_vc71_libmtd:json_writer.obj
 0001:00038100       ?do_put@?$num_put@DV?$ostreambuf_iterator@DU?$char_traits@D@std@@@std@@@std@@MBE?AV?$ostreambuf_iterator@DU?$char_traits@D@std@@@2@V32@AAVios_base@2@D_J@Z 10039100 f i json_vc71_libmtd:json_writer.obj
 0001:000381f0       ?do_put@?$num_put@DV?$ostreambuf_iterator@DU?$char_traits@D@std@@@std@@@std@@MBE?AV?$ostreambuf_iterator@DU?$char_traits@D@std@@@2@V32@AAVios_base@2@D_K@Z 100391f0 f i json_vc71_libmtd:json_writer.obj
 0001:000382e0       ?do_put@?$num_put@DV?$ostreambuf_iterator@DU?$char_traits@D@std@@@std@@@std@@MBE?AV?$ostreambuf_iterator@DU?$char_traits@D@std@@@2@V32@AAVios_base@2@D_N@Z 100392e0 f i json_vc71_libmtd:json_writer.obj
 0001:000385c0       ?do_thousands_sep@?$numpunct@D@std@@MBEDXZ 100395c0 f i json_vc71_libmtd:json_writer.obj
 0001:000385f0       ?do_truename@?$numpunct@D@std@@MBE?AV?$basic_string@DU?$char_traits@D@std@@V?$allocator@D@2@@2@XZ 100395f0 f i json_vc71_libmtd:json_writer.obj
 0001:00038660       ?eback@?$basic_streambuf@DU?$char_traits@D@std@@@std@@IBEPADXZ 10039660 f i json_vc71_libmtd:json_writer.obj
 0001:000386a0       ?egptr@?$basic_streambuf@DU?$char_traits@D@std@@@std@@IBEPADXZ 100396a0 f i json_vc71_libmtd:json_writer.obj
 0001:000386e0       ?empty@?$vector@V?$basic_string@DU?$char_traits@D@std@@V?$allocator@D@2@@std@@V?$allocator@V?$basic_string@DU?$char_traits@D@std@@V?$allocator@D@2@@std@@@2@@std@@QBE_NXZ 100396e0 f i json_vc71_libmtd:json_writer.obj
 0001:00038750       ?enableYAMLCompatibility@FastWriter@Json@@QAEXXZ 10039750 f   json_vc71_libmtd:json_writer.obj
 0001:00038790       ?end@?$vector@V?$basic_string@DU?$char_traits@D@std@@V?$allocator@D@2@@std@@V?$allocator@V?$basic_string@DU?$char_traits@D@std@@V?$allocator@D@2@@std@@@2@@std@@QAE?AV?$_Vector_iterator@V?$_Vector_val@U?$_Simple_types@V?$basic_string@DU?$char_traits@D@std@@V?$allocator@D@2@@std@@@std@@@std@@@2@XZ 10039790 f i json_vc71_libmtd:json_writer.obj
 0001:00038820       ?epptr@?$basic_streambuf@DU?$char_traits@D@std@@@std@@IBEPADXZ 10039820 f i json_vc71_libmtd:json_writer.obj
 0001:00038860       ?eq@?$char_traits@D@std@@SA_NABD0@Z 10039860 f i json_vc71_libmtd:json_writer.obj
 0001:000388c0       ?failed@?$ostreambuf_iterator@DU?$char_traits@D@std@@@std@@QBE_NXZ 100398c0 f i json_vc71_libmtd:json_writer.obj
 0001:000388f0       ?falsename@?$numpunct@D@std@@QBE?AV?$basic_string@DU?$char_traits@D@std@@V?$allocator@D@2@@2@XZ 100398f0 f i json_vc71_libmtd:json_writer.obj
 0001:00038960       ?fill@?$basic_ios@DU?$char_traits@D@std@@@std@@QAEDD@Z 10039960 f i json_vc71_libmtd:json_writer.obj
 0001:000389b0       ?fill@?$basic_ios@DU?$char_traits@D@std@@@std@@QBEDXZ 100399b0 f i json_vc71_libmtd:json_writer.obj
 0001:000389e0       ?gbump@?$basic_streambuf@DU?$char_traits@D@std@@@std@@IAEXH@Z 100399e0 f i json_vc71_libmtd:json_writer.obj
 0001:00038a40       ?grouping@?$numpunct@D@std@@QBE?AV?$basic_string@DU?$char_traits@D@std@@V?$allocator@D@2@@2@XZ 10039a40 f i json_vc71_libmtd:json_writer.obj
 0001:00038ab0       ?hasCommentForValue@StyledStreamWriter@Json@@AAE_NABVValue@2@@Z 10039ab0 f   json_vc71_libmtd:json_writer.obj
 0001:00038b40       ?hasCommentForValue@StyledWriter@Json@@AAE_NABVValue@2@@Z 10039b40 f   json_vc71_libmtd:json_writer.obj
 0001:00038bd0       ?hex@std@@YAAAVios_base@1@AAV21@@Z 10039bd0 f i json_vc71_libmtd:json_writer.obj
 0001:00038c20       ?imbue@?$basic_streambuf@DU?$char_traits@D@std@@@std@@MAEXABVlocale@2@@Z 10039c20 f i json_vc71_libmtd:json_writer.obj
 0001:00038c50       ?indent@StyledStreamWriter@Json@@AAEXXZ 10039c50 f   json_vc71_libmtd:json_writer.obj
 0001:00038ca0       ?indent@StyledWriter@Json@@AAEXXZ 10039ca0 f   json_vc71_libmtd:json_writer.obj
 0001:00038d60       ?init@?$basic_ios@DU?$char_traits@D@std@@@std@@IAEXPAV?$basic_streambuf@DU?$char_traits@D@std@@@2@_N@Z 10039d60 f i json_vc71_libmtd:json_writer.obj
 0001:00038df0       ?insert@?$basic_string@DU?$char_traits@D@std@@V?$allocator@D@2@@std@@QAEAAV12@IID@Z 10039df0 f i json_vc71_libmtd:json_writer.obj
 0001:00038f40       ?isMultineArray@StyledStreamWriter@Json@@AAE_NABVValue@2@@Z 10039f40 f   json_vc71_libmtd:json_writer.obj
 0001:00039140       ?isMultineArray@StyledWriter@Json@@AAE_NABVValue@2@@Z 1003a140 f   json_vc71_libmtd:json_writer.obj
 0001:00039350       ?normalizeEOL@StyledStreamWriter@Json@@CA?AV?$basic_string@DU?$char_traits@D@std@@V?$allocator@D@2@@std@@ABV34@@Z 1003a350 f   json_vc71_libmtd:json_writer.obj
 0001:000394c0       ?normalizeEOL@StyledWriter@Json@@CA?AV?$basic_string@DU?$char_traits@D@std@@V?$allocator@D@2@@std@@ABV34@@Z 1003a4c0 f   json_vc71_libmtd:json_writer.obj
 0001:00039630       ?not_eof@?$char_traits@D@std@@SAHABH@Z 1003a630 f i json_vc71_libmtd:json_writer.obj
 0001:000396b0       ?overflow@?$basic_streambuf@DU?$char_traits@D@std@@@std@@MAEHH@Z 1003a6b0 f i json_vc71_libmtd:json_writer.obj
 0001:000396f0       ?overflow@?$basic_stringbuf@DU?$char_traits@D@std@@V?$allocator@D@2@@std@@MAEHH@Z 1003a6f0 f i json_vc71_libmtd:json_writer.obj
 0001:00039910       ?pbackfail@?$basic_streambuf@DU?$char_traits@D@std@@@std@@MAEHH@Z 1003a910 f i json_vc71_libmtd:json_writer.obj
 0001:00039950       ?pbackfail@?$basic_stringbuf@DU?$char_traits@D@std@@V?$allocator@D@2@@std@@MAEHH@Z 1003a950 f i json_vc71_libmtd:json_writer.obj
 0001:00039a70       ?pbase@?$basic_streambuf@DU?$char_traits@D@std@@@std@@IBEPADXZ 1003aa70 f i json_vc71_libmtd:json_writer.obj
 0001:00039ab0       ?pbump@?$basic_streambuf@DU?$char_traits@D@std@@@std@@IAEXH@Z 1003aab0 f i json_vc71_libmtd:json_writer.obj
 0001:00039b10       ?pointer_to@?$pointer_traits@PAD@std@@SAPADAAD@Z 1003ab10 f i json_vc71_libmtd:json_writer.obj
 0001:00039b50       ?pptr@?$basic_streambuf@DU?$char_traits@D@std@@@std@@IBEPADXZ 1003ab50 f i json_vc71_libmtd:json_writer.obj
 0001:00039b90       ?precision@ios_base@std@@QBE_JXZ 1003ab90 f i json_vc71_libmtd:json_writer.obj
 0001:00039bd0       ?pushValue@StyledStreamWriter@Json@@AAEXABV?$basic_string@DU?$char_traits@D@std@@V?$allocator@D@2@@std@@@Z 1003abd0 f   json_vc71_libmtd:json_writer.obj
 0001:00039c40       ?pushValue@StyledWriter@Json@@AAEXABV?$basic_string@DU?$char_traits@D@std@@V?$allocator@D@2@@std@@@Z 1003ac40 f   json_vc71_libmtd:json_writer.obj
 0001:00039cb0       ?push_back@?$vector@V?$basic_string@DU?$char_traits@D@std@@V?$allocator@D@2@@std@@V?$allocator@V?$basic_string@DU?$char_traits@D@std@@V?$allocator@D@2@@std@@@2@@std@@QAEXABV?$basic_string@DU?$char_traits@D@std@@V?$allocator@D@2@@2@@Z 1003acb0 f i json_vc71_libmtd:json_writer.obj
 0001:00039d00       ?put@?$num_put@DV?$ostreambuf_iterator@DU?$char_traits@D@std@@@std@@@std@@QBE?AV?$ostreambuf_iterator@DU?$char_traits@D@std@@@2@V32@AAVios_base@2@DJ@Z 1003ad00 f i json_vc71_libmtd:json_writer.obj
 0001:00039d70       ?seekoff@?$basic_streambuf@DU?$char_traits@D@std@@@std@@MAE?AV?$fpos@U_Mbstatet@@@2@_JHH@Z 1003ad70 f i json_vc71_libmtd:json_writer.obj
 0001:00039dc0       ?seekoff@?$basic_stringbuf@DU?$char_traits@D@std@@V?$allocator@D@2@@std@@MAE?AV?$fpos@U_Mbstatet@@@2@_JHH@Z 1003adc0 f i json_vc71_libmtd:json_writer.obj
 0001:0003a000       ?seekpos@?$basic_streambuf@DU?$char_traits@D@std@@@std@@MAE?AV?$fpos@U_Mbstatet@@@2@V32@H@Z 1003b000 f i json_vc71_libmtd:json_writer.obj
 0001:0003a050       ?seekpos@?$basic_stringbuf@DU?$char_traits@D@std@@V?$allocator@D@2@@std@@MAE?AV?$fpos@U_Mbstatet@@@2@V32@H@Z 1003b050 f i json_vc71_libmtd:json_writer.obj
 0001:0003a1c0       ?setbuf@?$basic_streambuf@DU?$char_traits@D@std@@@std@@MAEPAV12@PAD_J@Z 1003b1c0 f i json_vc71_libmtd:json_writer.obj
 0001:0003a1f0       ?setf@ios_base@std@@QAEHH@Z 1003b1f0 f i json_vc71_libmtd:json_writer.obj
 0001:0003a240       ?setf@ios_base@std@@QAEHHH@Z 1003b240 f i json_vc71_libmtd:json_writer.obj
 0001:0003a2a0       ?setg@?$basic_streambuf@DU?$char_traits@D@std@@@std@@IAEXPAD00@Z 1003b2a0 f i json_vc71_libmtd:json_writer.obj
 0001:0003a2f0       ?setp@?$basic_streambuf@DU?$char_traits@D@std@@@std@@IAEXPAD00@Z 1003b2f0 f i json_vc71_libmtd:json_writer.obj
 0001:0003a340       ?setp@?$basic_streambuf@DU?$char_traits@D@std@@@std@@IAEXPAD0@Z 1003b340 f i json_vc71_libmtd:json_writer.obj
 0001:0003a390       ?showmanyc@?$basic_streambuf@DU?$char_traits@D@std@@@std@@MAE_JXZ 1003b390 f i json_vc71_libmtd:json_writer.obj
 0001:0003a3c0       ?sputc@?$basic_streambuf@DU?$char_traits@D@std@@@std@@QAEHD@Z 1003b3c0 f i json_vc71_libmtd:json_writer.obj
 0001:0003a480       ?sputn@?$basic_streambuf@DU?$char_traits@D@std@@@std@@QAE_JPBD_J@Z 1003b480 f i json_vc71_libmtd:json_writer.obj
 0001:0003a4e0       ?str@?$basic_ostringstream@DU?$char_traits@D@std@@V?$allocator@D@2@@std@@QBE?AV?$basic_string@DU?$char_traits@D@std@@V?$allocator@D@2@@2@XZ 1003b4e0 f i json_vc71_libmtd:json_writer.obj
 0001:0003a550       ?str@?$basic_stringbuf@DU?$char_traits@D@std@@V?$allocator@D@2@@std@@QBE?AV?$basic_string@DU?$char_traits@D@std@@V?$allocator@D@2@@2@XZ 1003b550 f i json_vc71_libmtd:json_writer.obj
 0001:0003a6d0       ?sync@?$basic_streambuf@DU?$char_traits@D@std@@@std@@MAEHXZ 1003b6d0 f i json_vc71_libmtd:json_writer.obj
 0001:0003a700       ?thousands_sep@?$numpunct@D@std@@QBEDXZ 1003b700 f i json_vc71_libmtd:json_writer.obj
 0001:0003a750       ?truename@?$numpunct@D@std@@QBE?AV?$basic_string@DU?$char_traits@D@std@@V?$allocator@D@2@@2@XZ 1003b750 f i json_vc71_libmtd:json_writer.obj
 0001:0003a7c0       ?uflow@?$basic_streambuf@DU?$char_traits@D@std@@@std@@MAEHXZ 1003b7c0 f i json_vc71_libmtd:json_writer.obj
 0001:0003a8f0       ?underflow@?$basic_streambuf@DU?$char_traits@D@std@@@std@@MAEHXZ 1003b8f0 f i json_vc71_libmtd:json_writer.obj
 0001:0003a930       ?underflow@?$basic_stringbuf@DU?$char_traits@D@std@@V?$allocator@D@2@@std@@MAEHXZ 1003b930 f i json_vc71_libmtd:json_writer.obj
 0001:0003aa50       ?unindent@StyledStreamWriter@Json@@AAEXXZ 1003ba50 f   json_vc71_libmtd:json_writer.obj
 0001:0003aaf0       ?unindent@StyledWriter@Json@@AAEXXZ 1003baf0 f   json_vc71_libmtd:json_writer.obj
 0001:0003ab80       ?uppercase@std@@YAAAVios_base@1@AAV21@@Z 1003bb80 f i json_vc71_libmtd:json_writer.obj
 0001:0003abc0       ?valueToQuotedString@Json@@YA?AV?$basic_string@DU?$char_traits@D@std@@V?$allocator@D@2@@std@@PBD@Z 1003bbc0 f   json_vc71_libmtd:json_writer.obj
 0001:0003b020       ?valueToString@Json@@YA?AV?$basic_string@DU?$char_traits@D@std@@V?$allocator@D@2@@std@@H@Z 1003c020 f   json_vc71_libmtd:json_writer.obj
 0001:0003b160       ?valueToString@Json@@YA?AV?$basic_string@DU?$char_traits@D@std@@V?$allocator@D@2@@std@@I@Z 1003c160 f   json_vc71_libmtd:json_writer.obj
 0001:0003b250       ?valueToString@Json@@YA?AV?$basic_string@DU?$char_traits@D@std@@V?$allocator@D@2@@std@@N@Z 1003c250 f   json_vc71_libmtd:json_writer.obj
 0001:0003b400       ?valueToString@Json@@YA?AV?$basic_string@DU?$char_traits@D@std@@V?$allocator@D@2@@std@@_N@Z 1003c400 f   json_vc71_libmtd:json_writer.obj
 0001:0003b480       ?widen@?$basic_ios@DU?$char_traits@D@std@@@std@@QBEDD@Z 1003c480 f i json_vc71_libmtd:json_writer.obj
 0001:0003b550       ?widen@?$ctype@D@std@@QBEDD@Z 1003c550 f i json_vc71_libmtd:json_writer.obj
 0001:0003b5b0       ?widen@?$ctype@D@std@@QBEPBDPBD0PAD@Z 1003c5b0 f i json_vc71_libmtd:json_writer.obj
 0001:0003b610       ?width@ios_base@std@@QAE_J_J@Z 1003c610 f i json_vc71_libmtd:json_writer.obj
 0001:0003b660       ?width@ios_base@std@@QBE_JXZ 1003c660 f i json_vc71_libmtd:json_writer.obj
 0001:0003b6a0       ?write@FastWriter@Json@@UAE?AV?$basic_string@DU?$char_traits@D@std@@V?$allocator@D@2@@std@@ABVValue@2@@Z 1003c6a0 f   json_vc71_libmtd:json_writer.obj
 0001:0003b730       ?write@StyledStreamWriter@Json@@QAEXAAV?$basic_ostream@DU?$char_traits@D@std@@@std@@ABVValue@2@@Z 1003c730 f   json_vc71_libmtd:json_writer.obj
 0001:0003b7d0       ?write@StyledWriter@Json@@UAE?AV?$basic_string@DU?$char_traits@D@std@@V?$allocator@D@2@@std@@ABVValue@2@@Z 1003c7d0 f   json_vc71_libmtd:json_writer.obj
 0001:0003b890       ?writeArrayValue@StyledStreamWriter@Json@@AAEXABVValue@2@@Z 1003c890 f   json_vc71_libmtd:json_writer.obj
 0001:0003bb70       ?writeArrayValue@StyledWriter@Json@@AAEXABVValue@2@@Z 1003cb70 f   json_vc71_libmtd:json_writer.obj
 0001:0003be40       ?writeCommentAfterValueOnSameLine@StyledStreamWriter@Json@@AAEXABVValue@2@@Z 1003ce40 f   json_vc71_libmtd:json_writer.obj
 0001:0003c060       ?writeCommentAfterValueOnSameLine@StyledWriter@Json@@AAEXABVValue@2@@Z 1003d060 f   json_vc71_libmtd:json_writer.obj
 0001:0003c270       ?writeCommentBeforeValue@StyledStreamWriter@Json@@AAEXABVValue@2@@Z 1003d270 f   json_vc71_libmtd:json_writer.obj
 0001:0003c3a0       ?writeCommentBeforeValue@StyledWriter@Json@@AAEXABVValue@2@@Z 1003d3a0 f   json_vc71_libmtd:json_writer.obj
 0001:0003c4c0       ?writeIndent@StyledStreamWriter@Json@@AAEXXZ 1003d4c0 f   json_vc71_libmtd:json_writer.obj
 0001:0003c520       ?writeIndent@StyledWriter@Json@@AAEXXZ 1003d520 f   json_vc71_libmtd:json_writer.obj
 0001:0003c5c0       ?writeValue@FastWriter@Json@@AAEXABVValue@2@@Z 1003d5c0 f   json_vc71_libmtd:json_writer.obj
 0001:0003cae0       ?writeValue@StyledStreamWriter@Json@@AAEXABVValue@2@@Z 1003dae0 f   json_vc71_libmtd:json_writer.obj
 0001:0003d010       ?writeValue@StyledWriter@Json@@AAEXABVValue@2@@Z 1003e010 f   json_vc71_libmtd:json_writer.obj
 0001:0003d530       ?writeWithIndent@StyledStreamWriter@Json@@AAEXABV?$basic_string@DU?$char_traits@D@std@@V?$allocator@D@2@@std@@@Z 1003e530 f   json_vc71_libmtd:json_writer.obj
 0001:0003d590       ?writeWithIndent@StyledWriter@Json@@AAEXABV?$basic_string@DU?$char_traits@D@std@@V?$allocator@D@2@@std@@@Z 1003e590 f   json_vc71_libmtd:json_writer.obj
 0001:0003d5e0       ?xsgetn@?$basic_streambuf@DU?$char_traits@D@std@@@std@@MAE_JPAD_J@Z 1003e5e0 f i json_vc71_libmtd:json_writer.obj
 0001:0003d770       ?xsputn@?$basic_streambuf@DU?$char_traits@D@std@@@std@@MAE_JPBD_J@Z 1003e770 f i json_vc71_libmtd:json_writer.obj
 0001:0003d8d0       __vsprintf_s_l             1003e8d0 f i json_vc71_libmtd:json_writer.obj
 0001:0003d950       _fabsl                     1003e950 f i json_vc71_libmtd:json_writer.obj
 0001:0003d9a0       _frexpl                    1003e9a0 f i json_vc71_libmtd:json_writer.obj
 0001:0003d9f0       _sprintf_s                 1003e9f0 f i json_vc71_libmtd:json_writer.obj
 0001:0003da50       ??0_Init_locks@std@@QAE@XZ 1003ea50 f   libcpmtd:xlock.obj
 0001:0003daa0       ??0_Lockit@std@@QAE@H@Z    1003eaa0 f   libcpmtd:xlock.obj
 0001:0003daf0       ??0_Lockit@std@@QAE@XZ     1003eaf0 f   libcpmtd:xlock.obj
 0001:0003db30       ??1_Init_locks@std@@QAE@XZ 1003eb30 f   libcpmtd:xlock.obj
 0001:0003db80       ??1_Lockit@std@@QAE@XZ     1003eb80 f   libcpmtd:xlock.obj
 0001:0003dbc0       ?_Init_locks_ctor@_Init_locks@std@@CAXPAV12@@Z 1003ebc0 f   libcpmtd:xlock.obj
 0001:0003dc10       ?_Init_locks_dtor@_Init_locks@std@@CAXPAV12@@Z 1003ec10 f   libcpmtd:xlock.obj
 0001:0003dc60       ?_Lockit_ctor@_Lockit@std@@CAXPAV12@@Z 1003ec60 f   libcpmtd:xlock.obj
 0001:0003dc80       ?_Lockit_ctor@_Lockit@std@@CAXPAV12@H@Z 1003ec80 f   libcpmtd:xlock.obj
 0001:0003dcc0       ?_Lockit_ctor@_Lockit@std@@SAXH@Z 1003ecc0 f   libcpmtd:xlock.obj
 0001:0003dcf0       ?_Lockit_dtor@_Lockit@std@@CAXPAV12@@Z 1003ecf0 f   libcpmtd:xlock.obj
 0001:0003dd10       ?_Lockit_dtor@_Lockit@std@@SAXH@Z 1003ed10 f   libcpmtd:xlock.obj
 0001:0003dd40       __Lock_at_thread_exit_mutex 1003ed40 f   libcpmtd:xlock.obj
 0001:0003dd60       __Unlock_at_thread_exit_mutex 1003ed60 f   libcpmtd:xlock.obj
 0001:0003dd80       ??0bad_alloc@std@@QAE@ABV01@@Z 1003ed80 f i libcpmtd:xthrow.obj
 0001:0003ddb0       ??0bad_alloc@std@@QAE@XZ   1003edb0 f i libcpmtd:xthrow.obj
 0001:0003dde0       ??0bad_function_call@std@@QAE@ABV01@@Z 1003ede0 f i libcpmtd:xthrow.obj
 0001:0003de10       ??0bad_function_call@std@@QAE@XZ 1003ee10 f i libcpmtd:xthrow.obj
 0001:0003de30       ??0exception@std@@QAE@XZ   1003ee30 f i libcpmtd:xthrow.obj
 0001:0003de60       ??0invalid_argument@std@@QAE@ABV01@@Z 1003ee60 f i libcpmtd:xthrow.obj
 0001:0003de90       ??0invalid_argument@std@@QAE@PBD@Z 1003ee90 f i libcpmtd:xthrow.obj
 0001:0003dec0       ??0length_error@std@@QAE@ABV01@@Z 1003eec0 f i libcpmtd:xthrow.obj
 0001:0003def0       ??0length_error@std@@QAE@PBD@Z 1003eef0 f i libcpmtd:xthrow.obj
 0001:0003df20       ??0logic_error@std@@QAE@ABV01@@Z 1003ef20 f i libcpmtd:xthrow.obj
 0001:0003df50       ??0logic_error@std@@QAE@PBD@Z 1003ef50 f i libcpmtd:xthrow.obj
 0001:0003df80       ??0out_of_range@std@@QAE@ABV01@@Z 1003ef80 f i libcpmtd:xthrow.obj
 0001:0003dfb0       ??0out_of_range@std@@QAE@PBD@Z 1003efb0 f i libcpmtd:xthrow.obj
 0001:0003dfe0       ??0overflow_error@std@@QAE@ABV01@@Z 1003efe0 f i libcpmtd:xthrow.obj
 0001:0003e010       ??0overflow_error@std@@QAE@PBD@Z 1003f010 f i libcpmtd:xthrow.obj
 0001:0003e040       ??0regex_error@std@@QAE@ABV01@@Z 1003f040 f i libcpmtd:xthrow.obj
 0001:0003e080       ??0regex_error@std@@QAE@W4error_type@regex_constants@1@@Z 1003f080 f i libcpmtd:xthrow.obj
 0001:0003e0c0       ??1bad_alloc@std@@UAE@XZ   1003f0c0 f i libcpmtd:xthrow.obj
 0001:0003e0e0       ??1bad_function_call@std@@UAE@XZ 1003f0e0 f i libcpmtd:xthrow.obj
 0001:0003e100       ??1invalid_argument@std@@UAE@XZ 1003f100 f i libcpmtd:xthrow.obj
 0001:0003e120       ??1length_error@std@@UAE@XZ 1003f120 f i libcpmtd:xthrow.obj
 0001:0003e140       ??1logic_error@std@@UAE@XZ 1003f140 f i libcpmtd:xthrow.obj
 0001:0003e160       ??1out_of_range@std@@UAE@XZ 1003f160 f i libcpmtd:xthrow.obj
 0001:0003e180       ??1overflow_error@std@@UAE@XZ 1003f180 f i libcpmtd:xthrow.obj
 0001:0003e1a0       ??1regex_error@std@@UAE@XZ 1003f1a0 f i libcpmtd:xthrow.obj
 0001:0003e1c0       ??_Ebad_alloc@std@@UAEPAXI@Z 1003f1c0 f i libcpmtd:xthrow.obj
 0001:0003e1c0       ??_Gbad_alloc@std@@UAEPAXI@Z 1003f1c0 f i libcpmtd:xthrow.obj
 0001:0003e1f0       ??_Ebad_function_call@std@@UAEPAXI@Z 1003f1f0 f i libcpmtd:xthrow.obj
 0001:0003e1f0       ??_Gbad_function_call@std@@UAEPAXI@Z 1003f1f0 f i libcpmtd:xthrow.obj
 0001:0003e220       ??_Einvalid_argument@std@@UAEPAXI@Z 1003f220 f i libcpmtd:xthrow.obj
 0001:0003e220       ??_Ginvalid_argument@std@@UAEPAXI@Z 1003f220 f i libcpmtd:xthrow.obj
 0001:0003e250       ??_Glength_error@std@@UAEPAXI@Z 1003f250 f i libcpmtd:xthrow.obj
 0001:0003e250       ??_Elength_error@std@@UAEPAXI@Z 1003f250 f i libcpmtd:xthrow.obj
 0001:0003e280       ??_Glogic_error@std@@UAEPAXI@Z 1003f280 f i libcpmtd:xthrow.obj
 0001:0003e280       ??_Elogic_error@std@@UAEPAXI@Z 1003f280 f i libcpmtd:xthrow.obj
 0001:0003e2b0       ??_Eout_of_range@std@@UAEPAXI@Z 1003f2b0 f i libcpmtd:xthrow.obj
 0001:0003e2b0       ??_Gout_of_range@std@@UAEPAXI@Z 1003f2b0 f i libcpmtd:xthrow.obj
 0001:0003e2e0       ??_Eoverflow_error@std@@UAEPAXI@Z 1003f2e0 f i libcpmtd:xthrow.obj
 0001:0003e2e0       ??_Goverflow_error@std@@UAEPAXI@Z 1003f2e0 f i libcpmtd:xthrow.obj
 0001:0003e310       ??_Eregex_error@std@@UAEPAXI@Z 1003f310 f i libcpmtd:xthrow.obj
 0001:0003e310       ??_Gregex_error@std@@UAEPAXI@Z 1003f310 f i libcpmtd:xthrow.obj
 0001:0003e340       ?_Stringify@regex_error@std@@CAPBDW4error_type@regex_constants@2@@Z 1003f340 f i libcpmtd:xthrow.obj
 0001:0003e410       ?_Xbad_alloc@std@@YAXXZ    1003f410 f   libcpmtd:xthrow.obj
 0001:0003e430       ?_Xbad_function_call@std@@YAXXZ 1003f430 f   libcpmtd:xthrow.obj
 0001:0003e450       ?_Xinvalid_argument@std@@YAXPBD@Z 1003f450 f   libcpmtd:xthrow.obj
 0001:0003e480       ?_Xlength_error@std@@YAXPBD@Z 1003f480 f   libcpmtd:xthrow.obj
 0001:0003e4b0       ?_Xout_of_range@std@@YAXPBD@Z 1003f4b0 f   libcpmtd:xthrow.obj
 0001:0003e4e0       ?_Xoverflow_error@std@@YAXPBD@Z 1003f4e0 f   libcpmtd:xthrow.obj
 0001:0003e510       ?_Xregex_error@std@@YAXW4error_type@regex_constants@1@@Z 1003f510 f   libcpmtd:xthrow.obj
 0001:0003e540       ?_Xruntime_error@std@@YAXPBD@Z 1003f540 f   libcpmtd:xthrow.obj
 0001:0003e570       ?__empty_global_delete@@YAXPAXIW4align_val_t@std@@@Z 1003f570 f i libcpmtd:xthrow.obj
 0001:0003e580       ?__empty_global_delete@@YAXPAXW4align_val_t@std@@@Z 1003f580 f i libcpmtd:xthrow.obj
 0001:0003e590       ?what@bad_function_call@std@@UBEPBDXZ 1003f590 f i libcpmtd:xthrow.obj
 0001:0003e5a0       ?uncaught_exception@std@@YA_NXZ 1003f5a0 f   libcpmtd:uncaught_exception.obj
 0001:0003e5b0       __Getctype                 1003f5b0 f   libcpmtd:_tolower.obj
 0001:0003e670       __Tolower                  1003f670 f   libcpmtd:_tolower.obj
 0001:0003e860       __Toupper                  1003f860 f   libcpmtd:_toupper.obj
 0001:0003ea50       ??0?$_Yarn@D@std@@QAE@PBD@Z 1003fa50 f i libcpmtd:locale0.obj
 0001:0003ea80       ??0_Fac_node@std@@QAE@PAU01@PAV_Facet_base@1@@Z 1003fa80 f i libcpmtd:locale0.obj
 0001:0003eab0       ??0_Locimp@locale@std@@AAE@ABV012@@Z 1003fab0 f i libcpmtd:locale0.obj
 0001:0003eb70       ??0_Locimp@locale@std@@AAE@_N@Z 1003fb70 f i libcpmtd:locale0.obj
 0001:0003ec10       ??0locale@std@@AAE@PAV_Locimp@01@@Z 1003fc10 f i libcpmtd:locale0.obj
 0001:0003ec30       ??0locale@std@@QAE@W4_Uninitialized@1@@Z 1003fc30 f i libcpmtd:locale0.obj
 0001:0003ec40       ??1_Fac_node@std@@QAE@XZ   1003fc40 f i libcpmtd:locale0.obj
 0001:0003ece0       ??1_Fac_tidy_reg_t@std@@QAE@XZ 1003fce0 f i libcpmtd:locale0.obj
 0001:0003ed40       ??1_Locimp@locale@std@@MAE@XZ 1003fd40 f i libcpmtd:locale0.obj
 0001:0003eda0       ??2_Fac_node@std@@SAPAXI@Z 1003fda0 f i libcpmtd:locale0.obj
 0001:0003edf0       ??3_Fac_node@std@@SAXPAX@Z 1003fdf0 f i libcpmtd:locale0.obj
 0001:0003ee10       ??4?$_Yarn@D@std@@QAEAAV01@PBD@Z 1003fe10 f i libcpmtd:locale0.obj
 0001:0003eeb0       ??_G_Fac_node@std@@QAEPAXI@Z 1003feb0 f i libcpmtd:locale0.obj
 0001:0003ef00       ??_G_Locimp@locale@std@@MAEPAXI@Z 1003ff00 f i libcpmtd:locale0.obj
 0001:0003ef00       ??_E_Locimp@locale@std@@MAEPAXI@Z 1003ff00 f i libcpmtd:locale0.obj
 0001:0003ef50       ?_C_str@?$_Yarn@D@std@@QBEPBDXZ 1003ff50 f i libcpmtd:locale0.obj
 0001:0003ef80       ?_Empty@?$_Yarn@D@std@@QBE_NXZ 1003ff80 f i libcpmtd:locale0.obj
 0001:0003efb0       ?_Facet_Register@std@@YAXPAV_Facet_base@1@@Z 1003ffb0 f   libcpmtd:locale0.obj
 0001:0003f040       ?_Getgloballocale@locale@std@@CAPAV_Locimp@12@XZ 10040040 f   libcpmtd:locale0.obj
 0001:0003f050       ?_Init@locale@std@@CAPAV_Locimp@12@_N@Z 10040050 f   libcpmtd:locale0.obj
 0001:0003f160       ?_Locimp_dtor@_Locimp@locale@std@@CAXPAV123@@Z 10040160 f   libcpmtd:locale0.obj
 0001:0003f260       ?_Locinfo_ctor@_Locinfo@std@@SAXPAV12@PBD@Z 10040260 f   libcpmtd:locale0.obj
 0001:0003f2e0       ?_Locinfo_dtor@_Locinfo@std@@SAXPAV12@@Z 100402e0 f   libcpmtd:locale0.obj
 0001:0003f310       ?_New_Locimp@_Locimp@locale@std@@CAPAV123@ABV123@@Z 10040310 f   libcpmtd:locale0.obj
 0001:0003f390       ?_New_Locimp@_Locimp@locale@std@@CAPAV123@_N@Z 10040390 f   libcpmtd:locale0.obj
 0001:0003f410       ?_Setgloballocale@locale@std@@CAXPAX@Z 10040410 f   libcpmtd:locale0.obj
 0001:0003f440       ?classic@locale@std@@SAABV12@XZ 10040440 f   libcpmtd:locale0.obj
 0001:0003f460       ?empty@locale@std@@SA?AV12@XZ 10040460 f   libcpmtd:locale0.obj
 0001:0003f4a0       __Deletegloballocale       100404a0 f   libcpmtd:locale0.obj
 0001:0003f550       ??$_Immortalize@V_Generic_error_category@std@@@std@@YAAAV_Generic_error_category@0@XZ 10040550 f i libcpmtd:xonce.obj
 0001:0003f580       ??$_Immortalize@V_System_error_category@std@@@std@@YAAAV_System_error_category@0@XZ 10040580 f i libcpmtd:xonce.obj
 0001:0003f5b0       ??$_Immortalize_impl@V_Generic_error_category@std@@@std@@YGHPAX0PAPAX@Z 100405b0 f i libcpmtd:xonce.obj
 0001:0003f5e0       ??$_Immortalize_impl@V_System_error_category@std@@@std@@YGHPAX0PAPAX@Z 100405e0 f i libcpmtd:xonce.obj
 0001:0003fa70       ??0_System_error_category@std@@QAE@XZ 10040a70 f i libcpmtd:xonce.obj
 0001:0003faa0       ??0system_error@std@@QAE@Verror_code@1@@Z 10040aa0 f i libcpmtd:xonce.obj
 0001:0003fb30       ??1_System_error_category@std@@UAE@XZ 10040b30 f i libcpmtd:xonce.obj
 0001:0003fc90       ??_E_System_error_category@std@@UAEPAXI@Z 10040c90 f i libcpmtd:xonce.obj
 0001:0003fc90       ??_G_System_error_category@std@@UAEPAXI@Z 10040c90 f i libcpmtd:xonce.obj
 0001:0003fcc0       ?_Execute_once@std@@YAHAAUonce_flag@1@P6GHPAX1PAPAX@Z1@Z 10040cc0 f   libcpmtd:xonce.obj
 0001:0003fce0       ?_XGetLastError@std@@YAXXZ 10040ce0 f   libcpmtd:xonce.obj
 0001:0003fd20       ?default_error_condition@_System_error_category@std@@UBE?AVerror_condition@2@H@Z 10040d20 f i libcpmtd:xonce.obj
 0001:0003fda0       ?generic_category@std@@YAABVerror_category@1@XZ 10040da0 f i libcpmtd:xonce.obj
 0001:0003fde0       ?message@_System_error_category@std@@UBE?AV?$basic_string@DU?$char_traits@D@std@@V?$allocator@D@2@@2@H@Z 10040de0 f i libcpmtd:xonce.obj
 0001:0003fec0       ?name@_System_error_category@std@@UBEPBDXZ 10040ec0 f i libcpmtd:xonce.obj
 0001:0003fed0       ?shrink_to_fit@?$basic_string@DU?$char_traits@D@std@@V?$allocator@D@2@@std@@QAEXXZ 10040ed0 f i libcpmtd:xonce.obj
 0001:0003ffd0       ?system_category@std@@YAABVerror_category@1@XZ 10040fd0 f i libcpmtd:xonce.obj
 0001:00040010       ??$?0$$V@?$_Compressed_pair@V?$allocator@_W@std@@V?$_String_val@U?$_Simple_types@_W@std@@@2@$00@std@@QAE@U_Zero_then_variadic_args_t@1@@Z 10041010 f i libcpmtd:syserror.obj
 0001:00040030       ??$?0_W@?$allocator@U_Container_proxy@std@@@std@@QAE@ABV?$allocator@_W@1@@Z 10041030 f i libcpmtd:syserror.obj
 0001:00040040       ??$_Get_size_of_n@$01@std@@YAII@Z 10041040 f i libcpmtd:syserror.obj
 0001:00040160       ??$_Unfancy@_W@std@@YAPA_WPA_W@Z 10041160 f i libcpmtd:syserror.obj
 0001:00040170       ??$addressof@PA_W@std@@YAPAPA_WAAPA_W@Z 10041170 f i libcpmtd:syserror.obj
 0001:00040180       ??$addressof@V?$_String_val@U?$_Simple_types@_W@std@@@std@@@std@@YAPAV?$_String_val@U?$_Simple_types@_W@std@@@0@AAV10@@Z 10041180 f i libcpmtd:syserror.obj
 0001:00040190       ??$construct@PA_WABQA_W@?$_Default_allocator_traits@V?$allocator@_W@std@@@std@@SAXAAV?$allocator@_W@1@QAPA_WABQA_W@Z 10041190 f i libcpmtd:syserror.obj
 0001:000401c0       ??$destroy@PA_W@?$_Default_allocator_traits@V?$allocator@_W@std@@@std@@SAXAAV?$allocator@_W@1@QAPA_W@Z 100411c0 f i libcpmtd:syserror.obj
 0001:000401d0       ??$end@$$CBU_Sys_errtab_t@std@@$0EO@@std@@YAPBU_Sys_errtab_t@0@AAY0EO@$$CBU10@@Z 100411d0 f i libcpmtd:syserror.obj
 0001:000401e0       ??$end@$$CBU_Win_errtab_t@std@@$0EN@@std@@YAPBU_Win_errtab_t@0@AAY0EN@$$CBU10@@Z 100411e0 f i libcpmtd:syserror.obj
 0001:000401f0       ??$forward@ABQA_W@std@@YAABQA_WABQA_W@Z 100411f0 f i libcpmtd:syserror.obj
 0001:00040200       ??0?$_String_alloc@U?$_String_base_types@_WV?$allocator@_W@std@@@std@@@std@@QAE@XZ 10041200 f i libcpmtd:syserror.obj
 0001:00040270       ??0?$_String_val@U?$_Simple_types@_W@std@@@std@@QAE@XZ 10041270 f i libcpmtd:syserror.obj
 0001:000402b0       ??0?$allocator@_W@std@@QAE@XZ 100412b0 f i libcpmtd:syserror.obj
 0001:000402c0       ??0?$basic_string@_WU?$char_traits@_W@std@@V?$allocator@_W@2@@std@@QAE@I_W@Z 100412c0 f i libcpmtd:syserror.obj
 0001:00040330       ??0_Bxty@?$_String_val@U?$_Simple_types@_W@std@@@std@@QAE@XZ 10041330 f i libcpmtd:syserror.obj
 0001:00040340       ??1?$_Compressed_pair@V?$allocator@_W@std@@V?$_String_val@U?$_Simple_types@_W@std@@@2@$00@std@@QAE@XZ 10041340 f i libcpmtd:syserror.obj
 0001:00040360       ??1?$_String_alloc@U?$_String_base_types@_WV?$allocator@_W@std@@@std@@@std@@QAE@XZ 10041360 f i libcpmtd:syserror.obj
 0001:000403b0       ??1?$_String_val@U?$_Simple_types@_W@std@@@std@@QAE@XZ 100413b0 f i libcpmtd:syserror.obj
 0001:000403d0       ??1?$basic_string@_WU?$char_traits@_W@std@@V?$allocator@_W@2@@std@@QAE@XZ 100413d0 f i libcpmtd:syserror.obj
 0001:00040420       ??1_Bxty@?$_String_val@U?$_Simple_types@_W@std@@@std@@QAE@XZ 10041420 f i libcpmtd:syserror.obj
 0001:00040430       ??A?$basic_string@_WU?$char_traits@_W@std@@V?$allocator@_W@2@@std@@QAEAA_WI@Z 10041430 f i libcpmtd:syserror.obj
 0001:00040500       ?_Alloc_proxy@?$_String_alloc@U?$_String_base_types@_WV?$allocator@_W@std@@@std@@@std@@QAEXXZ 10041500 f i libcpmtd:syserror.obj
 0001:00040580       ?_Calculate_growth@?$basic_string@_WU?$char_traits@_W@std@@V?$allocator@_W@2@@std@@QBEII@Z 10041580 f i libcpmtd:syserror.obj
 0001:00040600       ?_Free_proxy@?$_String_alloc@U?$_String_base_types@_WV?$allocator@_W@std@@@std@@@std@@QAEXXZ 10041600 f i libcpmtd:syserror.obj
 0001:00040670       ?_Get_data@?$_String_alloc@U?$_String_base_types@_WV?$allocator@_W@std@@@std@@@std@@QAEAAV?$_String_val@U?$_Simple_types@_W@std@@@2@XZ 10041670 f i libcpmtd:syserror.obj
 0001:00040690       ?_Get_data@?$_String_alloc@U?$_String_base_types@_WV?$allocator@_W@std@@@std@@@std@@QBEABV?$_String_val@U?$_Simple_types@_W@std@@@2@XZ 10041690 f i libcpmtd:syserror.obj
 0001:000406b0       ?_Get_first@?$_Compressed_pair@V?$allocator@_W@std@@V?$_String_val@U?$_Simple_types@_W@std@@@2@$00@std@@QAEAAV?$allocator@_W@2@XZ 100416b0 f i libcpmtd:syserror.obj
 0001:000406c0       ?_Get_first@?$_Compressed_pair@V?$allocator@_W@std@@V?$_String_val@U?$_Simple_types@_W@std@@@2@$00@std@@QBEABV?$allocator@_W@2@XZ 100416c0 f i libcpmtd:syserror.obj
 0001:000406d0       ?_Get_second@?$_Compressed_pair@V?$allocator@_W@std@@V?$_String_val@U?$_Simple_types@_W@std@@@2@$00@std@@QAEAAV?$_String_val@U?$_Simple_types@_W@std@@@2@XZ 100416d0 f i libcpmtd:syserror.obj
 0001:000406e0       ?_Get_second@?$_Compressed_pair@V?$allocator@_W@std@@V?$_String_val@U?$_Simple_types@_W@std@@@2@$00@std@@QBEABV?$_String_val@U?$_Simple_types@_W@std@@@2@XZ 100416e0 f i libcpmtd:syserror.obj
 0001:000406f0       ?_Getal@?$_String_alloc@U?$_String_base_types@_WV?$allocator@_W@std@@@std@@@std@@QAEAAV?$allocator@_W@2@XZ 100416f0 f i libcpmtd:syserror.obj
 0001:00040710       ?_Getal@?$_String_alloc@U?$_String_base_types@_WV?$allocator@_W@std@@@std@@@std@@QBEABV?$allocator@_W@2@XZ 10041710 f i libcpmtd:syserror.obj
 0001:00040730       ?_Large_string_engaged@?$_String_val@U?$_Simple_types@_W@std@@@std@@QBE_NXZ 10041730 f i libcpmtd:syserror.obj
 0001:00040760       ?_Myproxy@?$_String_alloc@U?$_String_base_types@_WV?$allocator@_W@std@@@std@@@std@@QAEAAPAU_Container_proxy@2@XZ 10041760 f i libcpmtd:syserror.obj
 0001:00040780       ?_Myptr@?$_String_val@U?$_Simple_types@_W@std@@@std@@QAEPA_WXZ 10041780 f i libcpmtd:syserror.obj
 0001:000407c0       ?_Orphan_all@?$_String_alloc@U?$_String_base_types@_WV?$allocator@_W@std@@@std@@@std@@QAEXXZ 100417c0 f i libcpmtd:syserror.obj
 0001:000407e0       ?_Syserror_map@std@@YAPBDH@Z 100417e0 f   libcpmtd:syserror.obj
 0001:00040830       ?_Tidy_deallocate@?$basic_string@_WU?$char_traits@_W@std@@V?$allocator@_W@2@@std@@QAEXXZ 10041830 f i libcpmtd:syserror.obj
 0001:000408e0       ?_Tidy_init@?$basic_string@_WU?$char_traits@_W@std@@V?$allocator@_W@2@@std@@QAEXXZ 100418e0 f i libcpmtd:syserror.obj
 0001:00040930       ?_Winerror_map@std@@YAHH@Z 10041930 f   libcpmtd:syserror.obj
 0001:00040980       ?_Winerror_message@std@@YAKKPADK@Z 10041980 f   libcpmtd:syserror.obj
 0001:00040a80       ?_Xlen@?$basic_string@_WU?$char_traits@_W@std@@V?$allocator@_W@2@@std@@SAXXZ 10041a80 f i libcpmtd:syserror.obj
 0001:00040a90       ?allocate@?$allocator@_W@std@@QAEPA_WI@Z 10041a90 f i libcpmtd:syserror.obj
 0001:00040ac0       ?assign@?$_WChar_traits@_W@std@@SAPA_WQA_WI_W@Z 10041ac0 f i libcpmtd:syserror.obj
 0001:00040ae0       ?assign@?$_WChar_traits@_W@std@@SAXAA_WAB_W@Z 10041ae0 f i libcpmtd:syserror.obj
 0001:00040b00       ?assign@?$basic_string@_WU?$char_traits@_W@std@@V?$allocator@_W@2@@std@@QAEAAV12@I_W@Z 10041b00 f i libcpmtd:syserror.obj
 0001:00040b90       ?deallocate@?$allocator@_W@std@@QAEXQA_WI@Z 10041b90 f i libcpmtd:syserror.obj
 0001:00040bb0       ?max_size@?$_Default_allocator_traits@V?$allocator@_W@std@@@std@@SAIABV?$allocator@_W@2@@Z 10041bb0 f i libcpmtd:syserror.obj
 0001:00040bc0       ?max_size@?$basic_string@_WU?$char_traits@_W@std@@V?$allocator@_W@2@@std@@QBEIXZ 10041bc0 f i libcpmtd:syserror.obj
 0001:00040c20       _wmemset                   10041c20 f i libcpmtd:syserror.obj
 0001:00040c60       __Getcvt                   10041c60 f   libcpmtd:xwctomb.obj
 0001:00040d40       __Wcrtomb                  10041d40 f   libcpmtd:xwctomb.obj
 0001:00040e10       ___Wcrtomb_lk              10041e10 f   libcpmtd:xwctomb.obj
 0001:00040e30       ?_Addstd@ios_base@std@@SAXPAV12@@Z 10041e30 f   libcpmtd:ios.obj
 0001:00040ed0       ?_Callfns@ios_base@std@@AAEXW4event@12@@Z 10041ed0 f i libcpmtd:ios.obj
 0001:00040f30       ?_Ios_base_dtor@ios_base@std@@CAXPAV12@@Z 10041f30 f   libcpmtd:ios.obj
 0001:00040fa0       ?_Tidy@ios_base@std@@AAEXXZ 10041fa0 f i libcpmtd:ios.obj
 0001:00041040       ??0?$_Smanip@H@std@@QAE@P6AXAAVios_base@1@H@ZH@Z 10042040 f i libcpmtd:iomanip.obj
 0001:00041070       ??0?$_Smanip@_J@std@@QAE@P6AXAAVios_base@1@_J@Z1@Z 10042070 f i libcpmtd:iomanip.obj
 0001:000410a0       ?precision@ios_base@std@@QAE_J_J@Z 100420a0 f i libcpmtd:iomanip.obj
 0001:000410e0       ?resetiosflags@std@@YA?AU?$_Smanip@H@1@H@Z 100420e0 f   libcpmtd:iomanip.obj
 0001:00041180       ?setbase@std@@YA?AU?$_Smanip@H@1@H@Z 10042180 f   libcpmtd:iomanip.obj
 0001:000411a0       ?setiosflags@std@@YA?AU?$_Smanip@H@1@H@Z 100421a0 f   libcpmtd:iomanip.obj
 0001:000411c0       ?setprecision@std@@YA?AU?$_Smanip@_J@1@_J@Z 100421c0 f   libcpmtd:iomanip.obj
 0001:000411e0       ?setw@std@@YA?AU?$_Smanip@_J@1@_J@Z 100421e0 f   libcpmtd:iomanip.obj
 0001:00041260       __Mtxdst                   10042260 f   libcpmtd:xmtx.obj
 0001:00041270       __Mtxinit                  10042270 f   libcpmtd:xmtx.obj
 0001:00041290       __Mtxlock                  10042290 f   libcpmtd:xmtx.obj
 0001:000412a0       __Mtxunlock                100422a0 f   libcpmtd:xmtx.obj
 0001:000412b0       ??0?$__crt_scoped_stack_ptr@_W@@QAE@U?$__crt_scoped_stack_ptr_tag@_W@@@Z 100422b0 f i libcpmtd:StlLCMapStringA.obj
 0001:000412d0       ??0?$__crt_scoped_stack_ptr_tag@_W@@QAE@QA_W@Z 100422d0 f i libcpmtd:StlLCMapStringA.obj
 0001:000412f0       ??1?$__crt_scoped_stack_ptr@_W@@QAE@XZ 100422f0 f i libcpmtd:StlLCMapStringA.obj
 0001:00041310       ??B?$__crt_scoped_stack_ptr@_W@@QBE_NXZ 10042310 f i libcpmtd:StlLCMapStringA.obj
 0001:00041340       ?get@?$__crt_scoped_stack_ptr@_W@@QBEPA_WXZ 10042340 f i libcpmtd:StlLCMapStringA.obj
 0001:00041350       __MallocaComputeSize       10042350 f i libcpmtd:StlLCMapStringA.obj
 0001:00041380       __MarkAllocaS              10042380 f i libcpmtd:StlLCMapStringA.obj
 0001:000413a0       ___crtLCMapStringA         100423a0 f   libcpmtd:StlLCMapStringA.obj
 0001:00041730       __freea_crt                10042730 f i libcpmtd:StlLCMapStringA.obj
 0001:000417a0       ??$?8DU?$char_traits@D@std@@@std@@YA_NABV?$istreambuf_iterator@DU?$char_traits@D@std@@@0@0@Z 100427a0 f i libcpmtd:locale.obj
 0001:000417c0       ??$?9DU?$char_traits@D@std@@@std@@YA_NABV?$istreambuf_iterator@DU?$char_traits@D@std@@@0@0@Z 100427c0 f i libcpmtd:locale.obj
 0001:00041800       ??$_Adl_verify_range@V?$istreambuf_iterator@DU?$char_traits@D@std@@@std@@V12@@std@@YAXABV?$istreambuf_iterator@DU?$char_traits@D@std@@@0@0@Z 10042800 f i libcpmtd:locale.obj
 0001:00041810       ??$_Find_elem@D$0BL@@std@@YAIAAY0BL@$$CBDD@Z 10042810 f i libcpmtd:locale.obj
 0001:00041830       ??$_Find_elem@D$0BN@@std@@YAIAAY0BN@$$CBDD@Z 10042830 f i libcpmtd:locale.obj
 0001:00041850       ??$_Find_elem@D$0P@@std@@YAIAAY0P@$$CBDD@Z 10042850 f i libcpmtd:locale.obj
 0001:00041870       ??$_Find_unchecked1@PBDD@std@@YAPBDPBDQBDABDU?$integral_constant@_N$00@0@@Z 10042870 f i libcpmtd:locale.obj
 0001:000418d0       ??$_Find_unchecked@PBDD@std@@YAPBDQBD0ABD@Z 100428d0 f i libcpmtd:locale.obj
 0001:00041900       ??$_Getloctxt@DV?$istreambuf_iterator@DU?$char_traits@D@std@@@std@@@std@@YAHAAV?$istreambuf_iterator@DU?$char_traits@D@std@@@0@0IPBD@Z 10042900 f i libcpmtd:locale.obj
 0001:00042230       ??$_Within_limits@D@std@@YA_NABDU?$integral_constant@_N$00@0@1U_Unused_parameter@0@@Z 10043230 f i libcpmtd:locale.obj
 0001:00042270       ??$_Within_limits@PBDD@std@@YA_NPBDABD@Z 10043270 f i libcpmtd:locale.obj
 0001:000422b0       ??$use_facet@V?$codecvt@DDU_Mbstatet@@@std@@@std@@YAABV?$codecvt@DDU_Mbstatet@@@0@ABVlocale@0@@Z 100432b0 f i libcpmtd:locale.obj
 0001:000423e0       ??$use_facet@V?$num_get@DV?$istreambuf_iterator@DU?$char_traits@D@std@@@std@@@std@@@std@@YAABV?$num_get@DV?$istreambuf_iterator@DU?$char_traits@D@std@@@std@@@0@ABVlocale@0@@Z 100433e0 f i libcpmtd:locale.obj
 0001:00042510       ??0?$codecvt@DDU_Mbstatet@@@std@@QAE@ABV_Locinfo@1@I@Z 10043510 f i libcpmtd:locale.obj
 0001:00042580       ??0?$num_get@DV?$istreambuf_iterator@DU?$char_traits@D@std@@@std@@@std@@QAE@ABV_Locinfo@1@I@Z 10043580 f i libcpmtd:locale.obj
 0001:000425f0       ??0codecvt_base@std@@QAE@I@Z 100435f0 f i libcpmtd:locale.obj
 0001:00042620       ??1?$codecvt@DDU_Mbstatet@@@std@@MAE@XZ 10043620 f i libcpmtd:locale.obj
 0001:00042640       ??1?$num_get@DV?$istreambuf_iterator@DU?$char_traits@D@std@@@std@@@std@@MAE@XZ 10043640 f i libcpmtd:locale.obj
 0001:00042660       ??1codecvt_base@std@@UAE@XZ 10043660 f i libcpmtd:locale.obj
 0001:00042680       ??D?$istreambuf_iterator@DU?$char_traits@D@std@@@std@@QBEDXZ 10043680 f i libcpmtd:locale.obj
 0001:00042700       ??E?$istreambuf_iterator@DU?$char_traits@D@std@@@std@@QAEAAV01@XZ 10043700 f i libcpmtd:locale.obj
 0001:00042970       ??_E?$codecvt@DDU_Mbstatet@@@std@@MAEPAXI@Z 10043970 f i libcpmtd:locale.obj
 0001:00042970       ??_G?$codecvt@DDU_Mbstatet@@@std@@MAEPAXI@Z 10043970 f i libcpmtd:locale.obj
 0001:000429c0       ??_G?$num_get@DV?$istreambuf_iterator@DU?$char_traits@D@std@@@std@@@std@@MAEPAXI@Z 100439c0 f i libcpmtd:locale.obj
 0001:000429c0       ??_E?$num_get@DV?$istreambuf_iterator@DU?$char_traits@D@std@@@std@@@std@@MAEPAXI@Z 100439c0 f i libcpmtd:locale.obj
 0001:00042a10       ??_Ecodecvt_base@std@@UAEPAXI@Z 10043a10 f i libcpmtd:locale.obj
 0001:00042a10       ??_Gcodecvt_base@std@@UAEPAXI@Z 10043a10 f i libcpmtd:locale.obj
 0001:00042a60       ?_Addfac@_Locimp@locale@std@@AAEXPAVfacet@23@I@Z 10043a60 f i libcpmtd:locale.obj
 0001:00042a90       ?_Getcat@?$codecvt@DDU_Mbstatet@@@std@@SAIPAPBVfacet@locale@2@PBV42@@Z 10043a90 f i libcpmtd:locale.obj
 0001:00042b80       ?_Getcat@?$num_get@DV?$istreambuf_iterator@DU?$char_traits@D@std@@@std@@@std@@SAIPAPBVfacet@locale@2@PBV42@@Z 10043b80 f i libcpmtd:locale.obj
 0001:00042c70       ?_Getffld@?$num_get@DV?$istreambuf_iterator@DU?$char_traits@D@std@@@std@@@std@@ABAHPADAAV?$istreambuf_iterator@DU?$char_traits@D@std@@@2@1AAVios_base@2@PAH@Z 10043c70 f i libcpmtd:locale.obj
 0001:00043590       ?_Getffldx@?$num_get@DV?$istreambuf_iterator@DU?$char_traits@D@std@@@std@@@std@@ABAHPADAAV?$istreambuf_iterator@DU?$char_traits@D@std@@@2@1AAVios_base@2@PAH@Z 10044590 f i libcpmtd:locale.obj
 0001:00043ee0       ?_Getifld@?$num_get@DV?$istreambuf_iterator@DU?$char_traits@D@std@@@std@@@std@@ABAHPADAAV?$istreambuf_iterator@DU?$char_traits@D@std@@@2@1HABVlocale@2@@Z 10044ee0 f i libcpmtd:locale.obj
 0001:00044430       ?_Getname@_Locinfo@std@@QBEPBDXZ 10045430 f i libcpmtd:locale.obj
 0001:00044450       ?_Inc@?$istreambuf_iterator@DU?$char_traits@D@std@@@std@@AAEXXZ 10045450 f i libcpmtd:locale.obj
 0001:000444b0       ?_Init@?$codecvt@DDU_Mbstatet@@@std@@IAEXABV_Locinfo@2@@Z 100454b0 f i libcpmtd:locale.obj
 0001:000444c0       ?_Init@?$num_get@DV?$istreambuf_iterator@DU?$char_traits@D@std@@@std@@@std@@IAEXABV_Locinfo@2@@Z 100454c0 f i libcpmtd:locale.obj
 0001:000444d0       ?_Locimp_Addfac@_Locimp@locale@std@@CAXPAV123@PAVfacet@23@I@Z 100454d0 f   libcpmtd:locale.obj
 0001:00044660       ?_Locimp_ctor@_Locimp@locale@std@@CAXPAV123@ABV123@@Z 10045660 f   libcpmtd:locale.obj
 0001:000447a0       ?_Locinfo_Addcats@_Locinfo@std@@SAAAV12@PAV12@HPBD@Z 100457a0 f   libcpmtd:locale.obj
 0001:000448b0       ?_Locinfo_ctor@_Locinfo@std@@SAXPAV12@HPBD@Z 100458b0 f   libcpmtd:locale.obj
 0001:00044910       ?_Makeloc@_Locimp@locale@std@@CAPAV123@ABV_Locinfo@3@HPAV123@PBV23@@Z 10045910 f   libcpmtd:locale.obj
 0001:00044d20       ?_Peek@?$istreambuf_iterator@DU?$char_traits@D@std@@@std@@ABEDXZ 10045d20 f i libcpmtd:locale.obj
 0001:00044d90       ?_Stodx_v2@std@@YANPBDPAPADHPAH@Z 10045d90 f i libcpmtd:locale.obj
 0001:00044e10       ?_Stofx_v2@std@@YAMPBDPAPADHPAH@Z 10045e10 f i libcpmtd:locale.obj
 0001:00044e90       ?do_always_noconv@?$codecvt@DDU_Mbstatet@@@std@@MBE_NXZ 10045e90 f i libcpmtd:locale.obj
 0001:00044ea0       ?do_always_noconv@codecvt_base@std@@MBE_NXZ 10045ea0 f i libcpmtd:locale.obj
 0001:00044eb0       ?do_encoding@codecvt_base@std@@MBEHXZ 10045eb0 f i libcpmtd:locale.obj
 0001:00044ec0       ?do_get@?$num_get@DV?$istreambuf_iterator@DU?$char_traits@D@std@@@std@@@std@@MBE?AV?$istreambuf_iterator@DU?$char_traits@D@std@@@2@V32@0AAVios_base@2@AAHAAG@Z 10045ec0 f i libcpmtd:locale.obj
 0001:00045070       ?do_get@?$num_get@DV?$istreambuf_iterator@DU?$char_traits@D@std@@@std@@@std@@MBE?AV?$istreambuf_iterator@DU?$char_traits@D@std@@@2@V32@0AAVios_base@2@AAHAAI@Z 10046070 f i libcpmtd:locale.obj
 0001:000450d0       ?do_get@?$num_get@DV?$istreambuf_iterator@DU?$char_traits@D@std@@@std@@@std@@MBE?AV?$istreambuf_iterator@DU?$char_traits@D@std@@@2@V32@0AAVios_base@2@AAHAAJ@Z 100460d0 f i libcpmtd:locale.obj
 0001:00045210       ?do_get@?$num_get@DV?$istreambuf_iterator@DU?$char_traits@D@std@@@std@@@std@@MBE?AV?$istreambuf_iterator@DU?$char_traits@D@std@@@2@V32@0AAVios_base@2@AAHAAK@Z 10046210 f i libcpmtd:locale.obj
 0001:00045350       ?do_get@?$num_get@DV?$istreambuf_iterator@DU?$char_traits@D@std@@@std@@@std@@MBE?AV?$istreambuf_iterator@DU?$char_traits@D@std@@@2@V32@0AAVios_base@2@AAHAAM@Z 10046350 f i libcpmtd:locale.obj
 0001:000454b0       ?do_get@?$num_get@DV?$istreambuf_iterator@DU?$char_traits@D@std@@@std@@@std@@MBE?AV?$istreambuf_iterator@DU?$char_traits@D@std@@@2@V32@0AAVios_base@2@AAHAAN@Z 100464b0 f i libcpmtd:locale.obj
 0001:00045610       ?do_get@?$num_get@DV?$istreambuf_iterator@DU?$char_traits@D@std@@@std@@@std@@MBE?AV?$istreambuf_iterator@DU?$char_traits@D@std@@@2@V32@0AAVios_base@2@AAHAAO@Z 10046610 f i libcpmtd:locale.obj
 0001:00045670       ?do_get@?$num_get@DV?$istreambuf_iterator@DU?$char_traits@D@std@@@std@@@std@@MBE?AV?$istreambuf_iterator@DU?$char_traits@D@std@@@2@V32@0AAVios_base@2@AAHAAPAX@Z 10046670 f i libcpmtd:locale.obj
 0001:000457b0       ?do_get@?$num_get@DV?$istreambuf_iterator@DU?$char_traits@D@std@@@std@@@std@@MBE?AV?$istreambuf_iterator@DU?$char_traits@D@std@@@2@V32@0AAVios_base@2@AAHAA_J@Z 100467b0 f i libcpmtd:locale.obj
 0001:00045900       ?do_get@?$num_get@DV?$istreambuf_iterator@DU?$char_traits@D@std@@@std@@@std@@MBE?AV?$istreambuf_iterator@DU?$char_traits@D@std@@@2@V32@0AAVios_base@2@AAHAA_K@Z 10046900 f i libcpmtd:locale.obj
 0001:00045a50       ?do_get@?$num_get@DV?$istreambuf_iterator@DU?$char_traits@D@std@@@std@@@std@@MBE?AV?$istreambuf_iterator@DU?$char_traits@D@std@@@2@V32@0AAVios_base@2@AAHAA_N@Z 10046a50 f i libcpmtd:locale.obj
 0001:00045d70       ?do_in@?$codecvt@DDU_Mbstatet@@@std@@MBEHAAU_Mbstatet@@PBD1AAPBDPAD3AAPAD@Z 10046d70 f i libcpmtd:locale.obj
 0001:00045de0       ?do_length@?$codecvt@DDU_Mbstatet@@@std@@MBEHAAU_Mbstatet@@PBD1I@Z 10046de0 f i libcpmtd:locale.obj
 0001:00045e10       ?do_max_length@codecvt_base@std@@MBEHXZ 10046e10 f i libcpmtd:locale.obj
 0001:00045e20       ?do_out@?$codecvt@DDU_Mbstatet@@@std@@MBEHAAU_Mbstatet@@PBD1AAPBDPAD3AAPAD@Z 10046e20 f i libcpmtd:locale.obj
 0001:00045e90       ?do_unshift@?$codecvt@DDU_Mbstatet@@@std@@MBEHAAU_Mbstatet@@PAD1AAPAD@Z 10046e90 f i libcpmtd:locale.obj
 0001:00045eb0       ?equal@?$istreambuf_iterator@DU?$char_traits@D@std@@@std@@QBE_NABV12@@Z 10046eb0 f i libcpmtd:locale.obj
 0001:00045f20       ?global@locale@std@@SA?AV12@ABV12@@Z 10046f20 f   libcpmtd:locale.obj
 0001:000460d0       _ldexpf                    100470d0 f i libcpmtd:locale.obj
 0001:00046100       _powf                      10047100 f i libcpmtd:locale.obj
 0001:00046130       ??1_Init_atexit@@QAE@XZ    10047130 f i libcpmtd:iosptrs.obj
 0001:000461c0       ?_Atexit@@YAXP6AXXZ@Z      100471c0 f   libcpmtd:iosptrs.obj
 0001:00046790       ___crtAcquireSRWLockExclusive 10047790 f   libcpmtd:winapisupp.obj
 0001:000467d0       ___crtCloseThreadpoolTimer 100477d0 f   libcpmtd:winapisupp.obj
 0001:00046810       ___crtCloseThreadpoolWait  10047810 f   libcpmtd:winapisupp.obj
 0001:00046850       ___crtCloseThreadpoolWork  10047850 f   libcpmtd:winapisupp.obj
 0001:00046890       ___crtCreateEventExW       10047890 f   libcpmtd:winapisupp.obj
 0001:00046900       ___crtCreateSemaphoreExW   10047900 f   libcpmtd:winapisupp.obj
 0001:00046990       ___crtCreateSymbolicLinkW  10047990 f   libcpmtd:winapisupp.obj
 0001:000469e0       ___crtCreateThreadpoolTimer 100479e0 f   libcpmtd:winapisupp.obj
 0001:00046a30       ___crtCreateThreadpoolWait 10047a30 f   libcpmtd:winapisupp.obj
 0001:00046a80       ___crtCreateThreadpoolWork 10047a80 f   libcpmtd:winapisupp.obj
 0001:00046ac0       ___crtFlsAlloc             10047ac0 f   libcpmtd:winapisupp.obj
 0001:00046b10       ___crtFlsFree              10047b10 f   libcpmtd:winapisupp.obj
 0001:00046b60       ___crtFlsGetValue          10047b60 f   libcpmtd:winapisupp.obj
 0001:00046bb0       ___crtFlsSetValue          10047bb0 f   libcpmtd:winapisupp.obj
 0001:00046c00       ___crtFlushProcessWriteBuffers 10047c00 f   libcpmtd:winapisupp.obj
 0001:00046c40       ___crtFreeLibraryWhenCallbackReturns 10047c40 f   libcpmtd:winapisupp.obj
 0001:00046c80       ___crtGetCurrentProcessorNumber 10047c80 f   libcpmtd:winapisupp.obj
 0001:00046cc0       ___crtGetFileInformationByHandleEx 10047cc0 f   libcpmtd:winapisupp.obj
 0001:00046d20       ___crtGetSystemTimePreciseAsFileTime 10047d20 f   libcpmtd:winapisupp.obj
 0001:00046d70       ___crtGetTickCount64       10047d70 f   libcpmtd:winapisupp.obj
 0001:00046db0       ___crtInitOnceExecuteOnce  10047db0 f   libcpmtd:winapisupp.obj
 0001:00046ec0       ___crtInitializeConditionVariable 10047ec0 f   libcpmtd:winapisupp.obj
 0001:00046f00       ___crtInitializeCriticalSectionEx 10047f00 f   libcpmtd:winapisupp.obj
 0001:00046f60       ___crtInitializeSRWLock    10047f60 f   libcpmtd:winapisupp.obj
 0001:00046fa0       ___crtIsPackagedApp        10047fa0 f   libcpmtd:winapisupp.obj
 0001:00046fe0       ___crtReleaseSRWLockExclusive 10047fe0 f   libcpmtd:winapisupp.obj
 0001:00047020       ___crtSetFileInformationByHandle 10048020 f   libcpmtd:winapisupp.obj
 0001:00047080       ___crtSetThreadpoolTimer   10048080 f   libcpmtd:winapisupp.obj
 0001:000470d0       ___crtSetThreadpoolWait    100480d0 f   libcpmtd:winapisupp.obj
 0001:00047120       ___crtSleepConditionVariableCS 10048120 f   libcpmtd:winapisupp.obj
 0001:00047160       ___crtSleepConditionVariableSRW 10048160 f   libcpmtd:winapisupp.obj
 0001:000471b0       ___crtSubmitThreadpoolWork 100481b0 f   libcpmtd:winapisupp.obj
 0001:000471f0       ___crtTryAcquireSRWLockExclusive 100481f0 f   libcpmtd:winapisupp.obj
 0001:00047230       ___crtWaitForThreadpoolTimerCallbacks 10048230 f   libcpmtd:winapisupp.obj
 0001:00047270       ___crtWakeAllConditionVariable 10048270 f   libcpmtd:winapisupp.obj
 0001:000472b0       ___crtWakeConditionVariable 100482b0 f   libcpmtd:winapisupp.obj
 0001:000472f0       ___crt_IsPackagedAppHelper 100482f0 f   libcpmtd:winapisupp.obj
 0001:00047350       _GetTableIndexFromLcid     10048350 f   libcpmtd:winapinls.obj
 0001:000473c0       _GetTableIndexFromLocaleName 100483c0 f   libcpmtd:winapinls.obj
 0001:00047450       ___crtCompareStringEx      10048450 f   libcpmtd:winapinls.obj
 0001:000474d0       ___crtDownlevelLCIDToLocaleName 100484d0 f   libcpmtd:winapinls.obj
 0001:00047570       ___crtDownlevelLocaleNameToLCID 10048570 f   libcpmtd:winapinls.obj
 0001:000475b0       ___crtGetLocaleInfoEx      100485b0 f   libcpmtd:winapinls.obj
 0001:00047620       ___crtLCMapStringEx        10048620 f   libcpmtd:winapinls.obj
 0001:000476a0       ___wcsnicmp_ascii          100486a0 f   libcpmtd:winapinls.obj
 0001:00047770       ??$?0$$V@?$_Compressed_pair@V?$allocator@G@std@@V?$_String_val@U?$_Simple_types@G@std@@@2@$00@std@@QAE@U_Zero_then_variadic_args_t@1@@Z 10048770 f i libcpmtd:wlocale.obj
 0001:00047790       ??$?0G@?$allocator@U_Container_proxy@std@@@std@@QAE@ABV?$allocator@G@1@@Z 10048790 f i libcpmtd:wlocale.obj
 0001:000477a0       ??$?0V?$allocator@G@std@@$$V@?$_Compressed_pair@V?$allocator@G@std@@V?$_String_val@U?$_Simple_types@G@std@@@2@$00@std@@QAE@U_One_then_variadic_args_t@1@$$QAV?$allocator@G@1@@Z 100487a0 f i libcpmtd:wlocale.obj
 0001:000477d0       ??$?0V?$allocator@G@std@@X@?$_String_alloc@U?$_String_base_types@GV?$allocator@G@std@@@std@@@std@@QAE@$$QAV?$allocator@G@1@@Z 100487d0 f i libcpmtd:wlocale.obj
 0001:00047850       ??$?0V?$allocator@_W@std@@$$V@?$_Compressed_pair@V?$allocator@_W@std@@V?$_String_val@U?$_Simple_types@_W@std@@@2@$00@std@@QAE@U_One_then_variadic_args_t@1@$$QAV?$allocator@_W@1@@Z 10048850 f i libcpmtd:wlocale.obj
 0001:00047880       ??$?0V?$allocator@_W@std@@X@?$_String_alloc@U?$_String_base_types@_WV?$allocator@_W@std@@@std@@@std@@QAE@$$QAV?$allocator@_W@1@@Z 10048880 f i libcpmtd:wlocale.obj
 0001:00047900       ??$?8GU?$char_traits@G@std@@@std@@YA_NABV?$istreambuf_iterator@GU?$char_traits@G@std@@@0@0@Z 10048900 f i libcpmtd:wlocale.obj
 0001:00047920       ??$?8_WU?$char_traits@_W@std@@@std@@YA_NABV?$istreambuf_iterator@_WU?$char_traits@_W@std@@@0@0@Z 10048920 f i libcpmtd:wlocale.obj
 0001:00047940       ??$?9GG@std@@YA_NABV?$allocator@G@0@0@Z 10048940 f i libcpmtd:wlocale.obj
 0001:00047950       ??$?9GU?$char_traits@G@std@@@std@@YA_NABV?$istreambuf_iterator@GU?$char_traits@G@std@@@0@0@Z 10048950 f i libcpmtd:wlocale.obj
 0001:00047990       ??$?9_WU?$char_traits@_W@std@@@std@@YA_NABV?$istreambuf_iterator@_WU?$char_traits@_W@std@@@0@0@Z 10048990 f i libcpmtd:wlocale.obj
 0001:000479d0       ??$?9_W_W@std@@YA_NABV?$allocator@_W@0@0@Z 100489d0 f i libcpmtd:wlocale.obj
 0001:000479e0       ??$_Adl_verify_range@PADPAD@std@@YAXABQAD0@Z 100489e0 f i libcpmtd:wlocale.obj
 0001:00047a00       ??$_Adl_verify_range@PAGPAG@std@@YAXABQAG0@Z 10048a00 f i libcpmtd:wlocale.obj
 0001:00047a20       ??$_Adl_verify_range@PA_WPA_W@std@@YAXABQA_W0@Z 10048a20 f i libcpmtd:wlocale.obj
 0001:00047a40       ??$_Adl_verify_range@PBGPBG@std@@YAXABQBG0@Z 10048a40 f i libcpmtd:wlocale.obj
 0001:00047a60       ??$_Adl_verify_range@PB_WPB_W@std@@YAXABQB_W0@Z 10048a60 f i libcpmtd:wlocale.obj
 0001:00047a80       ??$_Adl_verify_range@V?$istreambuf_iterator@GU?$char_traits@G@std@@@std@@V12@@std@@YAXABV?$istreambuf_iterator@GU?$char_traits@G@std@@@0@0@Z 10048a80 f i libcpmtd:wlocale.obj
 0001:00047a90       ??$_Adl_verify_range@V?$istreambuf_iterator@_WU?$char_traits@_W@std@@@std@@V12@@std@@YAXABV?$istreambuf_iterator@_WU?$char_traits@_W@std@@@0@0@Z 10048a90 f i libcpmtd:wlocale.obj
 0001:00047aa0       ??$_Copy_unchecked1@PA_WV?$ostreambuf_iterator@GU?$char_traits@G@std@@@std@@@std@@YA?AV?$ostreambuf_iterator@GU?$char_traits@G@std@@@0@PA_W0V10@U_General_ptr_iterator_tag@0@@Z 10048aa0 f i libcpmtd:wlocale.obj
 0001:00047af0       ??$_Copy_unchecked1@PA_WV?$ostreambuf_iterator@_WU?$char_traits@_W@std@@@std@@@std@@YA?AV?$ostreambuf_iterator@_WU?$char_traits@_W@std@@@0@PA_W0V10@U_General_ptr_iterator_tag@0@@Z 10048af0 f i libcpmtd:wlocale.obj
 0001:00047b40       ??$_Copy_unchecked@PA_WV?$ostreambuf_iterator@GU?$char_traits@G@std@@@std@@@std@@YA?AV?$ostreambuf_iterator@GU?$char_traits@G@std@@@0@PA_W0V10@@Z 10048b40 f i libcpmtd:wlocale.obj
 0001:00047b80       ??$_Copy_unchecked@PA_WV?$ostreambuf_iterator@_WU?$char_traits@_W@std@@@std@@@std@@YA?AV?$ostreambuf_iterator@_WU?$char_traits@_W@std@@@0@PA_W0V10@@Z 10048b80 f i libcpmtd:wlocale.obj
 0001:00047bc0       ??$_Find_elem@G$0BL@@std@@YAIAAY0BL@$$CBGG@Z 10048bc0 f i libcpmtd:wlocale.obj
 0001:00047bf0       ??$_Find_elem@G$0BN@@std@@YAIAAY0BN@$$CBGG@Z 10048bf0 f i libcpmtd:wlocale.obj
 0001:00047c20       ??$_Find_elem@G$0M@@std@@YAIAAY0M@$$CBGG@Z 10048c20 f i libcpmtd:wlocale.obj
 0001:00047c50       ??$_Find_elem@G$0P@@std@@YAIAAY0P@$$CBGG@Z 10048c50 f i libcpmtd:wlocale.obj
 0001:00047c80       ??$_Find_elem@_W$0BL@@std@@YAIAAY0BL@$$CB_W_W@Z 10048c80 f i libcpmtd:wlocale.obj
 0001:00047cb0       ??$_Find_elem@_W$0BN@@std@@YAIAAY0BN@$$CB_W_W@Z 10048cb0 f i libcpmtd:wlocale.obj
 0001:00047ce0       ??$_Find_elem@_W$0M@@std@@YAIAAY0M@$$CB_W_W@Z 10048ce0 f i libcpmtd:wlocale.obj
 0001:00047d10       ??$_Find_elem@_W$0P@@std@@YAIAAY0P@$$CB_W_W@Z 10048d10 f i libcpmtd:wlocale.obj
 0001:00047d40       ??$_Find_unchecked1@PBGG@std@@YAPBGPBGQBGABGU?$integral_constant@_N$0A@@0@@Z 10048d40 f i libcpmtd:wlocale.obj
 0001:00047d70       ??$_Find_unchecked1@PB_W_W@std@@YAPB_WPB_WQB_WAB_WU?$integral_constant@_N$0A@@0@@Z 10048d70 f i libcpmtd:wlocale.obj
 0001:00047da0       ??$_Find_unchecked@PBGG@std@@YAPBGQBG0ABG@Z 10048da0 f i libcpmtd:wlocale.obj
 0001:00047dd0       ??$_Find_unchecked@PB_W_W@std@@YAPB_WQB_W0AB_W@Z 10048dd0 f i libcpmtd:wlocale.obj
 0001:00047e00       ??$_Get_unwrapped@_W@std@@YAPA_WQA_W@Z 10048e00 f i libcpmtd:wlocale.obj
 0001:00047e10       ??$_Get_unwrapped_n@V?$ostreambuf_iterator@GU?$char_traits@G@std@@@std@@H$0A@@std@@YAABV?$ostreambuf_iterator@GU?$char_traits@G@std@@@0@ABV10@H@Z 10048e10 f i libcpmtd:wlocale.obj
 0001:00047e20       ??$_Get_unwrapped_n@V?$ostreambuf_iterator@_WU?$char_traits@_W@std@@@std@@H$0A@@std@@YAABV?$ostreambuf_iterator@_WU?$char_traits@_W@std@@@0@ABV10@H@Z 10048e20 f i libcpmtd:wlocale.obj
 0001:00047e30       ??$_Getloctxt@DV?$istreambuf_iterator@GU?$char_traits@G@std@@@std@@@std@@YAHAAV?$istreambuf_iterator@GU?$char_traits@G@std@@@0@0IPBD@Z 10048e30 f i libcpmtd:wlocale.obj
 0001:00048090       ??$_Getloctxt@DV?$istreambuf_iterator@_WU?$char_traits@_W@std@@@std@@@std@@YAHAAV?$istreambuf_iterator@_WU?$char_traits@_W@std@@@0@0IPBD@Z 10049090 f i libcpmtd:wlocale.obj
 0001:000482f0       ??$_Getloctxt@GV?$istreambuf_iterator@GU?$char_traits@G@std@@@std@@@std@@YAHAAV?$istreambuf_iterator@GU?$char_traits@G@std@@@0@0IPBG@Z 100492f0 f i libcpmtd:wlocale.obj
 0001:00048550       ??$_Getloctxt@_WV?$istreambuf_iterator@_WU?$char_traits@_W@std@@@std@@@std@@YAHAAV?$istreambuf_iterator@_WU?$char_traits@_W@std@@@0@0IPB_W@Z 10049550 f i libcpmtd:wlocale.obj
 0001:000487b0       ??$_Getvals@G@?$_Mpunct@G@std@@IAEXGPBUlconv@@@Z 100497b0 f i libcpmtd:wlocale.obj
 0001:000488d0       ??$_Getvals@G@?$numpunct@G@std@@IAEXGPBUlconv@@U_Cvtvec@@@Z 100498d0 f i libcpmtd:wlocale.obj
 0001:00048930       ??$_Getvals@G@?$time_get@GV?$istreambuf_iterator@GU?$char_traits@G@std@@@std@@@std@@IAEXGABV_Locinfo@1@@Z 10049930 f i libcpmtd:wlocale.obj
 0001:00048a20       ??$_Getvals@_W@?$time_get@_WV?$istreambuf_iterator@_WU?$char_traits@_W@std@@@std@@@std@@IAEX_WABV_Locinfo@1@@Z 10049a20 f i libcpmtd:wlocale.obj
 0001:00048b10       ??$_Hash_array_representation@G@std@@YAIQBGI@Z 10049b10 f i libcpmtd:wlocale.obj
 0001:00048b30       ??$_Hash_array_representation@_W@std@@YAIQB_WI@Z 10049b30 f i libcpmtd:wlocale.obj
 0001:00048b50       ??$_Idl_distance@PA_WPA_W@std@@YAHABQA_W0@Z 10049b50 f i libcpmtd:wlocale.obj
 0001:00048b70       ??$_LStrcoll@G@std@@YAHPBG000PBU_Collvec@@@Z 10049b70 f i libcpmtd:wlocale.obj
 0001:00048c00       ??$_LStrcoll@_W@std@@YAHPB_W000PBU_Collvec@@@Z 10049c00 f i libcpmtd:wlocale.obj
 0001:00048c30       ??$_LStrxfrm@G@std@@YAIPAG0PBG1PBU_Collvec@@@Z 10049c30 f i libcpmtd:wlocale.obj
 0001:00048c70       ??$_LStrxfrm@_W@std@@YAIPA_W0PB_W1PBU_Collvec@@@Z 10049c70 f i libcpmtd:wlocale.obj
 0001:00048ca0       ??$_Maklocchr@G@std@@YAGDPAGABU_Cvtvec@@@Z 10049ca0 f i libcpmtd:wlocale.obj
 0001:00048ce0       ??$_Maklocchr@_W@std@@YA_WDPA_WABU_Cvtvec@@@Z 10049ce0 f i libcpmtd:wlocale.obj
 0001:00048d20       ??$_Maklocstr@G@std@@YAPAGPBDPAGABU_Cvtvec@@@Z 10049d20 f i libcpmtd:wlocale.obj
 0001:00048e50       ??$_Maklocstr@_W@std@@YAPA_WPBDPA_WABU_Cvtvec@@@Z 10049e50 f i libcpmtd:wlocale.obj
 0001:00048f80       ??$_Pocma@V?$allocator@G@std@@@std@@YAXAAV?$allocator@G@0@0@Z 10049f80 f i libcpmtd:wlocale.obj
 0001:00048fa0       ??$_Pocma@V?$allocator@G@std@@@std@@YAXAAV?$allocator@G@0@0U?$integral_constant@_N$00@0@@Z 10049fa0 f i libcpmtd:wlocale.obj
 0001:00048fc0       ??$_Pocma@V?$allocator@_W@std@@@std@@YAXAAV?$allocator@_W@0@0@Z 10049fc0 f i libcpmtd:wlocale.obj
 0001:00048fe0       ??$_Pocma@V?$allocator@_W@std@@@std@@YAXAAV?$allocator@_W@0@0U?$integral_constant@_N$00@0@@Z 10049fe0 f i libcpmtd:wlocale.obj
 0001:00049000       ??$_Ptr_copy_cat@PA_WV?$ostreambuf_iterator@GU?$char_traits@G@std@@@std@@@std@@YA?AU_General_ptr_iterator_tag@0@ABQA_WABV?$ostreambuf_iterator@GU?$char_traits@G@std@@@0@@Z 1004a000 f i libcpmtd:wlocale.obj
 0001:00049010       ??$_Ptr_copy_cat@PA_WV?$ostreambuf_iterator@_WU?$char_traits@_W@std@@@std@@@std@@YA?AU_General_ptr_iterator_tag@0@ABQA_WABV?$ostreambuf_iterator@_WU?$char_traits@_W@std@@@0@@Z 1004a010 f i libcpmtd:wlocale.obj
 0001:0004a350       ??$_Refancy@PAG$0A@@std@@YAPAGPAG@Z 1004b350 f i libcpmtd:wlocale.obj
 0001:0004a360       ??$_Refancy@PA_W$0A@@std@@YAPA_WPA_W@Z 1004b360 f i libcpmtd:wlocale.obj
 0001:0004a370       ??$_Seek_wrapped@V?$ostreambuf_iterator@GU?$char_traits@G@std@@@std@@V12@@std@@YAXAAV?$ostreambuf_iterator@GU?$char_traits@G@std@@@0@ABV10@@Z 1004b370 f i libcpmtd:wlocale.obj
 0001:0004a390       ??$_Seek_wrapped@V?$ostreambuf_iterator@_WU?$char_traits@_W@std@@@std@@V12@@std@@YAXAAV?$ostreambuf_iterator@_WU?$char_traits@_W@std@@@0@ABV10@@Z 1004b390 f i libcpmtd:wlocale.obj
 0001:0004a3b0       ??$_Unfancy@$$CBG@std@@YAPBGPBG@Z 1004b3b0 f i libcpmtd:wlocale.obj
 0001:0004a3c0       ??$_Unfancy@$$CB_W@std@@YAPB_WPB_W@Z 1004b3c0 f i libcpmtd:wlocale.obj
 0001:0004a3d0       ??$_Unfancy@G@std@@YAPAGPAG@Z 1004b3d0 f i libcpmtd:wlocale.obj
 0001:0004a3e0       ??$_Verify_range@G@std@@YAXQBG0@Z 1004b3e0 f i libcpmtd:wlocale.obj
 0001:0004a440       ??$_Verify_range@_W@std@@YAXQB_W0@Z 1004b440 f i libcpmtd:wlocale.obj
 0001:0004a4a0       ??$addressof@$$CBV?$moneypunct@G$00@std@@@std@@YAPBV?$moneypunct@G$00@0@ABV10@@Z 1004b4a0 f i libcpmtd:wlocale.obj
 0001:0004a4b0       ??$addressof@$$CBV?$moneypunct@G$0A@@std@@@std@@YAPBV?$moneypunct@G$0A@@0@ABV10@@Z 1004b4b0 f i libcpmtd:wlocale.obj
 0001:0004a4c0       ??$addressof@$$CBV?$moneypunct@_W$00@std@@@std@@YAPBV?$moneypunct@_W$00@0@ABV10@@Z 1004b4c0 f i libcpmtd:wlocale.obj
 0001:0004a4d0       ??$addressof@$$CBV?$moneypunct@_W$0A@@std@@@std@@YAPBV?$moneypunct@_W$0A@@0@ABV10@@Z 1004b4d0 f i libcpmtd:wlocale.obj
 0001:0004a4e0       ??$addressof@PAG@std@@YAPAPAGAAPAG@Z 1004b4e0 f i libcpmtd:wlocale.obj
 0001:0004a4f0       ??$addressof@V?$_String_val@U?$_Simple_types@G@std@@@std@@@std@@YAPAV?$_String_val@U?$_Simple_types@G@std@@@0@AAV10@@Z 1004b4f0 f i libcpmtd:wlocale.obj
 0001:0004a500       ??$addressof@V?$basic_string@GU?$char_traits@G@std@@V?$allocator@G@2@@std@@@std@@YAPAV?$basic_string@GU?$char_traits@G@std@@V?$allocator@G@2@@0@AAV10@@Z 1004b500 f i libcpmtd:wlocale.obj
 0001:0004a510       ??$addressof@V?$basic_string@_WU?$char_traits@_W@std@@V?$allocator@_W@2@@std@@@std@@YAPAV?$basic_string@_WU?$char_traits@_W@std@@V?$allocator@_W@2@@0@AAV10@@Z 1004b510 f i libcpmtd:wlocale.obj
 0001:0004a520       ??$construct@PAGABQAG@?$_Default_allocator_traits@V?$allocator@G@std@@@std@@SAXAAV?$allocator@G@1@QAPAGABQAG@Z 1004b520 f i libcpmtd:wlocale.obj
 0001:0004a550       ??$copy@PA_WV?$ostreambuf_iterator@GU?$char_traits@G@std@@@std@@@std@@YA?AV?$ostreambuf_iterator@GU?$char_traits@G@std@@@0@PA_W0V10@@Z 1004b550 f i libcpmtd:wlocale.obj
 0001:0004a5f0       ??$copy@PA_WV?$ostreambuf_iterator@_WU?$char_traits@_W@std@@@std@@@std@@YA?AV?$ostreambuf_iterator@_WU?$char_traits@_W@std@@@0@PA_W0V10@@Z 1004b5f0 f i libcpmtd:wlocale.obj
 0001:0004a690       ??$destroy@PAG@?$_Default_allocator_traits@V?$allocator@G@std@@@std@@SAXAAV?$allocator@G@1@QAPAG@Z 1004b690 f i libcpmtd:wlocale.obj
 0001:0004a6a0       ??$forward@ABQAG@std@@YAABQAGABQAG@Z 1004b6a0 f i libcpmtd:wlocale.obj
 0001:0004a6b0       ??$forward@V?$allocator@G@std@@@std@@YA$$QAV?$allocator@G@0@AAV10@@Z 1004b6b0 f i libcpmtd:wlocale.obj
 0001:0004a6c0       ??$forward@V?$allocator@_W@std@@@std@@YA$$QAV?$allocator@_W@0@AAV10@@Z 1004b6c0 f i libcpmtd:wlocale.obj
 0001:0004a6d0       ??$move@AAV?$allocator@G@std@@@std@@YA$$QAV?$allocator@G@0@AAV10@@Z 1004b6d0 f i libcpmtd:wlocale.obj
 0001:0004a6e0       ??$move@AAV?$allocator@_W@std@@@std@@YA$$QAV?$allocator@_W@0@AAV10@@Z 1004b6e0 f i libcpmtd:wlocale.obj
 0001:0004a6f0       ??$move@AAV?$basic_string@GU?$char_traits@G@std@@V?$allocator@G@2@@std@@@std@@YA$$QAV?$basic_string@GU?$char_traits@G@std@@V?$allocator@G@2@@0@AAV10@@Z 1004b6f0 f i libcpmtd:wlocale.obj
 0001:0004a700       ??$move@AAV?$basic_string@_WU?$char_traits@_W@std@@V?$allocator@_W@2@@std@@@std@@YA$$QAV?$basic_string@_WU?$char_traits@_W@std@@V?$allocator@_W@2@@0@AAV10@@Z 1004b700 f i libcpmtd:wlocale.obj
 0001:0004a710       ??$use_facet@V?$codecvt@GDU_Mbstatet@@@std@@@std@@YAABV?$codecvt@GDU_Mbstatet@@@0@ABVlocale@0@@Z 1004b710 f i libcpmtd:wlocale.obj
 0001:0004a840       ??$use_facet@V?$codecvt@_WDU_Mbstatet@@@std@@@std@@YAABV?$codecvt@_WDU_Mbstatet@@@0@ABVlocale@0@@Z 1004b840 f i libcpmtd:wlocale.obj
 0001:0004a970       ??$use_facet@V?$collate@G@std@@@std@@YAABV?$collate@G@0@ABVlocale@0@@Z 1004b970 f i libcpmtd:wlocale.obj
 0001:0004aaa0       ??$use_facet@V?$collate@_W@std@@@std@@YAABV?$collate@_W@0@ABVlocale@0@@Z 1004baa0 f i libcpmtd:wlocale.obj
 0001:0004abd0       ??$use_facet@V?$ctype@G@std@@@std@@YAABV?$ctype@G@0@ABVlocale@0@@Z 1004bbd0 f i libcpmtd:wlocale.obj
 0001:0004ad00       ??$use_facet@V?$ctype@_W@std@@@std@@YAABV?$ctype@_W@0@ABVlocale@0@@Z 1004bd00 f i libcpmtd:wlocale.obj
 0001:0004ae30       ??$use_facet@V?$messages@G@std@@@std@@YAABV?$messages@G@0@ABVlocale@0@@Z 1004be30 f i libcpmtd:wlocale.obj
 0001:0004af60       ??$use_facet@V?$messages@_W@std@@@std@@YAABV?$messages@_W@0@ABVlocale@0@@Z 1004bf60 f i libcpmtd:wlocale.obj
 0001:0004b090       ??$use_facet@V?$money_get@GV?$istreambuf_iterator@GU?$char_traits@G@std@@@std@@@std@@@std@@YAABV?$money_get@GV?$istreambuf_iterator@GU?$char_traits@G@std@@@std@@@0@ABVlocale@0@@Z 1004c090 f i libcpmtd:wlocale.obj
 0001:0004b1c0       ??$use_facet@V?$money_get@_WV?$istreambuf_iterator@_WU?$char_traits@_W@std@@@std@@@std@@@std@@YAABV?$money_get@_WV?$istreambuf_iterator@_WU?$char_traits@_W@std@@@std@@@0@ABVlocale@0@@Z 1004c1c0 f i libcpmtd:wlocale.obj
 0001:0004b2f0       ??$use_facet@V?$money_put@GV?$ostreambuf_iterator@GU?$char_traits@G@std@@@std@@@std@@@std@@YAABV?$money_put@GV?$ostreambuf_iterator@GU?$char_traits@G@std@@@std@@@0@ABVlocale@0@@Z 1004c2f0 f i libcpmtd:wlocale.obj
 0001:0004b420       ??$use_facet@V?$money_put@_WV?$ostreambuf_iterator@_WU?$char_traits@_W@std@@@std@@@std@@@std@@YAABV?$money_put@_WV?$ostreambuf_iterator@_WU?$char_traits@_W@std@@@std@@@0@ABVlocale@0@@Z 1004c420 f i libcpmtd:wlocale.obj
 0001:0004b550       ??$use_facet@V?$moneypunct@G$00@std@@@std@@YAABV?$moneypunct@G$00@0@ABVlocale@0@@Z 1004c550 f i libcpmtd:wlocale.obj
 0001:0004b680       ??$use_facet@V?$moneypunct@G$0A@@std@@@std@@YAABV?$moneypunct@G$0A@@0@ABVlocale@0@@Z 1004c680 f i libcpmtd:wlocale.obj
 0001:0004b7b0       ??$use_facet@V?$moneypunct@_W$00@std@@@std@@YAABV?$moneypunct@_W$00@0@ABVlocale@0@@Z 1004c7b0 f i libcpmtd:wlocale.obj
 0001:0004b8e0       ??$use_facet@V?$moneypunct@_W$0A@@std@@@std@@YAABV?$moneypunct@_W$0A@@0@ABVlocale@0@@Z 1004c8e0 f i libcpmtd:wlocale.obj
 0001:0004ba10       ??$use_facet@V?$num_get@GV?$istreambuf_iterator@GU?$char_traits@G@std@@@std@@@std@@@std@@YAABV?$num_get@GV?$istreambuf_iterator@GU?$char_traits@G@std@@@std@@@0@ABVlocale@0@@Z 1004ca10 f i libcpmtd:wlocale.obj
 0001:0004bb40       ??$use_facet@V?$num_get@_WV?$istreambuf_iterator@_WU?$char_traits@_W@std@@@std@@@std@@@std@@YAABV?$num_get@_WV?$istreambuf_iterator@_WU?$char_traits@_W@std@@@std@@@0@ABVlocale@0@@Z 1004cb40 f i libcpmtd:wlocale.obj
 0001:0004bc70       ??$use_facet@V?$num_put@GV?$ostreambuf_iterator@GU?$char_traits@G@std@@@std@@@std@@@std@@YAABV?$num_put@GV?$ostreambuf_iterator@GU?$char_traits@G@std@@@std@@@0@ABVlocale@0@@Z 1004cc70 f i libcpmtd:wlocale.obj
 0001:0004bda0       ??$use_facet@V?$num_put@_WV?$ostreambuf_iterator@_WU?$char_traits@_W@std@@@std@@@std@@@std@@YAABV?$num_put@_WV?$ostreambuf_iterator@_WU?$char_traits@_W@std@@@std@@@0@ABVlocale@0@@Z 1004cda0 f i libcpmtd:wlocale.obj
 0001:0004bed0       ??$use_facet@V?$numpunct@G@std@@@std@@YAABV?$numpunct@G@0@ABVlocale@0@@Z 1004ced0 f i libcpmtd:wlocale.obj
 0001:0004c000       ??$use_facet@V?$numpunct@_W@std@@@std@@YAABV?$numpunct@_W@0@ABVlocale@0@@Z 1004d000 f i libcpmtd:wlocale.obj
 0001:0004c130       ??$use_facet@V?$time_get@GV?$istreambuf_iterator@GU?$char_traits@G@std@@@std@@@std@@@std@@YAABV?$time_get@GV?$istreambuf_iterator@GU?$char_traits@G@std@@@std@@@0@ABVlocale@0@@Z 1004d130 f i libcpmtd:wlocale.obj
 0001:0004c260       ??$use_facet@V?$time_get@_WV?$istreambuf_iterator@_WU?$char_traits@_W@std@@@std@@@std@@@std@@YAABV?$time_get@_WV?$istreambuf_iterator@_WU?$char_traits@_W@std@@@std@@@0@ABVlocale@0@@Z 1004d260 f i libcpmtd:wlocale.obj
 0001:0004c390       ??$use_facet@V?$time_put@GV?$ostreambuf_iterator@GU?$char_traits@G@std@@@std@@@std@@@std@@YAABV?$time_put@GV?$ostreambuf_iterator@GU?$char_traits@G@std@@@std@@@0@ABVlocale@0@@Z 1004d390 f i libcpmtd:wlocale.obj
 0001:0004c4c0       ??$use_facet@V?$time_put@_WV?$ostreambuf_iterator@_WU?$char_traits@_W@std@@@std@@@std@@@std@@YAABV?$time_put@_WV?$ostreambuf_iterator@_WU?$char_traits@_W@std@@@std@@@0@ABVlocale@0@@Z 1004d4c0 f i libcpmtd:wlocale.obj
 0001:0004c5f0       ??0?$_Mpunct@G@std@@QAE@ABV_Locinfo@1@I_N1@Z 1004d5f0 f i libcpmtd:wlocale.obj
 0001:0004c670       ??0?$_Mpunct@_W@std@@QAE@ABV_Locinfo@1@I_N1@Z 1004d670 f i libcpmtd:wlocale.obj
 0001:0004c6f0       ??0?$_String_alloc@U?$_String_base_types@GV?$allocator@G@std@@@std@@@std@@QAE@XZ 1004d6f0 f i libcpmtd:wlocale.obj
 0001:0004c760       ??0?$_String_const_iterator@V?$_String_val@U?$_Simple_types@G@std@@@std@@@std@@QAE@$$QAV01@@Z 1004d760 f i libcpmtd:wlocale.obj
 0001:0004c790       ??0?$_String_const_iterator@V?$_String_val@U?$_Simple_types@G@std@@@std@@@std@@QAE@ABV01@@Z 1004d790 f i libcpmtd:wlocale.obj
 0001:0004c7c0       ??0?$_String_const_iterator@V?$_String_val@U?$_Simple_types@G@std@@@std@@@std@@QAE@PBGPBU_Container_base12@1@@Z 1004d7c0 f i libcpmtd:wlocale.obj
 0001:0004c7f0       ??0?$_String_const_iterator@V?$_String_val@U?$_Simple_types@G@std@@@std@@@std@@QAE@XZ 1004d7f0 f i libcpmtd:wlocale.obj
 0001:0004c810       ??0?$_String_const_iterator@V?$_String_val@U?$_Simple_types@_W@std@@@std@@@std@@QAE@$$QAV01@@Z 1004d810 f i libcpmtd:wlocale.obj
 0001:0004c840       ??0?$_String_const_iterator@V?$_String_val@U?$_Simple_types@_W@std@@@std@@@std@@QAE@ABV01@@Z 1004d840 f i libcpmtd:wlocale.obj
 0001:0004c870       ??0?$_String_const_iterator@V?$_String_val@U?$_Simple_types@_W@std@@@std@@@std@@QAE@PB_WPBU_Container_base12@1@@Z 1004d870 f i libcpmtd:wlocale.obj
 0001:0004c8a0       ??0?$_String_const_iterator@V?$_String_val@U?$_Simple_types@_W@std@@@std@@@std@@QAE@XZ 1004d8a0 f i libcpmtd:wlocale.obj
 0001:0004c8c0       ??0?$_String_iterator@V?$_String_val@U?$_Simple_types@G@std@@@std@@@std@@QAE@ABV01@@Z 1004d8c0 f i libcpmtd:wlocale.obj
 0001:0004c8e0       ??0?$_String_iterator@V?$_String_val@U?$_Simple_types@G@std@@@std@@@std@@QAE@PAGPBU_Container_base12@1@@Z 1004d8e0 f i libcpmtd:wlocale.obj
 0001:0004c900       ??0?$_String_iterator@V?$_String_val@U?$_Simple_types@_W@std@@@std@@@std@@QAE@ABV01@@Z 1004d900 f i libcpmtd:wlocale.obj
 0001:0004c920       ??0?$_String_iterator@V?$_String_val@U?$_Simple_types@_W@std@@@std@@@std@@QAE@PA_WPBU_Container_base12@1@@Z 1004d920 f i libcpmtd:wlocale.obj
 0001:0004c940       ??0?$_String_val@U?$_Simple_types@G@std@@@std@@QAE@XZ 1004d940 f i libcpmtd:wlocale.obj
 0001:0004c980       ??0?$allocator@G@std@@QAE@XZ 1004d980 f i libcpmtd:wlocale.obj
 0001:0004c990       ??0?$basic_string@GU?$char_traits@G@std@@V?$allocator@G@2@@std@@QAE@$$QAV01@@Z 1004d990 f i libcpmtd:wlocale.obj
 0001:0004ca10       ??0?$basic_string@GU?$char_traits@G@std@@V?$allocator@G@2@@std@@QAE@ABV01@@Z 1004da10 f i libcpmtd:wlocale.obj
 0001:0004ca90       ??0?$basic_string@GU?$char_traits@G@std@@V?$allocator@G@2@@std@@QAE@IG@Z 1004da90 f i libcpmtd:wlocale.obj
 0001:0004cb00       ??0?$basic_string@GU?$char_traits@G@std@@V?$allocator@G@2@@std@@QAE@QBG@Z 1004db00 f i libcpmtd:wlocale.obj
 0001:0004cb70       ??0?$basic_string@GU?$char_traits@G@std@@V?$allocator@G@2@@std@@QAE@QBGI@Z 1004db70 f i libcpmtd:wlocale.obj
 0001:0004cbe0       ??0?$basic_string@GU?$char_traits@G@std@@V?$allocator@G@2@@std@@QAE@XZ 1004dbe0 f i libcpmtd:wlocale.obj
 0001:0004cc30       ??0?$basic_string@_WU?$char_traits@_W@std@@V?$allocator@_W@2@@std@@QAE@$$QAV01@@Z 1004dc30 f i libcpmtd:wlocale.obj
 0001:0004ccb0       ??0?$basic_string@_WU?$char_traits@_W@std@@V?$allocator@_W@2@@std@@QAE@ABV01@@Z 1004dcb0 f i libcpmtd:wlocale.obj
 0001:0004cd30       ??0?$basic_string@_WU?$char_traits@_W@std@@V?$allocator@_W@2@@std@@QAE@QB_W@Z 1004dd30 f i libcpmtd:wlocale.obj
 0001:0004cda0       ??0?$basic_string@_WU?$char_traits@_W@std@@V?$allocator@_W@2@@std@@QAE@QB_WI@Z 1004dda0 f i libcpmtd:wlocale.obj
 0001:0004ce10       ??0?$basic_string@_WU?$char_traits@_W@std@@V?$allocator@_W@2@@std@@QAE@XZ 1004de10 f i libcpmtd:wlocale.obj
 0001:0004ce60       ??0?$codecvt@GDU_Mbstatet@@@std@@QAE@ABV_Locinfo@1@I@Z 1004de60 f i libcpmtd:wlocale.obj
 0001:0004ced0       ??0?$codecvt@_WDU_Mbstatet@@@std@@QAE@ABV_Locinfo@1@I@Z 1004ded0 f i libcpmtd:wlocale.obj
 0001:0004cf40       ??0?$collate@G@std@@QAE@ABV_Locinfo@1@I@Z 1004df40 f i libcpmtd:wlocale.obj
 0001:0004cfb0       ??0?$collate@_W@std@@QAE@ABV_Locinfo@1@I@Z 1004dfb0 f i libcpmtd:wlocale.obj
 0001:0004d020       ??0?$ctype@G@std@@QAE@ABV_Locinfo@1@I@Z 1004e020 f i libcpmtd:wlocale.obj
 0001:0004d090       ??0?$ctype@_W@std@@QAE@ABV_Locinfo@1@I@Z 1004e090 f i libcpmtd:wlocale.obj
 0001:0004d100       ??0?$messages@G@std@@QAE@ABV_Locinfo@1@I@Z 1004e100 f i libcpmtd:wlocale.obj
 0001:0004d170       ??0?$messages@_W@std@@QAE@ABV_Locinfo@1@I@Z 1004e170 f i libcpmtd:wlocale.obj
 0001:0004d1e0       ??0?$money_get@GV?$istreambuf_iterator@GU?$char_traits@G@std@@@std@@@std@@QAE@ABV_Locinfo@1@I@Z 1004e1e0 f i libcpmtd:wlocale.obj
 0001:0004d250       ??0?$money_get@_WV?$istreambuf_iterator@_WU?$char_traits@_W@std@@@std@@@std@@QAE@ABV_Locinfo@1@I@Z 1004e250 f i libcpmtd:wlocale.obj
 0001:0004d2c0       ??0?$money_put@GV?$ostreambuf_iterator@GU?$char_traits@G@std@@@std@@@std@@QAE@ABV_Locinfo@1@I@Z 1004e2c0 f i libcpmtd:wlocale.obj
 0001:0004d330       ??0?$money_put@_WV?$ostreambuf_iterator@_WU?$char_traits@_W@std@@@std@@@std@@QAE@ABV_Locinfo@1@I@Z 1004e330 f i libcpmtd:wlocale.obj
 0001:0004d3a0       ??0?$moneypunct@G$00@std@@QAE@ABV_Locinfo@1@I_N@Z 1004e3a0 f i libcpmtd:wlocale.obj
 0001:0004d3d0       ??0?$moneypunct@G$0A@@std@@QAE@ABV_Locinfo@1@I_N@Z 1004e3d0 f i libcpmtd:wlocale.obj
 0001:0004d400       ??0?$moneypunct@_W$00@std@@QAE@ABV_Locinfo@1@I_N@Z 1004e400 f i libcpmtd:wlocale.obj
 0001:0004d430       ??0?$moneypunct@_W$0A@@std@@QAE@ABV_Locinfo@1@I_N@Z 1004e430 f i libcpmtd:wlocale.obj
 0001:0004d460       ??0?$num_get@GV?$istreambuf_iterator@GU?$char_traits@G@std@@@std@@@std@@QAE@ABV_Locinfo@1@I@Z 1004e460 f i libcpmtd:wlocale.obj
 0001:0004d4d0       ??0?$num_get@_WV?$istreambuf_iterator@_WU?$char_traits@_W@std@@@std@@@std@@QAE@ABV_Locinfo@1@I@Z 1004e4d0 f i libcpmtd:wlocale.obj
 0001:0004d540       ??0?$num_put@GV?$ostreambuf_iterator@GU?$char_traits@G@std@@@std@@@std@@QAE@ABV_Locinfo@1@I@Z 1004e540 f i libcpmtd:wlocale.obj
 0001:0004d5b0       ??0?$num_put@_WV?$ostreambuf_iterator@_WU?$char_traits@_W@std@@@std@@@std@@QAE@ABV_Locinfo@1@I@Z 1004e5b0 f i libcpmtd:wlocale.obj
 0001:0004d620       ??0?$numpunct@G@std@@QAE@ABV_Locinfo@1@I_N@Z 1004e620 f i libcpmtd:wlocale.obj
 0001:0004d690       ??0?$numpunct@_W@std@@QAE@ABV_Locinfo@1@I_N@Z 1004e690 f i libcpmtd:wlocale.obj
 0001:0004d700       ??0?$time_get@GV?$istreambuf_iterator@GU?$char_traits@G@std@@@std@@@std@@QAE@ABV_Locinfo@1@I@Z 1004e700 f i libcpmtd:wlocale.obj
 0001:0004d770       ??0?$time_get@_WV?$istreambuf_iterator@_WU?$char_traits@_W@std@@@std@@@std@@QAE@ABV_Locinfo@1@I@Z 1004e770 f i libcpmtd:wlocale.obj
 0001:0004d7e0       ??0?$time_put@GV?$ostreambuf_iterator@GU?$char_traits@G@std@@@std@@@std@@QAE@ABV_Locinfo@1@I@Z 1004e7e0 f i libcpmtd:wlocale.obj
 0001:0004d870       ??0?$time_put@_WV?$ostreambuf_iterator@_WU?$char_traits@_W@std@@@std@@@std@@QAE@ABV_Locinfo@1@I@Z 1004e870 f i libcpmtd:wlocale.obj
 0001:0004d900       ??0_Bxty@?$_String_val@U?$_Simple_types@G@std@@@std@@QAE@XZ 1004e900 f i libcpmtd:wlocale.obj
 0001:0004d910       ??0_Timevec@std@@QAE@PAX@Z 1004e910 f i libcpmtd:wlocale.obj
 0001:0004d930       ??0messages_base@std@@QAE@I@Z 1004e930 f i libcpmtd:wlocale.obj
 0001:0004d960       ??0money_base@std@@QAE@I@Z 1004e960 f i libcpmtd:wlocale.obj
 0001:0004d990       ??0time_base@std@@QAE@I@Z  1004e990 f i libcpmtd:wlocale.obj
 0001:0004d9c0       ??1?$_Compressed_pair@V?$allocator@G@std@@V?$_String_val@U?$_Simple_types@G@std@@@2@$00@std@@QAE@XZ 1004e9c0 f i libcpmtd:wlocale.obj
 0001:0004d9e0       ??1?$_Mpunct@G@std@@MAE@XZ 1004e9e0 f i libcpmtd:wlocale.obj
 0001:0004da30       ??1?$_Mpunct@_W@std@@MAE@XZ 1004ea30 f i libcpmtd:wlocale.obj
 0001:0004da80       ??1?$_String_alloc@U?$_String_base_types@GV?$allocator@G@std@@@std@@@std@@QAE@XZ 1004ea80 f i libcpmtd:wlocale.obj
 0001:0004dad0       ??1?$_String_const_iterator@V?$_String_val@U?$_Simple_types@G@std@@@std@@@std@@QAE@XZ 1004ead0 f i libcpmtd:wlocale.obj
 0001:0004daf0       ??1?$_String_const_iterator@V?$_String_val@U?$_Simple_types@_W@std@@@std@@@std@@QAE@XZ 1004eaf0 f i libcpmtd:wlocale.obj
 0001:0004db10       ??1?$_String_iterator@V?$_String_val@U?$_Simple_types@G@std@@@std@@@std@@QAE@XZ 1004eb10 f i libcpmtd:wlocale.obj
 0001:0004db30       ??1?$_String_iterator@V?$_String_val@U?$_Simple_types@_W@std@@@std@@@std@@QAE@XZ 1004eb30 f i libcpmtd:wlocale.obj
 0001:0004db50       ??1?$_String_val@U?$_Simple_types@G@std@@@std@@QAE@XZ 1004eb50 f i libcpmtd:wlocale.obj
 0001:0004db70       ??1?$basic_string@GU?$char_traits@G@std@@V?$allocator@G@2@@std@@QAE@XZ 1004eb70 f i libcpmtd:wlocale.obj
 0001:0004dbc0       ??1?$codecvt@GDU_Mbstatet@@@std@@MAE@XZ 1004ebc0 f i libcpmtd:wlocale.obj
 0001:0004dbe0       ??1?$codecvt@_WDU_Mbstatet@@@std@@MAE@XZ 1004ebe0 f i libcpmtd:wlocale.obj
 0001:0004dc00       ??1?$collate@G@std@@MAE@XZ 1004ec00 f i libcpmtd:wlocale.obj
 0001:0004dc30       ??1?$collate@_W@std@@MAE@XZ 1004ec30 f i libcpmtd:wlocale.obj
 0001:0004dc60       ??1?$ctype@G@std@@MAE@XZ   1004ec60 f i libcpmtd:wlocale.obj
 0001:0004dcb0       ??1?$ctype@_W@std@@MAE@XZ  1004ecb0 f i libcpmtd:wlocale.obj
 0001:0004dd00       ??1?$messages@G@std@@MAE@XZ 1004ed00 f i libcpmtd:wlocale.obj
 0001:0004dd20       ??1?$messages@_W@std@@MAE@XZ 1004ed20 f i libcpmtd:wlocale.obj
 0001:0004dd40       ??1?$money_get@GV?$istreambuf_iterator@GU?$char_traits@G@std@@@std@@@std@@MAE@XZ 1004ed40 f i libcpmtd:wlocale.obj
 0001:0004dd60       ??1?$money_get@_WV?$istreambuf_iterator@_WU?$char_traits@_W@std@@@std@@@std@@MAE@XZ 1004ed60 f i libcpmtd:wlocale.obj
 0001:0004dd80       ??1?$money_put@GV?$ostreambuf_iterator@GU?$char_traits@G@std@@@std@@@std@@MAE@XZ 1004ed80 f i libcpmtd:wlocale.obj
 0001:0004dda0       ??1?$money_put@_WV?$ostreambuf_iterator@_WU?$char_traits@_W@std@@@std@@@std@@MAE@XZ 1004eda0 f i libcpmtd:wlocale.obj
 0001:0004ddc0       ??1?$moneypunct@G$00@std@@MAE@XZ 1004edc0 f i libcpmtd:wlocale.obj
 0001:0004dde0       ??1?$moneypunct@G$0A@@std@@MAE@XZ 1004ede0 f i libcpmtd:wlocale.obj
 0001:0004de00       ??1?$moneypunct@_W$00@std@@MAE@XZ 1004ee00 f i libcpmtd:wlocale.obj
 0001:0004de20       ??1?$moneypunct@_W$0A@@std@@MAE@XZ 1004ee20 f i libcpmtd:wlocale.obj
 0001:0004de40       ??1?$num_get@GV?$istreambuf_iterator@GU?$char_traits@G@std@@@std@@@std@@MAE@XZ 1004ee40 f i libcpmtd:wlocale.obj
 0001:0004de60       ??1?$num_get@_WV?$istreambuf_iterator@_WU?$char_traits@_W@std@@@std@@@std@@MAE@XZ 1004ee60 f i libcpmtd:wlocale.obj
 0001:0004de80       ??1?$num_put@GV?$ostreambuf_iterator@GU?$char_traits@G@std@@@std@@@std@@MAE@XZ 1004ee80 f i libcpmtd:wlocale.obj
 0001:0004dea0       ??1?$num_put@_WV?$ostreambuf_iterator@_WU?$char_traits@_W@std@@@std@@@std@@MAE@XZ 1004eea0 f i libcpmtd:wlocale.obj
 0001:0004dec0       ??1?$numpunct@G@std@@MAE@XZ 1004eec0 f i libcpmtd:wlocale.obj
 0001:0004df10       ??1?$numpunct@_W@std@@MAE@XZ 1004ef10 f i libcpmtd:wlocale.obj
 0001:0004df60       ??1?$time_get@GV?$istreambuf_iterator@GU?$char_traits@G@std@@@std@@@std@@MAE@XZ 1004ef60 f i libcpmtd:wlocale.obj
 0001:0004dfb0       ??1?$time_get@_WV?$istreambuf_iterator@_WU?$char_traits@_W@std@@@std@@@std@@MAE@XZ 1004efb0 f i libcpmtd:wlocale.obj
 0001:0004e000       ??1?$time_put@GV?$ostreambuf_iterator@GU?$char_traits@G@std@@@std@@@std@@MAE@XZ 1004f000 f i libcpmtd:wlocale.obj
 0001:0004e030       ??1?$time_put@_WV?$ostreambuf_iterator@_WU?$char_traits@_W@std@@@std@@@std@@MAE@XZ 1004f030 f i libcpmtd:wlocale.obj
 0001:0004e060       ??1_Bxty@?$_String_val@U?$_Simple_types@G@std@@@std@@QAE@XZ 1004f060 f i libcpmtd:wlocale.obj
 0001:0004e070       ??1_Timevec@std@@QAE@XZ    1004f070 f i libcpmtd:wlocale.obj
 0001:0004e090       ??1messages_base@std@@UAE@XZ 1004f090 f i libcpmtd:wlocale.obj
 0001:0004e0b0       ??1money_base@std@@UAE@XZ  1004f0b0 f i libcpmtd:wlocale.obj
 0001:0004e0d0       ??1time_base@std@@UAE@XZ   1004f0d0 f i libcpmtd:wlocale.obj
 0001:0004e0f0       ??4?$_String_const_iterator@V?$_String_val@U?$_Simple_types@G@std@@@std@@@std@@QAEAAV01@$$QAV01@@Z 1004f0f0 f i libcpmtd:wlocale.obj
 0001:0004e120       ??4?$_String_const_iterator@V?$_String_val@U?$_Simple_types@_W@std@@@std@@@std@@QAEAAV01@$$QAV01@@Z 1004f120 f i libcpmtd:wlocale.obj
 0001:0004e150       ??4?$_Yarn@_W@std@@QAEAAV01@PB_W@Z 1004f150 f i libcpmtd:wlocale.obj
 0001:0004e1f0       ??4?$basic_string@GU?$char_traits@G@std@@V?$allocator@G@2@@std@@QAEAAV01@$$QAV01@@Z 1004f1f0 f i libcpmtd:wlocale.obj
 0001:0004e280       ??4?$basic_string@_WU?$char_traits@_W@std@@V?$allocator@_W@2@@std@@QAEAAV01@$$QAV01@@Z 1004f280 f i libcpmtd:wlocale.obj
 0001:0004e310       ??4?$ostreambuf_iterator@GU?$char_traits@G@std@@@std@@QAEAAV01@G@Z 1004f310 f i libcpmtd:wlocale.obj
 0001:0004e370       ??4?$ostreambuf_iterator@_WU?$char_traits@_W@std@@@std@@QAEAAV01@_W@Z 1004f370 f i libcpmtd:wlocale.obj
 0001:0004e3d0       ??4_Timevec@std@@QAEAAV01@ABV01@@Z 1004f3d0 f i libcpmtd:wlocale.obj
 0001:0004e400       ??8?$_String_const_iterator@V?$_String_val@U?$_Simple_types@G@std@@@std@@@std@@QBE_NABV01@@Z 1004f400 f i libcpmtd:wlocale.obj
 0001:0004e440       ??8?$_String_const_iterator@V?$_String_val@U?$_Simple_types@_W@std@@@std@@@std@@QBE_NABV01@@Z 1004f440 f i libcpmtd:wlocale.obj
 0001:0004e480       ??9?$_String_const_iterator@V?$_String_val@U?$_Simple_types@G@std@@@std@@@std@@QBE_NABV01@@Z 1004f480 f i libcpmtd:wlocale.obj
 0001:0004e4c0       ??9?$_String_const_iterator@V?$_String_val@U?$_Simple_types@_W@std@@@std@@@std@@QBE_NABV01@@Z 1004f4c0 f i libcpmtd:wlocale.obj
 0001:0004e500       ??A?$basic_string@GU?$char_traits@G@std@@V?$allocator@G@2@@std@@QAEAAGI@Z 1004f500 f i libcpmtd:wlocale.obj
 0001:0004e590       ??A?$basic_string@GU?$char_traits@G@std@@V?$allocator@G@2@@std@@QBEABGI@Z 1004f590 f i libcpmtd:wlocale.obj
 0001:0004e620       ??A?$basic_string@_WU?$char_traits@_W@std@@V?$allocator@_W@2@@std@@QBEAB_WI@Z 1004f620 f i libcpmtd:wlocale.obj
 0001:0004e6b0       ??D?$_String_const_iterator@V?$_String_val@U?$_Simple_types@G@std@@@std@@@std@@QBEABGXZ 1004f6b0 f i libcpmtd:wlocale.obj
 0001:0004e800       ??D?$_String_const_iterator@V?$_String_val@U?$_Simple_types@_W@std@@@std@@@std@@QBEAB_WXZ 1004f800 f i libcpmtd:wlocale.obj
 0001:0004e950       ??D?$_String_iterator@V?$_String_val@U?$_Simple_types@G@std@@@std@@@std@@QBEAAGXZ 1004f950 f i libcpmtd:wlocale.obj
 0001:0004e970       ??D?$_String_iterator@V?$_String_val@U?$_Simple_types@_W@std@@@std@@@std@@QBEAA_WXZ 1004f970 f i libcpmtd:wlocale.obj
 0001:0004e990       ??D?$istreambuf_iterator@GU?$char_traits@G@std@@@std@@QBEGXZ 1004f990 f i libcpmtd:wlocale.obj
 0001:0004ea10       ??D?$istreambuf_iterator@_WU?$char_traits@_W@std@@@std@@QBE_WXZ 1004fa10 f i libcpmtd:wlocale.obj
 0001:0004ea90       ??D?$ostreambuf_iterator@GU?$char_traits@G@std@@@std@@QAEAAV01@XZ 1004fa90 f i libcpmtd:wlocale.obj
 0001:0004eaa0       ??D?$ostreambuf_iterator@_WU?$char_traits@_W@std@@@std@@QAEAAV01@XZ 1004faa0 f i libcpmtd:wlocale.obj
 0001:0004eab0       ??E?$_String_const_iterator@V?$_String_val@U?$_Simple_types@G@std@@@std@@@std@@QAEAAV01@XZ 1004fab0 f i libcpmtd:wlocale.obj
 0001:0004ec00       ??E?$_String_const_iterator@V?$_String_val@U?$_Simple_types@_W@std@@@std@@@std@@QAEAAV01@XZ 1004fc00 f i libcpmtd:wlocale.obj
 0001:0004ed50       ??E?$_String_iterator@V?$_String_val@U?$_Simple_types@G@std@@@std@@@std@@QAEAAV01@XZ 1004fd50 f i libcpmtd:wlocale.obj
 0001:0004ed70       ??E?$_String_iterator@V?$_String_val@U?$_Simple_types@_W@std@@@std@@@std@@QAEAAV01@XZ 1004fd70 f i libcpmtd:wlocale.obj
 0001:0004ed90       ??E?$istreambuf_iterator@GU?$char_traits@G@std@@@std@@QAEAAV01@XZ 1004fd90 f i libcpmtd:wlocale.obj
 0001:0004ee00       ??E?$istreambuf_iterator@_WU?$char_traits@_W@std@@@std@@QAEAAV01@XZ 1004fe00 f i libcpmtd:wlocale.obj
 0001:0004ee70       ??E?$ostreambuf_iterator@GU?$char_traits@G@std@@@std@@QAEAAV01@H@Z 1004fe70 f i libcpmtd:wlocale.obj
 0001:0004ee80       ??E?$ostreambuf_iterator@GU?$char_traits@G@std@@@std@@QAEAAV01@XZ 1004fe80 f i libcpmtd:wlocale.obj
 0001:0004ee90       ??E?$ostreambuf_iterator@_WU?$char_traits@_W@std@@@std@@QAEAAV01@H@Z 1004fe90 f i libcpmtd:wlocale.obj
 0001:0004eea0       ??E?$ostreambuf_iterator@_WU?$char_traits@_W@std@@@std@@QAEAAV01@XZ 1004fea0 f i libcpmtd:wlocale.obj
 0001:0004eeb0       ??G?$_String_iterator@V?$_String_val@U?$_Simple_types@G@std@@@std@@@std@@QBE?AV01@H@Z 1004feb0 f i libcpmtd:wlocale.obj
 0001:0004ef40       ??G?$_String_iterator@V?$_String_val@U?$_Simple_types@_W@std@@@std@@@std@@QBE?AV01@H@Z 1004ff40 f i libcpmtd:wlocale.obj
 0001:0004efd0       ??H?$_String_iterator@V?$_String_val@U?$_Simple_types@G@std@@@std@@@std@@QBE?AV01@H@Z 1004ffd0 f i libcpmtd:wlocale.obj
 0001:0004f060       ??H?$_String_iterator@V?$_String_val@U?$_Simple_types@_W@std@@@std@@@std@@QBE?AV01@H@Z 10050060 f i libcpmtd:wlocale.obj
 0001:0004f6b0       ??Y?$_String_const_iterator@V?$_String_val@U?$_Simple_types@G@std@@@std@@@std@@QAEAAV01@H@Z 100506b0 f i libcpmtd:wlocale.obj
 0001:0004f6e0       ??Y?$_String_const_iterator@V?$_String_val@U?$_Simple_types@_W@std@@@std@@@std@@QAEAAV01@H@Z 100506e0 f i libcpmtd:wlocale.obj
 0001:0004f710       ??Y?$_String_iterator@V?$_String_val@U?$_Simple_types@G@std@@@std@@@std@@QAEAAV01@H@Z 10050710 f i libcpmtd:wlocale.obj
 0001:0004f730       ??Y?$_String_iterator@V?$_String_val@U?$_Simple_types@_W@std@@@std@@@std@@QAEAAV01@H@Z 10050730 f i libcpmtd:wlocale.obj
 0001:0004f750       ??Y?$basic_string@GU?$char_traits@G@std@@V?$allocator@G@2@@std@@QAEAAV01@ABV01@@Z 10050750 f i libcpmtd:wlocale.obj
 0001:0004f770       ??Y?$basic_string@_WU?$char_traits@_W@std@@V?$allocator@_W@2@@std@@QAEAAV01@ABV01@@Z 10050770 f i libcpmtd:wlocale.obj
 0001:0004f790       ??Z?$_String_iterator@V?$_String_val@U?$_Simple_types@G@std@@@std@@@std@@QAEAAV01@H@Z 10050790 f i libcpmtd:wlocale.obj
 0001:0004f7b0       ??Z?$_String_iterator@V?$_String_val@U?$_Simple_types@_W@std@@@std@@@std@@QAEAAV01@H@Z 100507b0 f i libcpmtd:wlocale.obj
 0001:0004f7d0       ??_E?$_Mpunct@G@std@@MAEPAXI@Z 100507d0 f i libcpmtd:wlocale.obj
 0001:0004f7d0       ??_G?$_Mpunct@G@std@@MAEPAXI@Z 100507d0 f i libcpmtd:wlocale.obj
 0001:0004f820       ??_E?$_Mpunct@_W@std@@MAEPAXI@Z 10050820 f i libcpmtd:wlocale.obj
 0001:0004f820       ??_G?$_Mpunct@_W@std@@MAEPAXI@Z 10050820 f i libcpmtd:wlocale.obj
 0001:0004f870       ??_E?$codecvt@GDU_Mbstatet@@@std@@MAEPAXI@Z 10050870 f i libcpmtd:wlocale.obj
 0001:0004f870       ??_G?$codecvt@GDU_Mbstatet@@@std@@MAEPAXI@Z 10050870 f i libcpmtd:wlocale.obj
 0001:0004f8c0       ??_G?$codecvt@_WDU_Mbstatet@@@std@@MAEPAXI@Z 100508c0 f i libcpmtd:wlocale.obj
 0001:0004f8c0       ??_E?$codecvt@_WDU_Mbstatet@@@std@@MAEPAXI@Z 100508c0 f i libcpmtd:wlocale.obj
 0001:0004f910       ??_E?$collate@G@std@@MAEPAXI@Z 10050910 f i libcpmtd:wlocale.obj
 0001:0004f910       ??_G?$collate@G@std@@MAEPAXI@Z 10050910 f i libcpmtd:wlocale.obj
 0001:0004f960       ??_G?$collate@_W@std@@MAEPAXI@Z 10050960 f i libcpmtd:wlocale.obj
 0001:0004f960       ??_E?$collate@_W@std@@MAEPAXI@Z 10050960 f i libcpmtd:wlocale.obj
 0001:0004f9b0       ??_G?$ctype@G@std@@MAEPAXI@Z 100509b0 f i libcpmtd:wlocale.obj
 0001:0004f9b0       ??_E?$ctype@G@std@@MAEPAXI@Z 100509b0 f i libcpmtd:wlocale.obj
 0001:0004fa00       ??_E?$ctype@_W@std@@MAEPAXI@Z 10050a00 f i libcpmtd:wlocale.obj
 0001:0004fa00       ??_G?$ctype@_W@std@@MAEPAXI@Z 10050a00 f i libcpmtd:wlocale.obj
 0001:0004fa50       ??_E?$messages@G@std@@MAEPAXI@Z 10050a50 f i libcpmtd:wlocale.obj
 0001:0004fa50       ??_G?$messages@G@std@@MAEPAXI@Z 10050a50 f i libcpmtd:wlocale.obj
 0001:0004faa0       ??_E?$messages@_W@std@@MAEPAXI@Z 10050aa0 f i libcpmtd:wlocale.obj
 0001:0004faa0       ??_G?$messages@_W@std@@MAEPAXI@Z 10050aa0 f i libcpmtd:wlocale.obj
 0001:0004faf0       ??_E?$money_get@GV?$istreambuf_iterator@GU?$char_traits@G@std@@@std@@@std@@MAEPAXI@Z 10050af0 f i libcpmtd:wlocale.obj
 0001:0004faf0       ??_G?$money_get@GV?$istreambuf_iterator@GU?$char_traits@G@std@@@std@@@std@@MAEPAXI@Z 10050af0 f i libcpmtd:wlocale.obj
 0001:0004fb40       ??_E?$money_get@_WV?$istreambuf_iterator@_WU?$char_traits@_W@std@@@std@@@std@@MAEPAXI@Z 10050b40 f i libcpmtd:wlocale.obj
 0001:0004fb40       ??_G?$money_get@_WV?$istreambuf_iterator@_WU?$char_traits@_W@std@@@std@@@std@@MAEPAXI@Z 10050b40 f i libcpmtd:wlocale.obj
 0001:0004fb90       ??_G?$money_put@GV?$ostreambuf_iterator@GU?$char_traits@G@std@@@std@@@std@@MAEPAXI@Z 10050b90 f i libcpmtd:wlocale.obj
 0001:0004fb90       ??_E?$money_put@GV?$ostreambuf_iterator@GU?$char_traits@G@std@@@std@@@std@@MAEPAXI@Z 10050b90 f i libcpmtd:wlocale.obj
 0001:0004fbe0       ??_E?$money_put@_WV?$ostreambuf_iterator@_WU?$char_traits@_W@std@@@std@@@std@@MAEPAXI@Z 10050be0 f i libcpmtd:wlocale.obj
 0001:0004fbe0       ??_G?$money_put@_WV?$ostreambuf_iterator@_WU?$char_traits@_W@std@@@std@@@std@@MAEPAXI@Z 10050be0 f i libcpmtd:wlocale.obj
 0001:0004fc30       ??_E?$moneypunct@G$00@std@@MAEPAXI@Z 10050c30 f i libcpmtd:wlocale.obj
 0001:0004fc30       ??_G?$moneypunct@G$00@std@@MAEPAXI@Z 10050c30 f i libcpmtd:wlocale.obj
 0001:0004fc80       ??_E?$moneypunct@G$0A@@std@@MAEPAXI@Z 10050c80 f i libcpmtd:wlocale.obj
 0001:0004fc80       ??_G?$moneypunct@G$0A@@std@@MAEPAXI@Z 10050c80 f i libcpmtd:wlocale.obj
 0001:0004fcd0       ??_E?$moneypunct@_W$00@std@@MAEPAXI@Z 10050cd0 f i libcpmtd:wlocale.obj
 0001:0004fcd0       ??_G?$moneypunct@_W$00@std@@MAEPAXI@Z 10050cd0 f i libcpmtd:wlocale.obj
 0001:0004fd20       ??_E?$moneypunct@_W$0A@@std@@MAEPAXI@Z 10050d20 f i libcpmtd:wlocale.obj
 0001:0004fd20       ??_G?$moneypunct@_W$0A@@std@@MAEPAXI@Z 10050d20 f i libcpmtd:wlocale.obj
 0001:0004fd70       ??_E?$num_get@GV?$istreambuf_iterator@GU?$char_traits@G@std@@@std@@@std@@MAEPAXI@Z 10050d70 f i libcpmtd:wlocale.obj
 0001:0004fd70       ??_G?$num_get@GV?$istreambuf_iterator@GU?$char_traits@G@std@@@std@@@std@@MAEPAXI@Z 10050d70 f i libcpmtd:wlocale.obj
 0001:0004fdc0       ??_G?$num_get@_WV?$istreambuf_iterator@_WU?$char_traits@_W@std@@@std@@@std@@MAEPAXI@Z 10050dc0 f i libcpmtd:wlocale.obj
 0001:0004fdc0       ??_E?$num_get@_WV?$istreambuf_iterator@_WU?$char_traits@_W@std@@@std@@@std@@MAEPAXI@Z 10050dc0 f i libcpmtd:wlocale.obj
 0001:0004fe10       ??_E?$num_put@GV?$ostreambuf_iterator@GU?$char_traits@G@std@@@std@@@std@@MAEPAXI@Z 10050e10 f i libcpmtd:wlocale.obj
 0001:0004fe10       ??_G?$num_put@GV?$ostreambuf_iterator@GU?$char_traits@G@std@@@std@@@std@@MAEPAXI@Z 10050e10 f i libcpmtd:wlocale.obj
 0001:0004fe60       ??_G?$num_put@_WV?$ostreambuf_iterator@_WU?$char_traits@_W@std@@@std@@@std@@MAEPAXI@Z 10050e60 f i libcpmtd:wlocale.obj
 0001:0004fe60       ??_E?$num_put@_WV?$ostreambuf_iterator@_WU?$char_traits@_W@std@@@std@@@std@@MAEPAXI@Z 10050e60 f i libcpmtd:wlocale.obj
 0001:0004feb0       ??_E?$numpunct@G@std@@MAEPAXI@Z 10050eb0 f i libcpmtd:wlocale.obj
 0001:0004feb0       ??_G?$numpunct@G@std@@MAEPAXI@Z 10050eb0 f i libcpmtd:wlocale.obj
 0001:0004ff00       ??_G?$numpunct@_W@std@@MAEPAXI@Z 10050f00 f i libcpmtd:wlocale.obj
 0001:0004ff00       ??_E?$numpunct@_W@std@@MAEPAXI@Z 10050f00 f i libcpmtd:wlocale.obj
 0001:0004ff50       ??_G?$time_get@GV?$istreambuf_iterator@GU?$char_traits@G@std@@@std@@@std@@MAEPAXI@Z 10050f50 f i libcpmtd:wlocale.obj
 0001:0004ff50       ??_E?$time_get@GV?$istreambuf_iterator@GU?$char_traits@G@std@@@std@@@std@@MAEPAXI@Z 10050f50 f i libcpmtd:wlocale.obj
 0001:0004ffa0       ??_E?$time_get@_WV?$istreambuf_iterator@_WU?$char_traits@_W@std@@@std@@@std@@MAEPAXI@Z 10050fa0 f i libcpmtd:wlocale.obj
 0001:0004ffa0       ??_G?$time_get@_WV?$istreambuf_iterator@_WU?$char_traits@_W@std@@@std@@@std@@MAEPAXI@Z 10050fa0 f i libcpmtd:wlocale.obj
 0001:0004fff0       ??_E?$time_put@GV?$ostreambuf_iterator@GU?$char_traits@G@std@@@std@@@std@@MAEPAXI@Z 10050ff0 f i libcpmtd:wlocale.obj
 0001:0004fff0       ??_G?$time_put@GV?$ostreambuf_iterator@GU?$char_traits@G@std@@@std@@@std@@MAEPAXI@Z 10050ff0 f i libcpmtd:wlocale.obj
 0001:00050040       ??_G?$time_put@_WV?$ostreambuf_iterator@_WU?$char_traits@_W@std@@@std@@@std@@MAEPAXI@Z 10051040 f i libcpmtd:wlocale.obj
 0001:00050040       ??_E?$time_put@_WV?$ostreambuf_iterator@_WU?$char_traits@_W@std@@@std@@@std@@MAEPAXI@Z 10051040 f i libcpmtd:wlocale.obj
 0001:00050090       ??_Gmessages_base@std@@UAEPAXI@Z 10051090 f i libcpmtd:wlocale.obj
 0001:00050090       ??_Emessages_base@std@@UAEPAXI@Z 10051090 f i libcpmtd:wlocale.obj
 0001:000500e0       ??_Gmoney_base@std@@UAEPAXI@Z 100510e0 f i libcpmtd:wlocale.obj
 0001:000500e0       ??_Emoney_base@std@@UAEPAXI@Z 100510e0 f i libcpmtd:wlocale.obj
 0001:00050130       ??_Etime_base@std@@UAEPAXI@Z 10051130 f i libcpmtd:wlocale.obj
 0001:00050130       ??_Gtime_base@std@@UAEPAXI@Z 10051130 f i libcpmtd:wlocale.obj
 0001:00050180       ?_Alloc_proxy@?$_String_alloc@U?$_String_base_types@GV?$allocator@G@std@@@std@@@std@@QAEXXZ 10051180 f i libcpmtd:wlocale.obj
 0001:00050200       ?_Assign_rv_contents@?$basic_string@GU?$char_traits@G@std@@V?$allocator@G@2@@std@@QAEX$$QAV12@U?$integral_constant@_N$00@2@@Z 10051200 f i libcpmtd:wlocale.obj
 0001:00050230       ?_Assign_rv_contents@?$basic_string@_WU?$char_traits@_W@std@@V?$allocator@_W@2@@std@@QAEX$$QAV12@U?$integral_constant@_N$00@2@@Z 10051230 f i libcpmtd:wlocale.obj
 0001:00050260       ?_Assign_rv_contents_with_alloc_always_equal@?$basic_string@GU?$char_traits@G@std@@V?$allocator@G@2@@std@@QAEX$$QAV12@U?$integral_constant@_N$00@2@@Z 10051260 f i libcpmtd:wlocale.obj
 0001:00050310       ?_Assign_rv_contents_with_alloc_always_equal@?$basic_string@_WU?$char_traits@_W@std@@V?$allocator@_W@2@@std@@QAEX$$QAV12@U?$integral_constant@_N$00@2@@Z 10051310 f i libcpmtd:wlocale.obj
 0001:000503c0       ?_C_str@?$_Yarn@_W@std@@QBEPB_WXZ 100513c0 f i libcpmtd:wlocale.obj
 0001:000503f0       ?_Calculate_growth@?$basic_string@GU?$char_traits@G@std@@V?$allocator@G@2@@std@@QBEII@Z 100513f0 f i libcpmtd:wlocale.obj
 0001:00050470       ?_Check_offset@?$_String_val@U?$_Simple_types@G@std@@@std@@QBEXI@Z 10051470 f i libcpmtd:wlocale.obj
 0001:00050490       ?_Check_offset@?$_String_val@U?$_Simple_types@_W@std@@@std@@QBEXI@Z 10051490 f i libcpmtd:wlocale.obj
 0001:000504b0       ?_Compat@?$_String_const_iterator@V?$_String_val@U?$_Simple_types@G@std@@@std@@@std@@QBEXABV12@@Z 100514b0 f i libcpmtd:wlocale.obj
 0001:00050530       ?_Compat@?$_String_const_iterator@V?$_String_val@U?$_Simple_types@_W@std@@@std@@@std@@QBEXABV12@@Z 10051530 f i libcpmtd:wlocale.obj
 0001:000505b0       ?_Construct_lv_contents@?$basic_string@GU?$char_traits@G@std@@V?$allocator@G@2@@std@@QAEXABV12@@Z 100515b0 f i libcpmtd:wlocale.obj
 0001:000506c0       ?_Construct_lv_contents@?$basic_string@_WU?$char_traits@_W@std@@V?$allocator@_W@2@@std@@QAEXABV12@@Z 100516c0 f i libcpmtd:wlocale.obj
 0001:000507d0       ?_Donarrow@?$ctype@G@std@@IBEDGD@Z 100517d0 f i libcpmtd:wlocale.obj
 0001:00050840       ?_Donarrow@?$ctype@_W@std@@IBED_WD@Z 10051840 f i libcpmtd:wlocale.obj
 0001:000508b0       ?_Dowiden@?$ctype@G@std@@IBEGD@Z 100518b0 f i libcpmtd:wlocale.obj
 0001:00050900       ?_Dowiden@?$ctype@_W@std@@IBE_WD@Z 10051900 f i libcpmtd:wlocale.obj
 0001:00050950       ?_Empty@?$_Yarn@_W@std@@QBE_NXZ 10051950 f i libcpmtd:wlocale.obj
 0001:00050980       ?_Eos@?$basic_string@GU?$char_traits@G@std@@V?$allocator@G@2@@std@@QAEXI@Z 10051980 f i libcpmtd:wlocale.obj
 0001:000509d0       ?_Eos@?$basic_string@_WU?$char_traits@_W@std@@V?$allocator@_W@2@@std@@QAEXI@Z 100519d0 f i libcpmtd:wlocale.obj
 0001:00050a20       ?_Ffmt@?$num_put@GV?$ostreambuf_iterator@GU?$char_traits@G@std@@@std@@@std@@ABAPADPADDH@Z 10051a20 f i libcpmtd:wlocale.obj
 0001:00050b60       ?_Ffmt@?$num_put@_WV?$ostreambuf_iterator@_WU?$char_traits@_W@std@@@std@@@std@@ABAPADPADDH@Z 10051b60 f i libcpmtd:wlocale.obj
 0001:00050ca0       ?_Fnv1a_append_bytes@std@@YAIIQBEI@Z 10051ca0 f i libcpmtd:wlocale.obj
 0001:00050ce0       ?_Fput@?$num_put@GV?$ostreambuf_iterator@GU?$char_traits@G@std@@@std@@@std@@ABA?AV?$ostreambuf_iterator@GU?$char_traits@G@std@@@2@V32@AAVios_base@2@GPBDI@Z 10051ce0 f i libcpmtd:wlocale.obj
 0001:000511f0       ?_Fput@?$num_put@_WV?$ostreambuf_iterator@_WU?$char_traits@_W@std@@@std@@@std@@ABA?AV?$ostreambuf_iterator@_WU?$char_traits@_W@std@@@2@V32@AAVios_base@2@_WPBDI@Z 100521f0 f i libcpmtd:wlocale.obj
 0001:00051700       ?_Free_proxy@?$_String_alloc@U?$_String_base_types@GV?$allocator@G@std@@@std@@@std@@QAEXXZ 10052700 f i libcpmtd:wlocale.obj
 0001:00051770       ?_Get_data@?$_String_alloc@U?$_String_base_types@GV?$allocator@G@std@@@std@@@std@@QAEAAV?$_String_val@U?$_Simple_types@G@std@@@2@XZ 10052770 f i libcpmtd:wlocale.obj
 0001:00051790       ?_Get_data@?$_String_alloc@U?$_String_base_types@GV?$allocator@G@std@@@std@@@std@@QBEABV?$_String_val@U?$_Simple_types@G@std@@@2@XZ 10052790 f i libcpmtd:wlocale.obj
 0001:000517b0       ?_Get_first@?$_Compressed_pair@V?$allocator@G@std@@V?$_String_val@U?$_Simple_types@G@std@@@2@$00@std@@QAEAAV?$allocator@G@2@XZ 100527b0 f i libcpmtd:wlocale.obj
 0001:000517c0       ?_Get_first@?$_Compressed_pair@V?$allocator@G@std@@V?$_String_val@U?$_Simple_types@G@std@@@2@$00@std@@QBEABV?$allocator@G@2@XZ 100527c0 f i libcpmtd:wlocale.obj
 0001:000517d0       ?_Get_second@?$_Compressed_pair@V?$allocator@G@std@@V?$_String_val@U?$_Simple_types@G@std@@@2@$00@std@@QAEAAV?$_String_val@U?$_Simple_types@G@std@@@2@XZ 100527d0 f i libcpmtd:wlocale.obj
 0001:000517e0       ?_Get_second@?$_Compressed_pair@V?$allocator@G@std@@V?$_String_val@U?$_Simple_types@G@std@@@2@$00@std@@QBEABV?$_String_val@U?$_Simple_types@G@std@@@2@XZ 100527e0 f i libcpmtd:wlocale.obj
 0001:000517f0       ?_Getal@?$_String_alloc@U?$_String_base_types@GV?$allocator@G@std@@@std@@@std@@QAEAAV?$allocator@G@2@XZ 100527f0 f i libcpmtd:wlocale.obj
 0001:00051810       ?_Getal@?$_String_alloc@U?$_String_base_types@GV?$allocator@G@std@@@std@@@std@@QBEABV?$allocator@G@2@XZ 10052810 f i libcpmtd:wlocale.obj
 0001:00051830       ?_Getcat@?$codecvt@GDU_Mbstatet@@@std@@SAIPAPBVfacet@locale@2@PBV42@@Z 10052830 f i libcpmtd:wlocale.obj
 0001:00051920       ?_Getcat@?$codecvt@_WDU_Mbstatet@@@std@@SAIPAPBVfacet@locale@2@PBV42@@Z 10052920 f i libcpmtd:wlocale.obj
 0001:00051a10       ?_Getcat@?$collate@G@std@@SAIPAPBVfacet@locale@2@PBV42@@Z 10052a10 f i libcpmtd:wlocale.obj
 0001:00051b40       ?_Getcat@?$collate@_W@std@@SAIPAPBVfacet@locale@2@PBV42@@Z 10052b40 f i libcpmtd:wlocale.obj
 0001:00051c70       ?_Getcat@?$ctype@G@std@@SAIPAPBVfacet@locale@2@PBV42@@Z 10052c70 f i libcpmtd:wlocale.obj
 0001:00051d60       ?_Getcat@?$ctype@_W@std@@SAIPAPBVfacet@locale@2@PBV42@@Z 10052d60 f i libcpmtd:wlocale.obj
 0001:00051e50       ?_Getcat@?$messages@G@std@@SAIPAPBVfacet@locale@2@PBV42@@Z 10052e50 f i libcpmtd:wlocale.obj
 0001:00051f40       ?_Getcat@?$messages@_W@std@@SAIPAPBVfacet@locale@2@PBV42@@Z 10052f40 f i libcpmtd:wlocale.obj
 0001:00052030       ?_Getcat@?$money_get@GV?$istreambuf_iterator@GU?$char_traits@G@std@@@std@@@std@@SAIPAPBVfacet@locale@2@PBV42@@Z 10053030 f i libcpmtd:wlocale.obj
 0001:00052120       ?_Getcat@?$money_get@_WV?$istreambuf_iterator@_WU?$char_traits@_W@std@@@std@@@std@@SAIPAPBVfacet@locale@2@PBV42@@Z 10053120 f i libcpmtd:wlocale.obj
 0001:00052210       ?_Getcat@?$money_put@GV?$ostreambuf_iterator@GU?$char_traits@G@std@@@std@@@std@@SAIPAPBVfacet@locale@2@PBV42@@Z 10053210 f i libcpmtd:wlocale.obj
 0001:00052300       ?_Getcat@?$money_put@_WV?$ostreambuf_iterator@_WU?$char_traits@_W@std@@@std@@@std@@SAIPAPBVfacet@locale@2@PBV42@@Z 10053300 f i libcpmtd:wlocale.obj
 0001:000523f0       ?_Getcat@?$moneypunct@G$00@std@@SAIPAPBVfacet@locale@2@PBV42@@Z 100533f0 f i libcpmtd:wlocale.obj
 0001:000524e0       ?_Getcat@?$moneypunct@G$0A@@std@@SAIPAPBVfacet@locale@2@PBV42@@Z 100534e0 f i libcpmtd:wlocale.obj
 0001:000525d0       ?_Getcat@?$moneypunct@_W$00@std@@SAIPAPBVfacet@locale@2@PBV42@@Z 100535d0 f i libcpmtd:wlocale.obj
 0001:000526c0       ?_Getcat@?$moneypunct@_W$0A@@std@@SAIPAPBVfacet@locale@2@PBV42@@Z 100536c0 f i libcpmtd:wlocale.obj
 0001:000527b0       ?_Getcat@?$num_get@GV?$istreambuf_iterator@GU?$char_traits@G@std@@@std@@@std@@SAIPAPBVfacet@locale@2@PBV42@@Z 100537b0 f i libcpmtd:wlocale.obj
 0001:000528a0       ?_Getcat@?$num_get@_WV?$istreambuf_iterator@_WU?$char_traits@_W@std@@@std@@@std@@SAIPAPBVfacet@locale@2@PBV42@@Z 100538a0 f i libcpmtd:wlocale.obj
 0001:00052990       ?_Getcat@?$num_put@GV?$ostreambuf_iterator@GU?$char_traits@G@std@@@std@@@std@@SAIPAPBVfacet@locale@2@PBV42@@Z 10053990 f i libcpmtd:wlocale.obj
 0001:00052a80       ?_Getcat@?$num_put@_WV?$ostreambuf_iterator@_WU?$char_traits@_W@std@@@std@@@std@@SAIPAPBVfacet@locale@2@PBV42@@Z 10053a80 f i libcpmtd:wlocale.obj
 0001:00052b70       ?_Getcat@?$numpunct@G@std@@SAIPAPBVfacet@locale@2@PBV42@@Z 10053b70 f i libcpmtd:wlocale.obj
 0001:00052c60       ?_Getcat@?$numpunct@_W@std@@SAIPAPBVfacet@locale@2@PBV42@@Z 10053c60 f i libcpmtd:wlocale.obj
 0001:00052d50       ?_Getcat@?$time_get@GV?$istreambuf_iterator@GU?$char_traits@G@std@@@std@@@std@@SAIPAPBVfacet@locale@2@PBV42@@Z 10053d50 f i libcpmtd:wlocale.obj
 0001:00052e40       ?_Getcat@?$time_get@_WV?$istreambuf_iterator@_WU?$char_traits@_W@std@@@std@@@std@@SAIPAPBVfacet@locale@2@PBV42@@Z 10053e40 f i libcpmtd:wlocale.obj
 0001:00052f30       ?_Getcat@?$time_put@GV?$ostreambuf_iterator@GU?$char_traits@G@std@@@std@@@std@@SAIPAPBVfacet@locale@2@PBV42@@Z 10053f30 f i libcpmtd:wlocale.obj
 0001:00053020       ?_Getcat@?$time_put@_WV?$ostreambuf_iterator@_WU?$char_traits@_W@std@@@std@@@std@@SAIPAPBVfacet@locale@2@PBV42@@Z 10054020 f i libcpmtd:wlocale.obj
 0001:00053110       ?_Getcoll@_Locinfo@std@@QBE?AU_Collvec@@XZ 10054110 f i libcpmtd:wlocale.obj
 0001:00053140       ?_Getdateorder@_Locinfo@std@@QBEHXZ 10054140 f i libcpmtd:wlocale.obj
 0001:00053150       ?_Getdays@_Locinfo@std@@QBEPBDXZ 10054150 f i libcpmtd:wlocale.obj
 0001:000531c0       ?_Getffld@?$num_get@GV?$istreambuf_iterator@GU?$char_traits@G@std@@@std@@@std@@ABAHPADAAV?$istreambuf_iterator@GU?$char_traits@G@std@@@2@1AAVios_base@2@PAH@Z 100541c0 f i libcpmtd:wlocale.obj
 0001:00053b60       ?_Getffld@?$num_get@_WV?$istreambuf_iterator@_WU?$char_traits@_W@std@@@std@@@std@@ABAHPADAAV?$istreambuf_iterator@_WU?$char_traits@_W@std@@@2@1AAVios_base@2@PAH@Z 10054b60 f i libcpmtd:wlocale.obj
 0001:00054500       ?_Getffldx@?$num_get@GV?$istreambuf_iterator@GU?$char_traits@G@std@@@std@@@std@@ABAHPADAAV?$istreambuf_iterator@GU?$char_traits@G@std@@@2@1AAVios_base@2@PAH@Z 10055500 f i libcpmtd:wlocale.obj
 0001:00054fd0       ?_Getffldx@?$num_get@_WV?$istreambuf_iterator@_WU?$char_traits@_W@std@@@std@@@std@@ABAHPADAAV?$istreambuf_iterator@_WU?$char_traits@_W@std@@@2@1AAVios_base@2@PAH@Z 10055fd0 f i libcpmtd:wlocale.obj
 0001:00055aa0       ?_Getfmt@?$time_get@GV?$istreambuf_iterator@GU?$char_traits@G@std@@@std@@@std@@IBE?AV?$istreambuf_iterator@GU?$char_traits@G@std@@@2@V32@0AAVios_base@2@AAHPAUtm@@PBD@Z 10056aa0 f i libcpmtd:wlocale.obj
 0001:00055c60       ?_Getfmt@?$time_get@_WV?$istreambuf_iterator@_WU?$char_traits@_W@std@@@std@@@std@@IBE?AV?$istreambuf_iterator@_WU?$char_traits@_W@std@@@2@V32@0AAVios_base@2@AAHPAUtm@@PBD@Z 10056c60 f i libcpmtd:wlocale.obj
 0001:00055e20       ?_Getifld@?$num_get@GV?$istreambuf_iterator@GU?$char_traits@G@std@@@std@@@std@@ABAHPADAAV?$istreambuf_iterator@GU?$char_traits@G@std@@@2@1HABVlocale@2@@Z 10056e20 f i libcpmtd:wlocale.obj
 0001:00056460       ?_Getifld@?$num_get@_WV?$istreambuf_iterator@_WU?$char_traits@_W@std@@@std@@@std@@ABAHPADAAV?$istreambuf_iterator@_WU?$char_traits@_W@std@@@2@1HABVlocale@2@@Z 10057460 f i libcpmtd:wlocale.obj
 0001:00056aa0       ?_Getint@?$time_get@GV?$istreambuf_iterator@GU?$char_traits@G@std@@@std@@@std@@ABAHAAV?$istreambuf_iterator@GU?$char_traits@G@std@@@2@0HHAAHABV?$ctype@G@2@@Z 10057aa0 f i libcpmtd:wlocale.obj
 0001:00056ca0       ?_Getint@?$time_get@_WV?$istreambuf_iterator@_WU?$char_traits@_W@std@@@std@@@std@@ABAHAAV?$istreambuf_iterator@_WU?$char_traits@_W@std@@@2@0HHAAHABV?$ctype@_W@2@@Z 10057ca0 f i libcpmtd:wlocale.obj
 0001:00056ea0       ?_Getmfld@?$money_get@GV?$istreambuf_iterator@GU?$char_traits@G@std@@@std@@@std@@ABE?AV?$basic_string@DU?$char_traits@D@std@@V?$allocator@D@2@@2@AAV?$istreambuf_iterator@GU?$char_traits@G@std@@@2@0_NAAVios_base@2@AAY0M@G@Z 10057ea0 f i libcpmtd:wlocale.obj
 0001:00057ec0       ?_Getmfld@?$money_get@_WV?$istreambuf_iterator@_WU?$char_traits@_W@std@@@std@@@std@@ABE?AV?$basic_string@DU?$char_traits@D@std@@V?$allocator@D@2@@2@AAV?$istreambuf_iterator@_WU?$char_traits@_W@std@@@2@0_NAAVios_base@2@AAY0M@_W@Z 10058ec0 f i libcpmtd:wlocale.obj
 0001:00058ee0       ?_Getmonths@_Locinfo@std@@QBEPBDXZ 10059ee0 f i libcpmtd:wlocale.obj
 0001:00058f50       ?_Getptr@_Timevec@std@@QBEPAXXZ 10059f50 f i libcpmtd:wlocale.obj
 0001:00058f60       ?_Getvals@?$_Mpunct@_W@std@@IAEX_WPBUlconv@@@Z 10059f60 f i libcpmtd:wlocale.obj
 0001:00059040       ?_Getvals@?$numpunct@_W@std@@IAEX_WPBUlconv@@U_Cvtvec@@@Z 1005a040 f i libcpmtd:wlocale.obj
 0001:00059080       ?_Gnavail@?$basic_streambuf@GU?$char_traits@G@std@@@std@@IBE_JXZ 1005a080 f i libcpmtd:wlocale.obj
 0001:000590b0       ?_Gnavail@?$basic_streambuf@_WU?$char_traits@_W@std@@@std@@IBE_JXZ 1005a0b0 f i libcpmtd:wlocale.obj
 0001:000590e0       ?_Gninc@?$basic_streambuf@GU?$char_traits@G@std@@@std@@IAEPAGXZ 1005a0e0 f i libcpmtd:wlocale.obj
 0001:00059130       ?_Gninc@?$basic_streambuf@_WU?$char_traits@_W@std@@@std@@IAEPA_WXZ 1005a130 f i libcpmtd:wlocale.obj
 0001:00059180       ?_Ifmt@?$num_put@GV?$ostreambuf_iterator@GU?$char_traits@G@std@@@std@@@std@@ABAPADPADPBDH@Z 1005a180 f i libcpmtd:wlocale.obj
 0001:000592a0       ?_Ifmt@?$num_put@_WV?$ostreambuf_iterator@_WU?$char_traits@_W@std@@@std@@@std@@ABAPADPADPBDH@Z 1005a2a0 f i libcpmtd:wlocale.obj
 0001:000593c0       ?_Inc@?$istreambuf_iterator@GU?$char_traits@G@std@@@std@@AAEXXZ 1005a3c0 f i libcpmtd:wlocale.obj
 0001:00059420       ?_Inc@?$istreambuf_iterator@_WU?$char_traits@_W@std@@@std@@AAEXXZ 1005a420 f i libcpmtd:wlocale.obj
 0001:00059480       ?_Init@?$_Mpunct@G@std@@IAEXABV_Locinfo@2@_N@Z 1005a480 f i libcpmtd:wlocale.obj
 0001:00059650       ?_Init@?$_Mpunct@_W@std@@IAEXABV_Locinfo@2@_N@Z 1005a650 f i libcpmtd:wlocale.obj
 0001:00059820       ?_Init@?$codecvt@GDU_Mbstatet@@@std@@IAEXABV_Locinfo@2@@Z 1005a820 f i libcpmtd:wlocale.obj
 0001:00059870       ?_Init@?$codecvt@_WDU_Mbstatet@@@std@@IAEXABV_Locinfo@2@@Z 1005a870 f i libcpmtd:wlocale.obj
 0001:000598c0       ?_Init@?$collate@G@std@@IAEXABV_Locinfo@2@@Z 1005a8c0 f i libcpmtd:wlocale.obj
 0001:000598f0       ?_Init@?$collate@_W@std@@IAEXABV_Locinfo@2@@Z 1005a8f0 f i libcpmtd:wlocale.obj
 0001:00059920       ?_Init@?$ctype@G@std@@IAEXABV_Locinfo@2@@Z 1005a920 f i libcpmtd:wlocale.obj
 0001:00059990       ?_Init@?$ctype@_W@std@@IAEXABV_Locinfo@2@@Z 1005a990 f i libcpmtd:wlocale.obj
 0001:00059a00       ?_Init@?$messages@G@std@@IAEXABV_Locinfo@2@@Z 1005aa00 f i libcpmtd:wlocale.obj
 0001:00059a10       ?_Init@?$messages@_W@std@@IAEXABV_Locinfo@2@@Z 1005aa10 f i libcpmtd:wlocale.obj
 0001:00059a20       ?_Init@?$money_get@GV?$istreambuf_iterator@GU?$char_traits@G@std@@@std@@@std@@IAEXABV_Locinfo@2@@Z 1005aa20 f i libcpmtd:wlocale.obj
 0001:00059a30       ?_Init@?$money_get@_WV?$istreambuf_iterator@_WU?$char_traits@_W@std@@@std@@@std@@IAEXABV_Locinfo@2@@Z 1005aa30 f i libcpmtd:wlocale.obj
 0001:00059a40       ?_Init@?$money_put@GV?$ostreambuf_iterator@GU?$char_traits@G@std@@@std@@@std@@IAEXABV_Locinfo@2@@Z 1005aa40 f i libcpmtd:wlocale.obj
 0001:00059a50       ?_Init@?$money_put@_WV?$ostreambuf_iterator@_WU?$char_traits@_W@std@@@std@@@std@@IAEXABV_Locinfo@2@@Z 1005aa50 f i libcpmtd:wlocale.obj
 0001:00059a60       ?_Init@?$num_get@GV?$istreambuf_iterator@GU?$char_traits@G@std@@@std@@@std@@IAEXABV_Locinfo@2@@Z 1005aa60 f i libcpmtd:wlocale.obj
 0001:00059a70       ?_Init@?$num_get@_WV?$istreambuf_iterator@_WU?$char_traits@_W@std@@@std@@@std@@IAEXABV_Locinfo@2@@Z 1005aa70 f i libcpmtd:wlocale.obj
 0001:00059a80       ?_Init@?$num_put@GV?$ostreambuf_iterator@GU?$char_traits@G@std@@@std@@@std@@IAEXABV_Locinfo@2@@Z 1005aa80 f i libcpmtd:wlocale.obj
 0001:00059a90       ?_Init@?$num_put@_WV?$ostreambuf_iterator@_WU?$char_traits@_W@std@@@std@@@std@@IAEXABV_Locinfo@2@@Z 1005aa90 f i libcpmtd:wlocale.obj
 0001:00059aa0       ?_Init@?$numpunct@G@std@@IAEXABV_Locinfo@2@_N@Z 1005aaa0 f i libcpmtd:wlocale.obj
 0001:00059c60       ?_Init@?$numpunct@_W@std@@IAEXABV_Locinfo@2@_N@Z 1005ac60 f i libcpmtd:wlocale.obj
 0001:00059e20       ?_Init@?$time_get@GV?$istreambuf_iterator@GU?$char_traits@G@std@@@std@@@std@@IAEXABV_Locinfo@2@@Z 1005ae20 f i libcpmtd:wlocale.obj
 0001:00059ee0       ?_Init@?$time_get@_WV?$istreambuf_iterator@_WU?$char_traits@_W@std@@@std@@@std@@IAEXABV_Locinfo@2@@Z 1005aee0 f i libcpmtd:wlocale.obj
 0001:00059fa0       ?_Init@?$time_put@GV?$ostreambuf_iterator@GU?$char_traits@G@std@@@std@@@std@@IAEXABV_Locinfo@2@@Z 1005afa0 f i libcpmtd:wlocale.obj
 0001:0005a020       ?_Init@?$time_put@_WV?$ostreambuf_iterator@_WU?$char_traits@_W@std@@@std@@@std@@IAEXABV_Locinfo@2@@Z 1005b020 f i libcpmtd:wlocale.obj
 0001:0005a0a0       ?_Iput@?$num_put@GV?$ostreambuf_iterator@GU?$char_traits@G@std@@@std@@@std@@ABA?AV?$ostreambuf_iterator@GU?$char_traits@G@std@@@2@V32@AAVios_base@2@GPADI@Z 1005b0a0 f i libcpmtd:wlocale.obj
 0001:0005a4e0       ?_Iput@?$num_put@_WV?$ostreambuf_iterator@_WU?$char_traits@_W@std@@@std@@@std@@ABA?AV?$ostreambuf_iterator@_WU?$char_traits@_W@std@@@2@V32@AAVios_base@2@_WPADI@Z 1005b4e0 f i libcpmtd:wlocale.obj
 0001:0005a920       ?_Large_string_engaged@?$_String_val@U?$_Simple_types@G@std@@@std@@QBE_NXZ 1005b920 f i libcpmtd:wlocale.obj
 0001:0005a950       ?_Makeushloc@_Locimp@locale@std@@CAXABV_Locinfo@3@HPAV123@PBV23@@Z 1005b950 f   libcpmtd:wlocale.obj
 0001:0005b320       ?_Makewloc@_Locimp@locale@std@@CAXABV_Locinfo@3@HPAV123@PBV23@@Z 1005c320 f   libcpmtd:wlocale.obj
 0001:0005bcf0       ?_Maklocwcs@std@@YAPA_WPB_W@Z 1005ccf0 f i libcpmtd:wlocale.obj
 0001:0005bd50       ?_Makpat@?$_Mpunct@G@std@@AAEXAAUpattern@money_base@2@III@Z 1005cd50 f i libcpmtd:wlocale.obj
 0001:0005bdc0       ?_Makpat@?$_Mpunct@_W@std@@AAEXAAUpattern@money_base@2@III@Z 1005cdc0 f i libcpmtd:wlocale.obj
 0001:0005be30       ?_Move_alloc@?$_String_alloc@U?$_String_base_types@GV?$allocator@G@std@@@std@@@std@@QAEXAAV?$allocator@G@2@@Z 1005ce30 f i libcpmtd:wlocale.obj
 0001:0005beb0       ?_Move_alloc@?$_String_alloc@U?$_String_base_types@_WV?$allocator@_W@std@@@std@@@std@@QAEXAAV?$allocator@_W@2@@Z 1005ceb0 f i libcpmtd:wlocale.obj
 0001:0005bf30       ?_Myproxy@?$_String_alloc@U?$_String_base_types@GV?$allocator@G@std@@@std@@@std@@QAEAAPAU_Container_proxy@2@XZ 1005cf30 f i libcpmtd:wlocale.obj
 0001:0005bf50       ?_Myptr@?$_String_val@U?$_Simple_types@G@std@@@std@@QAEPAGXZ 1005cf50 f i libcpmtd:wlocale.obj
 0001:0005bf90       ?_Myptr@?$_String_val@U?$_Simple_types@G@std@@@std@@QBEPBGXZ 1005cf90 f i libcpmtd:wlocale.obj
 0001:0005bfd0       ?_Myptr@?$_String_val@U?$_Simple_types@_W@std@@@std@@QBEPB_WXZ 1005cfd0 f i libcpmtd:wlocale.obj
 0001:0005c010       ?_Orphan_all@?$_String_alloc@U?$_String_base_types@GV?$allocator@G@std@@@std@@@std@@QAEXXZ 1005d010 f i libcpmtd:wlocale.obj
 0001:0005c030       ?_Peek@?$istreambuf_iterator@GU?$char_traits@G@std@@@std@@ABEGXZ 1005d030 f i libcpmtd:wlocale.obj
 0001:0005c0a0       ?_Peek@?$istreambuf_iterator@_WU?$char_traits@_W@std@@@std@@ABE_WXZ 1005d0a0 f i libcpmtd:wlocale.obj
 0001:0005c110       ?_Pnavail@?$basic_streambuf@GU?$char_traits@G@std@@@std@@IBE_JXZ 1005d110 f i libcpmtd:wlocale.obj
 0001:0005c140       ?_Pnavail@?$basic_streambuf@_WU?$char_traits@_W@std@@@std@@IBE_JXZ 1005d140 f i libcpmtd:wlocale.obj
 0001:0005c170       ?_Pninc@?$basic_streambuf@GU?$char_traits@G@std@@@std@@IAEPAGXZ 1005d170 f i libcpmtd:wlocale.obj
 0001:0005c1c0       ?_Pninc@?$basic_streambuf@_WU?$char_traits@_W@std@@@std@@IAEPA_WXZ 1005d1c0 f i libcpmtd:wlocale.obj
 0001:0005c210       ?_Put@?$money_put@GV?$ostreambuf_iterator@GU?$char_traits@G@std@@@std@@@std@@CA?AV?$ostreambuf_iterator@GU?$char_traits@G@std@@@2@V32@V?$_String_const_iterator@V?$_String_val@U?$_Simple_types@G@std@@@std@@@2@I@Z 1005d210 f i libcpmtd:wlocale.obj
 0001:0005c2c0       ?_Put@?$money_put@_WV?$ostreambuf_iterator@_WU?$char_traits@_W@std@@@std@@@std@@CA?AV?$ostreambuf_iterator@_WU?$char_traits@_W@std@@@2@V32@V?$_String_const_iterator@V?$_String_val@U?$_Simple_types@_W@std@@@std@@@2@I@Z 1005d2c0 f i libcpmtd:wlocale.obj
 0001:0005c370       ?_Put@?$num_put@GV?$ostreambuf_iterator@GU?$char_traits@G@std@@@std@@@std@@ABA?AV?$ostreambuf_iterator@GU?$char_traits@G@std@@@2@V32@PBGI@Z 1005d370 f i libcpmtd:wlocale.obj
 0001:0005c3d0       ?_Put@?$num_put@_WV?$ostreambuf_iterator@_WU?$char_traits@_W@std@@@std@@@std@@ABA?AV?$ostreambuf_iterator@_WU?$char_traits@_W@std@@@2@V32@PB_WI@Z 1005d3d0 f i libcpmtd:wlocale.obj
 0001:0005c430       ?_Putmfld@?$money_put@GV?$ostreambuf_iterator@GU?$char_traits@G@std@@@std@@@std@@ABE?AV?$ostreambuf_iterator@GU?$char_traits@G@std@@@2@V32@_NAAVios_base@2@G1V?$basic_string@GU?$char_traits@G@std@@V?$allocator@G@2@@2@G@Z 1005d430 f i libcpmtd:wlocale.obj
 0001:0005d180       ?_Putmfld@?$money_put@_WV?$ostreambuf_iterator@_WU?$char_traits@_W@std@@@std@@@std@@ABE?AV?$ostreambuf_iterator@_WU?$char_traits@_W@std@@@2@V32@_NAAVios_base@2@_W1V?$basic_string@_WU?$char_traits@_W@std@@V?$allocator@_W@2@@2@3@Z 1005e180 f i libcpmtd:wlocale.obj
 0001:0005ded0       ?_Rep@?$money_put@GV?$ostreambuf_iterator@GU?$char_traits@G@std@@@std@@@std@@CA?AV?$ostreambuf_iterator@GU?$char_traits@G@std@@@2@V32@GI@Z 1005eed0 f i libcpmtd:wlocale.obj
 0001:0005df20       ?_Rep@?$money_put@_WV?$ostreambuf_iterator@_WU?$char_traits@_W@std@@@std@@@std@@CA?AV?$ostreambuf_iterator@_WU?$char_traits@_W@std@@@2@V32@_WI@Z 1005ef20 f i libcpmtd:wlocale.obj
 0001:0005df70       ?_Rep@?$num_put@GV?$ostreambuf_iterator@GU?$char_traits@G@std@@@std@@@std@@ABA?AV?$ostreambuf_iterator@GU?$char_traits@G@std@@@2@V32@GI@Z 1005ef70 f i libcpmtd:wlocale.obj
 0001:0005dfc0       ?_Rep@?$num_put@_WV?$ostreambuf_iterator@_WU?$char_traits@_W@std@@@std@@@std@@ABA?AV?$ostreambuf_iterator@_WU?$char_traits@_W@std@@@2@V32@_WI@Z 1005efc0 f i libcpmtd:wlocale.obj
 0001:0005e010       ?_Swap_all@?$_String_alloc@U?$_String_base_types@GV?$allocator@G@std@@@std@@@std@@QAEXAAV12@@Z 1005f010 f i libcpmtd:wlocale.obj
 0001:0005e040       ?_Swap_all@?$_String_alloc@U?$_String_base_types@_WV?$allocator@_W@std@@@std@@@std@@QAEXAAV12@@Z 1005f040 f i libcpmtd:wlocale.obj
 0001:0005e070       ?_Tidy@?$_Mpunct@G@std@@AAEXXZ 1005f070 f i libcpmtd:wlocale.obj
 0001:0005e0c0       ?_Tidy@?$_Mpunct@_W@std@@AAEXXZ 1005f0c0 f i libcpmtd:wlocale.obj
 0001:0005e110       ?_Tidy@?$numpunct@G@std@@AAEXXZ 1005f110 f i libcpmtd:wlocale.obj
 0001:0005e150       ?_Tidy@?$numpunct@_W@std@@AAEXXZ 1005f150 f i libcpmtd:wlocale.obj
 0001:0005e190       ?_Tidy@?$time_get@GV?$istreambuf_iterator@GU?$char_traits@G@std@@@std@@@std@@AAEXXZ 1005f190 f i libcpmtd:wlocale.obj
 0001:0005e1d0       ?_Tidy@?$time_get@_WV?$istreambuf_iterator@_WU?$char_traits@_W@std@@@std@@@std@@AAEXXZ 1005f1d0 f i libcpmtd:wlocale.obj
 0001:0005e210       ?_Tidy_deallocate@?$basic_string@GU?$char_traits@G@std@@V?$allocator@G@2@@std@@QAEXXZ 1005f210 f i libcpmtd:wlocale.obj
 0001:0005e2c0       ?_Tidy_init@?$basic_string@GU?$char_traits@G@std@@V?$allocator@G@2@@std@@QAEXXZ 1005f2c0 f i libcpmtd:wlocale.obj
 0001:0005e310       ?_Verify_offset@?$_String_const_iterator@V?$_String_val@U?$_Simple_types@G@std@@@std@@@std@@QBEXH@Z 1005f310 f i libcpmtd:wlocale.obj
 0001:0005e500       ?_Verify_offset@?$_String_const_iterator@V?$_String_val@U?$_Simple_types@_W@std@@@std@@@std@@QBEXH@Z 1005f500 f i libcpmtd:wlocale.obj
 0001:0005e6f0       ?_W_Getdays@_Locinfo@std@@QBEPBGXZ 1005f6f0 f i libcpmtd:wlocale.obj
 0001:0005e760       ?_W_Getmonths@_Locinfo@std@@QBEPBGXZ 1005f760 f i libcpmtd:wlocale.obj
 0001:0005e7d0       ?_W_Gettnames@_Locinfo@std@@QBE?AV_Timevec@2@XZ 1005f7d0 f i libcpmtd:wlocale.obj
 0001:0005e800       ?_Xlen@?$basic_string@GU?$char_traits@G@std@@V?$allocator@G@2@@std@@SAXXZ 1005f800 f i libcpmtd:wlocale.obj
 0001:0005e810       ?_Xran@?$_String_val@U?$_Simple_types@G@std@@@std@@SAXXZ 1005f810 f i libcpmtd:wlocale.obj
 0001:0005e820       ?_Xran@?$_String_val@U?$_Simple_types@_W@std@@@std@@SAXXZ 1005f820 f i libcpmtd:wlocale.obj
 0001:0005e830       ?allocate@?$allocator@G@std@@QAEPAGI@Z 1005f830 f i libcpmtd:wlocale.obj
 0001:0005e860       ?append@?$basic_string@GU?$char_traits@G@std@@V?$allocator@G@2@@std@@QAEAAV12@ABV12@@Z 1005f860 f i libcpmtd:wlocale.obj
 0001:0005e8a0       ?append@?$basic_string@GU?$char_traits@G@std@@V?$allocator@G@2@@std@@QAEAAV12@IG@Z 1005f8a0 f i libcpmtd:wlocale.obj
 0001:0005e950       ?append@?$basic_string@GU?$char_traits@G@std@@V?$allocator@G@2@@std@@QAEAAV12@QBGI@Z 1005f950 f i libcpmtd:wlocale.obj
 0001:0005ea00       ?append@?$basic_string@_WU?$char_traits@_W@std@@V?$allocator@_W@2@@std@@QAEAAV12@ABV12@@Z 1005fa00 f i libcpmtd:wlocale.obj
 0001:0005ea40       ?append@?$basic_string@_WU?$char_traits@_W@std@@V?$allocator@_W@2@@std@@QAEAAV12@I_W@Z 1005fa40 f i libcpmtd:wlocale.obj
 0001:0005eaf0       ?append@?$basic_string@_WU?$char_traits@_W@std@@V?$allocator@_W@2@@std@@QAEAAV12@QB_WI@Z 1005faf0 f i libcpmtd:wlocale.obj
 0001:0005eba0       ?assign@?$_WChar_traits@G@std@@SAPAGQAGIG@Z 1005fba0 f i libcpmtd:wlocale.obj
 0001:0005ebc0       ?assign@?$_WChar_traits@G@std@@SAXAAGABG@Z 1005fbc0 f i libcpmtd:wlocale.obj
 0001:0005ebe0       ?assign@?$basic_string@GU?$char_traits@G@std@@V?$allocator@G@2@@std@@QAEAAV12@$$QAV12@@Z 1005fbe0 f i libcpmtd:wlocale.obj
 0001:0005ec10       ?assign@?$basic_string@GU?$char_traits@G@std@@V?$allocator@G@2@@std@@QAEAAV12@IG@Z 1005fc10 f i libcpmtd:wlocale.obj
 0001:0005eca0       ?assign@?$basic_string@GU?$char_traits@G@std@@V?$allocator@G@2@@std@@QAEAAV12@QBG@Z 1005fca0 f i libcpmtd:wlocale.obj
 0001:0005ecd0       ?assign@?$basic_string@GU?$char_traits@G@std@@V?$allocator@G@2@@std@@QAEAAV12@QBGI@Z 1005fcd0 f i libcpmtd:wlocale.obj
 0001:0005ed60       ?assign@?$basic_string@_WU?$char_traits@_W@std@@V?$allocator@_W@2@@std@@QAEAAV12@$$QAV12@@Z 1005fd60 f i libcpmtd:wlocale.obj
 0001:0005ed90       ?assign@?$basic_string@_WU?$char_traits@_W@std@@V?$allocator@_W@2@@std@@QAEAAV12@QB_W@Z 1005fd90 f i libcpmtd:wlocale.obj
 0001:0005edc0       ?assign@?$basic_string@_WU?$char_traits@_W@std@@V?$allocator@_W@2@@std@@QAEAAV12@QB_WI@Z 1005fdc0 f i libcpmtd:wlocale.obj
 0001:0005ee50       ?begin@?$basic_string@GU?$char_traits@G@std@@V?$allocator@G@2@@std@@QAE?AV?$_String_iterator@V?$_String_val@U?$_Simple_types@G@std@@@std@@@2@XZ 1005fe50 f i libcpmtd:wlocale.obj
 0001:0005eec0       ?begin@?$basic_string@_WU?$char_traits@_W@std@@V?$allocator@_W@2@@std@@QAE?AV?$_String_iterator@V?$_String_val@U?$_Simple_types@_W@std@@@std@@@2@XZ 1005fec0 f i libcpmtd:wlocale.obj
 0001:0005ef30       ?c_str@?$basic_string@GU?$char_traits@G@std@@V?$allocator@G@2@@std@@QBEPBGXZ 1005ff30 f i libcpmtd:wlocale.obj
 0001:0005ef80       ?c_str@?$basic_string@_WU?$char_traits@_W@std@@V?$allocator@_W@2@@std@@QBEPB_WXZ 1005ff80 f i libcpmtd:wlocale.obj
 0001:0005efd0       ?copy@?$_WChar_traits@G@std@@SAPAGQAGQBGI@Z 1005ffd0 f i libcpmtd:wlocale.obj
 0001:0005eff0       ?copy@?$_WChar_traits@_W@std@@SAPA_WQA_WQB_WI@Z 1005fff0 f i libcpmtd:wlocale.obj
 0001:0005f010       ?curr_symbol@?$_Mpunct@G@std@@QBE?AV?$basic_string@GU?$char_traits@G@std@@V?$allocator@G@2@@2@XZ 10060010 f i libcpmtd:wlocale.obj
 0001:0005f060       ?curr_symbol@?$_Mpunct@_W@std@@QBE?AV?$basic_string@_WU?$char_traits@_W@std@@V?$allocator@_W@2@@2@XZ 10060060 f i libcpmtd:wlocale.obj
 0001:0005f0b0       ?date_order@?$time_get@GV?$istreambuf_iterator@GU?$char_traits@G@std@@@std@@@std@@QBE?AW4dateorder@time_base@2@XZ 100600b0 f i libcpmtd:wlocale.obj
 0001:0005f0e0       ?date_order@?$time_get@_WV?$istreambuf_iterator@_WU?$char_traits@_W@std@@@std@@@std@@QBE?AW4dateorder@time_base@2@XZ 100600e0 f i libcpmtd:wlocale.obj
 0001:0005f110       ?deallocate@?$allocator@G@std@@QAEXQAGI@Z 10060110 f i libcpmtd:wlocale.obj
 0001:0005f130       ?decimal_point@?$_Mpunct@G@std@@QBEGXZ 10060130 f i libcpmtd:wlocale.obj
 0001:0005f160       ?decimal_point@?$_Mpunct@_W@std@@QBE_WXZ 10060160 f i libcpmtd:wlocale.obj
 0001:0005f190       ?decimal_point@?$numpunct@G@std@@QBEGXZ 10060190 f i libcpmtd:wlocale.obj
 0001:0005f1c0       ?decimal_point@?$numpunct@_W@std@@QBE_WXZ 100601c0 f i libcpmtd:wlocale.obj
 0001:0005f1f0       ?do_always_noconv@?$codecvt@GDU_Mbstatet@@@std@@MBE_NXZ 100601f0 f i libcpmtd:wlocale.obj
 0001:0005f200       ?do_always_noconv@?$codecvt@_WDU_Mbstatet@@@std@@MBE_NXZ 10060200 f i libcpmtd:wlocale.obj
 0001:0005f210       ?do_close@?$messages@G@std@@MBEXH@Z 10060210 f i libcpmtd:wlocale.obj
 0001:0005f220       ?do_close@?$messages@_W@std@@MBEXH@Z 10060220 f i libcpmtd:wlocale.obj
 0001:0005f230       ?do_compare@?$collate@G@std@@MBEHPBG000@Z 10060230 f i libcpmtd:wlocale.obj
 0001:0005f2b0       ?do_compare@?$collate@_W@std@@MBEHPB_W000@Z 100602b0 f i libcpmtd:wlocale.obj
 0001:0005f330       ?do_curr_symbol@?$_Mpunct@G@std@@MBE?AV?$basic_string@GU?$char_traits@G@std@@V?$allocator@G@2@@2@XZ 10060330 f i libcpmtd:wlocale.obj
 0001:0005f370       ?do_curr_symbol@?$_Mpunct@_W@std@@MBE?AV?$basic_string@_WU?$char_traits@_W@std@@V?$allocator@_W@2@@2@XZ 10060370 f i libcpmtd:wlocale.obj
 0001:0005f3b0       ?do_date_order@?$time_get@GV?$istreambuf_iterator@GU?$char_traits@G@std@@@std@@@std@@MBE?AW4dateorder@time_base@2@XZ 100603b0 f i libcpmtd:wlocale.obj
 0001:0005f3d0       ?do_date_order@?$time_get@_WV?$istreambuf_iterator@_WU?$char_traits@_W@std@@@std@@@std@@MBE?AW4dateorder@time_base@2@XZ 100603d0 f i libcpmtd:wlocale.obj
 0001:0005f3f0       ?do_decimal_point@?$_Mpunct@G@std@@MBEGXZ 100603f0 f i libcpmtd:wlocale.obj
 0001:0005f410       ?do_decimal_point@?$_Mpunct@_W@std@@MBE_WXZ 10060410 f i libcpmtd:wlocale.obj
 0001:0005f430       ?do_decimal_point@?$numpunct@G@std@@MBEGXZ 10060430 f i libcpmtd:wlocale.obj
 0001:0005f450       ?do_decimal_point@?$numpunct@_W@std@@MBE_WXZ 10060450 f i libcpmtd:wlocale.obj
 0001:0005f470       ?do_encoding@?$codecvt@GDU_Mbstatet@@@std@@MBEHXZ 10060470 f i libcpmtd:wlocale.obj
 0001:0005f480       ?do_encoding@?$codecvt@_WDU_Mbstatet@@@std@@MBEHXZ 10060480 f i libcpmtd:wlocale.obj
 0001:0005f490       ?do_falsename@?$numpunct@G@std@@MBE?AV?$basic_string@GU?$char_traits@G@std@@V?$allocator@G@2@@2@XZ 10060490 f i libcpmtd:wlocale.obj
 0001:0005f4d0       ?do_falsename@?$numpunct@_W@std@@MBE?AV?$basic_string@_WU?$char_traits@_W@std@@V?$allocator@_W@2@@2@XZ 100604d0 f i libcpmtd:wlocale.obj
 0001:0005f510       ?do_frac_digits@?$_Mpunct@G@std@@MBEHXZ 10060510 f i libcpmtd:wlocale.obj
 0001:0005f530       ?do_frac_digits@?$_Mpunct@_W@std@@MBEHXZ 10060530 f i libcpmtd:wlocale.obj
 0001:0005f550       ?do_get@?$messages@G@std@@MBE?AV?$basic_string@GU?$char_traits@G@std@@V?$allocator@G@2@@2@HHHABV32@@Z 10060550 f i libcpmtd:wlocale.obj
 0001:0005f580       ?do_get@?$messages@_W@std@@MBE?AV?$basic_string@_WU?$char_traits@_W@std@@V?$allocator@_W@2@@2@HHHABV32@@Z 10060580 f i libcpmtd:wlocale.obj
 0001:0005f5b0       ?do_get@?$money_get@GV?$istreambuf_iterator@GU?$char_traits@G@std@@@std@@@std@@MBE?AV?$istreambuf_iterator@GU?$char_traits@G@std@@@2@V32@0_NAAVios_base@2@AAHAAO@Z 100605b0 f i libcpmtd:wlocale.obj
 0001:0005f6d0       ?do_get@?$money_get@GV?$istreambuf_iterator@GU?$char_traits@G@std@@@std@@@std@@MBE?AV?$istreambuf_iterator@GU?$char_traits@G@std@@@2@V32@0_NAAVios_base@2@AAHAAV?$basic_string@GU?$char_traits@G@std@@V?$allocator@G@2@@2@@Z 100606d0 f i libcpmtd:wlocale.obj
 0001:0005f840       ?do_get@?$money_get@_WV?$istreambuf_iterator@_WU?$char_traits@_W@std@@@std@@@std@@MBE?AV?$istreambuf_iterator@_WU?$char_traits@_W@std@@@2@V32@0_NAAVios_base@2@AAHAAO@Z 10060840 f i libcpmtd:wlocale.obj
 0001:0005f960       ?do_get@?$money_get@_WV?$istreambuf_iterator@_WU?$char_traits@_W@std@@@std@@@std@@MBE?AV?$istreambuf_iterator@_WU?$char_traits@_W@std@@@2@V32@0_NAAVios_base@2@AAHAAV?$basic_string@_WU?$char_traits@_W@std@@V?$allocator@_W@2@@2@@Z 10060960 f i libcpmtd:wlocale.obj
 0001:0005fad0       ?do_get@?$num_get@GV?$istreambuf_iterator@GU?$char_traits@G@std@@@std@@@std@@MBE?AV?$istreambuf_iterator@GU?$char_traits@G@std@@@2@V32@0AAVios_base@2@AAHAAG@Z 10060ad0 f i libcpmtd:wlocale.obj
 0001:0005fc80       ?do_get@?$num_get@GV?$istreambuf_iterator@GU?$char_traits@G@std@@@std@@@std@@MBE?AV?$istreambuf_iterator@GU?$char_traits@G@std@@@2@V32@0AAVios_base@2@AAHAAI@Z 10060c80 f i libcpmtd:wlocale.obj
 0001:0005fce0       ?do_get@?$num_get@GV?$istreambuf_iterator@GU?$char_traits@G@std@@@std@@@std@@MBE?AV?$istreambuf_iterator@GU?$char_traits@G@std@@@2@V32@0AAVios_base@2@AAHAAJ@Z 10060ce0 f i libcpmtd:wlocale.obj
 0001:0005fe20       ?do_get@?$num_get@GV?$istreambuf_iterator@GU?$char_traits@G@std@@@std@@@std@@MBE?AV?$istreambuf_iterator@GU?$char_traits@G@std@@@2@V32@0AAVios_base@2@AAHAAK@Z 10060e20 f i libcpmtd:wlocale.obj
 0001:0005ff60       ?do_get@?$num_get@GV?$istreambuf_iterator@GU?$char_traits@G@std@@@std@@@std@@MBE?AV?$istreambuf_iterator@GU?$char_traits@G@std@@@2@V32@0AAVios_base@2@AAHAAM@Z 10060f60 f i libcpmtd:wlocale.obj
 0001:000600c0       ?do_get@?$num_get@GV?$istreambuf_iterator@GU?$char_traits@G@std@@@std@@@std@@MBE?AV?$istreambuf_iterator@GU?$char_traits@G@std@@@2@V32@0AAVios_base@2@AAHAAN@Z 100610c0 f i libcpmtd:wlocale.obj
 0001:00060220       ?do_get@?$num_get@GV?$istreambuf_iterator@GU?$char_traits@G@std@@@std@@@std@@MBE?AV?$istreambuf_iterator@GU?$char_traits@G@std@@@2@V32@0AAVios_base@2@AAHAAO@Z 10061220 f i libcpmtd:wlocale.obj
 0001:00060280       ?do_get@?$num_get@GV?$istreambuf_iterator@GU?$char_traits@G@std@@@std@@@std@@MBE?AV?$istreambuf_iterator@GU?$char_traits@G@std@@@2@V32@0AAVios_base@2@AAHAAPAX@Z 10061280 f i libcpmtd:wlocale.obj
 0001:000603c0       ?do_get@?$num_get@GV?$istreambuf_iterator@GU?$char_traits@G@std@@@std@@@std@@MBE?AV?$istreambuf_iterator@GU?$char_traits@G@std@@@2@V32@0AAVios_base@2@AAHAA_J@Z 100613c0 f i libcpmtd:wlocale.obj
 0001:00060510       ?do_get@?$num_get@GV?$istreambuf_iterator@GU?$char_traits@G@std@@@std@@@std@@MBE?AV?$istreambuf_iterator@GU?$char_traits@G@std@@@2@V32@0AAVios_base@2@AAHAA_K@Z 10061510 f i libcpmtd:wlocale.obj
 0001:00060660       ?do_get@?$num_get@GV?$istreambuf_iterator@GU?$char_traits@G@std@@@std@@@std@@MBE?AV?$istreambuf_iterator@GU?$char_traits@G@std@@@2@V32@0AAVios_base@2@AAHAA_N@Z 10061660 f i libcpmtd:wlocale.obj
 0001:00060980       ?do_get@?$num_get@_WV?$istreambuf_iterator@_WU?$char_traits@_W@std@@@std@@@std@@MBE?AV?$istreambuf_iterator@_WU?$char_traits@_W@std@@@2@V32@0AAVios_base@2@AAHAAG@Z 10061980 f i libcpmtd:wlocale.obj
 0001:00060b30       ?do_get@?$num_get@_WV?$istreambuf_iterator@_WU?$char_traits@_W@std@@@std@@@std@@MBE?AV?$istreambuf_iterator@_WU?$char_traits@_W@std@@@2@V32@0AAVios_base@2@AAHAAI@Z 10061b30 f i libcpmtd:wlocale.obj
 0001:00060b90       ?do_get@?$num_get@_WV?$istreambuf_iterator@_WU?$char_traits@_W@std@@@std@@@std@@MBE?AV?$istreambuf_iterator@_WU?$char_traits@_W@std@@@2@V32@0AAVios_base@2@AAHAAJ@Z 10061b90 f i libcpmtd:wlocale.obj
 0001:00060cd0       ?do_get@?$num_get@_WV?$istreambuf_iterator@_WU?$char_traits@_W@std@@@std@@@std@@MBE?AV?$istreambuf_iterator@_WU?$char_traits@_W@std@@@2@V32@0AAVios_base@2@AAHAAK@Z 10061cd0 f i libcpmtd:wlocale.obj
 0001:00060e10       ?do_get@?$num_get@_WV?$istreambuf_iterator@_WU?$char_traits@_W@std@@@std@@@std@@MBE?AV?$istreambuf_iterator@_WU?$char_traits@_W@std@@@2@V32@0AAVios_base@2@AAHAAM@Z 10061e10 f i libcpmtd:wlocale.obj
 0001:00060f70       ?do_get@?$num_get@_WV?$istreambuf_iterator@_WU?$char_traits@_W@std@@@std@@@std@@MBE?AV?$istreambuf_iterator@_WU?$char_traits@_W@std@@@2@V32@0AAVios_base@2@AAHAAN@Z 10061f70 f i libcpmtd:wlocale.obj
 0001:000610d0       ?do_get@?$num_get@_WV?$istreambuf_iterator@_WU?$char_traits@_W@std@@@std@@@std@@MBE?AV?$istreambuf_iterator@_WU?$char_traits@_W@std@@@2@V32@0AAVios_base@2@AAHAAO@Z 100620d0 f i libcpmtd:wlocale.obj
 0001:00061130       ?do_get@?$num_get@_WV?$istreambuf_iterator@_WU?$char_traits@_W@std@@@std@@@std@@MBE?AV?$istreambuf_iterator@_WU?$char_traits@_W@std@@@2@V32@0AAVios_base@2@AAHAAPAX@Z 10062130 f i libcpmtd:wlocale.obj
 0001:00061270       ?do_get@?$num_get@_WV?$istreambuf_iterator@_WU?$char_traits@_W@std@@@std@@@std@@MBE?AV?$istreambuf_iterator@_WU?$char_traits@_W@std@@@2@V32@0AAVios_base@2@AAHAA_J@Z 10062270 f i libcpmtd:wlocale.obj
 0001:000613c0       ?do_get@?$num_get@_WV?$istreambuf_iterator@_WU?$char_traits@_W@std@@@std@@@std@@MBE?AV?$istreambuf_iterator@_WU?$char_traits@_W@std@@@2@V32@0AAVios_base@2@AAHAA_K@Z 100623c0 f i libcpmtd:wlocale.obj
 0001:00061510       ?do_get@?$num_get@_WV?$istreambuf_iterator@_WU?$char_traits@_W@std@@@std@@@std@@MBE?AV?$istreambuf_iterator@_WU?$char_traits@_W@std@@@2@V32@0AAVios_base@2@AAHAA_N@Z 10062510 f i libcpmtd:wlocale.obj
 0001:00061830       ?do_get@?$time_get@GV?$istreambuf_iterator@GU?$char_traits@G@std@@@std@@@std@@MBE?AV?$istreambuf_iterator@GU?$char_traits@G@std@@@2@V32@0AAVios_base@2@AAHPAUtm@@DD@Z 10062830 f i libcpmtd:wlocale.obj
 0001:00061f80       ?do_get@?$time_get@_WV?$istreambuf_iterator@_WU?$char_traits@_W@std@@@std@@@std@@MBE?AV?$istreambuf_iterator@_WU?$char_traits@_W@std@@@2@V32@0AAVios_base@2@AAHPAUtm@@DD@Z 10062f80 f i libcpmtd:wlocale.obj
 0001:000626d0       ?do_get_date@?$time_get@GV?$istreambuf_iterator@GU?$char_traits@G@std@@@std@@@std@@MBE?AV?$istreambuf_iterator@GU?$char_traits@G@std@@@2@V32@0AAVios_base@2@AAHPAUtm@@@Z 100636d0 f i libcpmtd:wlocale.obj
 0001:00062cc0       ?do_get_date@?$time_get@_WV?$istreambuf_iterator@_WU?$char_traits@_W@std@@@std@@@std@@MBE?AV?$istreambuf_iterator@_WU?$char_traits@_W@std@@@2@V32@0AAVios_base@2@AAHPAUtm@@@Z 10063cc0 f i libcpmtd:wlocale.obj
 0001:000632b0       ?do_get_monthname@?$time_get@GV?$istreambuf_iterator@GU?$char_traits@G@std@@@std@@@std@@MBE?AV?$istreambuf_iterator@GU?$char_traits@G@std@@@2@V32@0AAVios_base@2@AAHPAUtm@@@Z 100642b0 f i libcpmtd:wlocale.obj
 0001:00063310       ?do_get_monthname@?$time_get@_WV?$istreambuf_iterator@_WU?$char_traits@_W@std@@@std@@@std@@MBE?AV?$istreambuf_iterator@_WU?$char_traits@_W@std@@@2@V32@0AAVios_base@2@AAHPAUtm@@@Z 10064310 f i libcpmtd:wlocale.obj
 0001:00063370       ?do_get_time@?$time_get@GV?$istreambuf_iterator@GU?$char_traits@G@std@@@std@@@std@@MBE?AV?$istreambuf_iterator@GU?$char_traits@G@std@@@2@V32@0AAVios_base@2@AAHPAUtm@@@Z 10064370 f i libcpmtd:wlocale.obj
 0001:00063500       ?do_get_time@?$time_get@_WV?$istreambuf_iterator@_WU?$char_traits@_W@std@@@std@@@std@@MBE?AV?$istreambuf_iterator@_WU?$char_traits@_W@std@@@2@V32@0AAVios_base@2@AAHPAUtm@@@Z 10064500 f i libcpmtd:wlocale.obj
 0001:00063690       ?do_get_weekday@?$time_get@GV?$istreambuf_iterator@GU?$char_traits@G@std@@@std@@@std@@MBE?AV?$istreambuf_iterator@GU?$char_traits@G@std@@@2@V32@0AAVios_base@2@AAHPAUtm@@@Z 10064690 f i libcpmtd:wlocale.obj
 0001:000636f0       ?do_get_weekday@?$time_get@_WV?$istreambuf_iterator@_WU?$char_traits@_W@std@@@std@@@std@@MBE?AV?$istreambuf_iterator@_WU?$char_traits@_W@std@@@2@V32@0AAVios_base@2@AAHPAUtm@@@Z 100646f0 f i libcpmtd:wlocale.obj
 0001:00063750       ?do_get_year@?$time_get@GV?$istreambuf_iterator@GU?$char_traits@G@std@@@std@@@std@@MBE?AV?$istreambuf_iterator@GU?$char_traits@G@std@@@2@V32@0AAVios_base@2@AAHPAUtm@@@Z 10064750 f i libcpmtd:wlocale.obj
 0001:00063850       ?do_get_year@?$time_get@_WV?$istreambuf_iterator@_WU?$char_traits@_W@std@@@std@@@std@@MBE?AV?$istreambuf_iterator@_WU?$char_traits@_W@std@@@2@V32@0AAVios_base@2@AAHPAUtm@@@Z 10064850 f i libcpmtd:wlocale.obj
 0001:00063950       ?do_grouping@?$_Mpunct@G@std@@MBE?AV?$basic_string@DU?$char_traits@D@std@@V?$allocator@D@2@@2@XZ 10064950 f i libcpmtd:wlocale.obj
 0001:00063990       ?do_grouping@?$_Mpunct@_W@std@@MBE?AV?$basic_string@DU?$char_traits@D@std@@V?$allocator@D@2@@2@XZ 10064990 f i libcpmtd:wlocale.obj
 0001:000639d0       ?do_grouping@?$numpunct@G@std@@MBE?AV?$basic_string@DU?$char_traits@D@std@@V?$allocator@D@2@@2@XZ 100649d0 f i libcpmtd:wlocale.obj
 0001:00063a10       ?do_grouping@?$numpunct@_W@std@@MBE?AV?$basic_string@DU?$char_traits@D@std@@V?$allocator@D@2@@2@XZ 10064a10 f i libcpmtd:wlocale.obj
 0001:00063a50       ?do_hash@?$collate@G@std@@MBEJPBG0@Z 10064a50 f i libcpmtd:wlocale.obj
 0001:00063a90       ?do_hash@?$collate@_W@std@@MBEJPB_W0@Z 10064a90 f i libcpmtd:wlocale.obj
 0001:00063ad0       ?do_in@?$codecvt@GDU_Mbstatet@@@std@@MBEHAAU_Mbstatet@@PBD1AAPBDPAG3AAPAG@Z 10064ad0 f i libcpmtd:wlocale.obj
 0001:00063bc0       ?do_in@?$codecvt@_WDU_Mbstatet@@@std@@MBEHAAU_Mbstatet@@PBD1AAPBDPA_W3AAPA_W@Z 10064bc0 f i libcpmtd:wlocale.obj
 0001:00063cb0       ?do_is@?$ctype@G@std@@MBEPBGPBG0PAF@Z 10064cb0 f i libcpmtd:wlocale.obj
 0001:00063cf0       ?do_is@?$ctype@G@std@@MBE_NFG@Z 10064cf0 f i libcpmtd:wlocale.obj
 0001:00063d40       ?do_is@?$ctype@_W@std@@MBEPB_WPB_W0PAF@Z 10064d40 f i libcpmtd:wlocale.obj
 0001:00063d80       ?do_is@?$ctype@_W@std@@MBE_NF_W@Z 10064d80 f i libcpmtd:wlocale.obj
 0001:00063dd0       ?do_length@?$codecvt@GDU_Mbstatet@@@std@@MBEHAAU_Mbstatet@@PBD1I@Z 10064dd0 f i libcpmtd:wlocale.obj
 0001:00063e80       ?do_length@?$codecvt@_WDU_Mbstatet@@@std@@MBEHAAU_Mbstatet@@PBD1I@Z 10064e80 f i libcpmtd:wlocale.obj
 0001:00063f30       ?do_max_length@?$codecvt@GDU_Mbstatet@@@std@@MBEHXZ 10064f30 f i libcpmtd:wlocale.obj
 0001:00063f40       ?do_max_length@?$codecvt@_WDU_Mbstatet@@@std@@MBEHXZ 10064f40 f i libcpmtd:wlocale.obj
 0001:00063f50       ?do_narrow@?$ctype@G@std@@MBEDGD@Z 10064f50 f i libcpmtd:wlocale.obj
 0001:00063f70       ?do_narrow@?$ctype@G@std@@MBEPBGPBG0DPAD@Z 10064f70 f i libcpmtd:wlocale.obj
 0001:00063fd0       ?do_narrow@?$ctype@_W@std@@MBED_WD@Z 10064fd0 f i libcpmtd:wlocale.obj
 0001:00063ff0       ?do_narrow@?$ctype@_W@std@@MBEPB_WPB_W0DPAD@Z 10064ff0 f i libcpmtd:wlocale.obj
 0001:00064050       ?do_neg_format@?$_Mpunct@G@std@@MBE?AUpattern@money_base@2@XZ 10065050 f i libcpmtd:wlocale.obj
 0001:00064070       ?do_neg_format@?$_Mpunct@_W@std@@MBE?AUpattern@money_base@2@XZ 10065070 f i libcpmtd:wlocale.obj
 0001:00064090       ?do_negative_sign@?$_Mpunct@G@std@@MBE?AV?$basic_string@GU?$char_traits@G@std@@V?$allocator@G@2@@2@XZ 10065090 f i libcpmtd:wlocale.obj
 0001:000640d0       ?do_negative_sign@?$_Mpunct@_W@std@@MBE?AV?$basic_string@_WU?$char_traits@_W@std@@V?$allocator@_W@2@@2@XZ 100650d0 f i libcpmtd:wlocale.obj
 0001:00064110       ?do_open@?$messages@G@std@@MBEHABV?$basic_string@DU?$char_traits@D@std@@V?$allocator@D@2@@2@ABVlocale@2@@Z 10065110 f i libcpmtd:wlocale.obj
 0001:00064120       ?do_open@?$messages@_W@std@@MBEHABV?$basic_string@DU?$char_traits@D@std@@V?$allocator@D@2@@2@ABVlocale@2@@Z 10065120 f i libcpmtd:wlocale.obj
 0001:00064130       ?do_out@?$codecvt@GDU_Mbstatet@@@std@@MBEHAAU_Mbstatet@@PBG1AAPBGPAD3AAPAD@Z 10065130 f i libcpmtd:wlocale.obj
 0001:000642c0       ?do_out@?$codecvt@_WDU_Mbstatet@@@std@@MBEHAAU_Mbstatet@@PB_W1AAPB_WPAD3AAPAD@Z 100652c0 f i libcpmtd:wlocale.obj
 0001:00064450       ?do_pos_format@?$_Mpunct@G@std@@MBE?AUpattern@money_base@2@XZ 10065450 f i libcpmtd:wlocale.obj
 0001:00064470       ?do_pos_format@?$_Mpunct@_W@std@@MBE?AUpattern@money_base@2@XZ 10065470 f i libcpmtd:wlocale.obj
 0001:00064490       ?do_positive_sign@?$_Mpunct@G@std@@MBE?AV?$basic_string@GU?$char_traits@G@std@@V?$allocator@G@2@@2@XZ 10065490 f i libcpmtd:wlocale.obj
 0001:000644d0       ?do_positive_sign@?$_Mpunct@_W@std@@MBE?AV?$basic_string@_WU?$char_traits@_W@std@@V?$allocator@_W@2@@2@XZ 100654d0 f i libcpmtd:wlocale.obj
 0001:00064510       ?do_put@?$money_put@GV?$ostreambuf_iterator@GU?$char_traits@G@std@@@std@@@std@@MBE?AV?$ostreambuf_iterator@GU?$char_traits@G@std@@@2@V32@_NAAVios_base@2@GABV?$basic_string@GU?$char_traits@G@std@@V?$allocator@G@2@@2@@Z 10065510 f i libcpmtd:wlocale.obj
 0001:000646f0       ?do_put@?$money_put@GV?$ostreambuf_iterator@GU?$char_traits@G@std@@@std@@@std@@MBE?AV?$ostreambuf_iterator@GU?$char_traits@G@std@@@2@V32@_NAAVios_base@2@GO@Z 100656f0 f i libcpmtd:wlocale.obj
 0001:000648b0       ?do_put@?$money_put@_WV?$ostreambuf_iterator@_WU?$char_traits@_W@std@@@std@@@std@@MBE?AV?$ostreambuf_iterator@_WU?$char_traits@_W@std@@@2@V32@_NAAVios_base@2@_WABV?$basic_string@_WU?$char_traits@_W@std@@V?$allocator@_W@2@@2@@Z 100658b0 f i libcpmtd:wlocale.obj
 0001:00064a90       ?do_put@?$money_put@_WV?$ostreambuf_iterator@_WU?$char_traits@_W@std@@@std@@@std@@MBE?AV?$ostreambuf_iterator@_WU?$char_traits@_W@std@@@2@V32@_NAAVios_base@2@_WO@Z 10065a90 f i libcpmtd:wlocale.obj
 0001:00064c50       ?do_put@?$num_put@GV?$ostreambuf_iterator@GU?$char_traits@G@std@@@std@@@std@@MBE?AV?$ostreambuf_iterator@GU?$char_traits@G@std@@@2@V32@AAVios_base@2@GJ@Z 10065c50 f i libcpmtd:wlocale.obj
 0001:00064cd0       ?do_put@?$num_put@GV?$ostreambuf_iterator@GU?$char_traits@G@std@@@std@@@std@@MBE?AV?$ostreambuf_iterator@GU?$char_traits@G@std@@@2@V32@AAVios_base@2@GK@Z 10065cd0 f i libcpmtd:wlocale.obj
 0001:00064d50       ?do_put@?$num_put@GV?$ostreambuf_iterator@GU?$char_traits@G@std@@@std@@@std@@MBE?AV?$ostreambuf_iterator@GU?$char_traits@G@std@@@2@V32@AAVios_base@2@GN@Z 10065d50 f i libcpmtd:wlocale.obj
 0001:00064f20       ?do_put@?$num_put@GV?$ostreambuf_iterator@GU?$char_traits@G@std@@@std@@@std@@MBE?AV?$ostreambuf_iterator@GU?$char_traits@G@std@@@2@V32@AAVios_base@2@GO@Z 10065f20 f i libcpmtd:wlocale.obj
 0001:000650f0       ?do_put@?$num_put@GV?$ostreambuf_iterator@GU?$char_traits@G@std@@@std@@@std@@MBE?AV?$ostreambuf_iterator@GU?$char_traits@G@std@@@2@V32@AAVios_base@2@GPBX@Z 100660f0 f i libcpmtd:wlocale.obj
 0001:00065160       ?do_put@?$num_put@GV?$ostreambuf_iterator@GU?$char_traits@G@std@@@std@@@std@@MBE?AV?$ostreambuf_iterator@GU?$char_traits@G@std@@@2@V32@AAVios_base@2@G_J@Z 10066160 f i libcpmtd:wlocale.obj
 0001:000651f0       ?do_put@?$num_put@GV?$ostreambuf_iterator@GU?$char_traits@G@std@@@std@@@std@@MBE?AV?$ostreambuf_iterator@GU?$char_traits@G@std@@@2@V32@AAVios_base@2@G_K@Z 100661f0 f i libcpmtd:wlocale.obj
 0001:00065280       ?do_put@?$num_put@GV?$ostreambuf_iterator@GU?$char_traits@G@std@@@std@@@std@@MBE?AV?$ostreambuf_iterator@GU?$char_traits@G@std@@@2@V32@AAVios_base@2@G_N@Z 10066280 f i libcpmtd:wlocale.obj
 0001:00065500       ?do_put@?$num_put@_WV?$ostreambuf_iterator@_WU?$char_traits@_W@std@@@std@@@std@@MBE?AV?$ostreambuf_iterator@_WU?$char_traits@_W@std@@@2@V32@AAVios_base@2@_WJ@Z 10066500 f i libcpmtd:wlocale.obj
 0001:00065580       ?do_put@?$num_put@_WV?$ostreambuf_iterator@_WU?$char_traits@_W@std@@@std@@@std@@MBE?AV?$ostreambuf_iterator@_WU?$char_traits@_W@std@@@2@V32@AAVios_base@2@_WK@Z 10066580 f i libcpmtd:wlocale.obj
 0001:00065600       ?do_put@?$num_put@_WV?$ostreambuf_iterator@_WU?$char_traits@_W@std@@@std@@@std@@MBE?AV?$ostreambuf_iterator@_WU?$char_traits@_W@std@@@2@V32@AAVios_base@2@_WN@Z 10066600 f i libcpmtd:wlocale.obj
 0001:000657d0       ?do_put@?$num_put@_WV?$ostreambuf_iterator@_WU?$char_traits@_W@std@@@std@@@std@@MBE?AV?$ostreambuf_iterator@_WU?$char_traits@_W@std@@@2@V32@AAVios_base@2@_WO@Z 100667d0 f i libcpmtd:wlocale.obj
 0001:000659a0       ?do_put@?$num_put@_WV?$ostreambuf_iterator@_WU?$char_traits@_W@std@@@std@@@std@@MBE?AV?$ostreambuf_iterator@_WU?$char_traits@_W@std@@@2@V32@AAVios_base@2@_WPBX@Z 100669a0 f i libcpmtd:wlocale.obj
 0001:00065a10       ?do_put@?$num_put@_WV?$ostreambuf_iterator@_WU?$char_traits@_W@std@@@std@@@std@@MBE?AV?$ostreambuf_iterator@_WU?$char_traits@_W@std@@@2@V32@AAVios_base@2@_W_J@Z 10066a10 f i libcpmtd:wlocale.obj
 0001:00065aa0       ?do_put@?$num_put@_WV?$ostreambuf_iterator@_WU?$char_traits@_W@std@@@std@@@std@@MBE?AV?$ostreambuf_iterator@_WU?$char_traits@_W@std@@@2@V32@AAVios_base@2@_W_K@Z 10066aa0 f i libcpmtd:wlocale.obj
 0001:00065b30       ?do_put@?$num_put@_WV?$ostreambuf_iterator@_WU?$char_traits@_W@std@@@std@@@std@@MBE?AV?$ostreambuf_iterator@_WU?$char_traits@_W@std@@@2@V32@AAVios_base@2@_W_N@Z 10066b30 f i libcpmtd:wlocale.obj
 0001:00065db0       ?do_put@?$time_put@GV?$ostreambuf_iterator@GU?$char_traits@G@std@@@std@@@std@@MBE?AV?$ostreambuf_iterator@GU?$char_traits@G@std@@@2@V32@AAVios_base@2@GPBUtm@@DD@Z 10066db0 f i libcpmtd:wlocale.obj
 0001:00065f40       ?do_put@?$time_put@_WV?$ostreambuf_iterator@_WU?$char_traits@_W@std@@@std@@@std@@MBE?AV?$ostreambuf_iterator@_WU?$char_traits@_W@std@@@2@V32@AAVios_base@2@_WPBUtm@@DD@Z 10066f40 f i libcpmtd:wlocale.obj
 0001:000660d0       ?do_scan_is@?$ctype@G@std@@MBEPBGFPBG0@Z 100670d0 f i libcpmtd:wlocale.obj
 0001:00066120       ?do_scan_is@?$ctype@_W@std@@MBEPB_WFPB_W0@Z 10067120 f i libcpmtd:wlocale.obj
 0001:00066170       ?do_scan_not@?$ctype@G@std@@MBEPBGFPBG0@Z 10067170 f i libcpmtd:wlocale.obj
 0001:000661c0       ?do_scan_not@?$ctype@_W@std@@MBEPB_WFPB_W0@Z 100671c0 f i libcpmtd:wlocale.obj
 0001:00066210       ?do_thousands_sep@?$_Mpunct@G@std@@MBEGXZ 10067210 f i libcpmtd:wlocale.obj
 0001:00066230       ?do_thousands_sep@?$_Mpunct@_W@std@@MBE_WXZ 10067230 f i libcpmtd:wlocale.obj
 0001:00066250       ?do_thousands_sep@?$numpunct@G@std@@MBEGXZ 10067250 f i libcpmtd:wlocale.obj
 0001:00066270       ?do_thousands_sep@?$numpunct@_W@std@@MBE_WXZ 10067270 f i libcpmtd:wlocale.obj
 0001:00066290       ?do_tolower@?$ctype@G@std@@MBEGG@Z 10067290 f i libcpmtd:wlocale.obj
 0001:000662c0       ?do_tolower@?$ctype@G@std@@MBEPBGPAGPBG@Z 100672c0 f i libcpmtd:wlocale.obj
 0001:00066320       ?do_tolower@?$ctype@_W@std@@MBEPB_WPA_WPB_W@Z 10067320 f i libcpmtd:wlocale.obj
 0001:00066380       ?do_tolower@?$ctype@_W@std@@MBE_W_W@Z 10067380 f i libcpmtd:wlocale.obj
 0001:000663b0       ?do_toupper@?$ctype@G@std@@MBEGG@Z 100673b0 f i libcpmtd:wlocale.obj
 0001:000663e0       ?do_toupper@?$ctype@G@std@@MBEPBGPAGPBG@Z 100673e0 f i libcpmtd:wlocale.obj
 0001:00066440       ?do_toupper@?$ctype@_W@std@@MBEPB_WPA_WPB_W@Z 10067440 f i libcpmtd:wlocale.obj
 0001:000664a0       ?do_toupper@?$ctype@_W@std@@MBE_W_W@Z 100674a0 f i libcpmtd:wlocale.obj
 0001:000664d0       ?do_transform@?$collate@G@std@@MBE?AV?$basic_string@GU?$char_traits@G@std@@V?$allocator@G@2@@2@PBG0@Z 100674d0 f i libcpmtd:wlocale.obj
 0001:00066650       ?do_transform@?$collate@_W@std@@MBE?AV?$basic_string@_WU?$char_traits@_W@std@@V?$allocator@_W@2@@2@PB_W0@Z 10067650 f i libcpmtd:wlocale.obj
 0001:000667d0       ?do_truename@?$numpunct@G@std@@MBE?AV?$basic_string@GU?$char_traits@G@std@@V?$allocator@G@2@@2@XZ 100677d0 f i libcpmtd:wlocale.obj
 0001:00066810       ?do_truename@?$numpunct@_W@std@@MBE?AV?$basic_string@_WU?$char_traits@_W@std@@V?$allocator@_W@2@@2@XZ 10067810 f i libcpmtd:wlocale.obj
 0001:00066850       ?do_unshift@?$codecvt@GDU_Mbstatet@@@std@@MBEHAAU_Mbstatet@@PAD1AAPAD@Z 10067850 f i libcpmtd:wlocale.obj
 0001:00066930       ?do_unshift@?$codecvt@_WDU_Mbstatet@@@std@@MBEHAAU_Mbstatet@@PAD1AAPAD@Z 10067930 f i libcpmtd:wlocale.obj
 0001:00066a10       ?do_widen@?$ctype@G@std@@MBEGD@Z 10067a10 f i libcpmtd:wlocale.obj
 0001:00066a30       ?do_widen@?$ctype@G@std@@MBEPBDPBD0PAG@Z 10067a30 f i libcpmtd:wlocale.obj
 0001:00066a90       ?do_widen@?$ctype@_W@std@@MBEPBDPBD0PA_W@Z 10067a90 f i libcpmtd:wlocale.obj
 0001:00066af0       ?do_widen@?$ctype@_W@std@@MBE_WD@Z 10067af0 f i libcpmtd:wlocale.obj
 0001:00066b10       ?empty@?$basic_string@GU?$char_traits@G@std@@V?$allocator@G@2@@std@@QBE_NXZ 10067b10 f i libcpmtd:wlocale.obj
 0001:00066b40       ?empty@?$basic_string@_WU?$char_traits@_W@std@@V?$allocator@_W@2@@std@@QBE_NXZ 10067b40 f i libcpmtd:wlocale.obj
 0001:00066b70       ?end@?$basic_string@GU?$char_traits@G@std@@V?$allocator@G@2@@std@@QAE?AV?$_String_iterator@V?$_String_val@U?$_Simple_types@G@std@@@std@@@2@XZ 10067b70 f i libcpmtd:wlocale.obj
 0001:00066bf0       ?end@?$basic_string@_WU?$char_traits@_W@std@@V?$allocator@_W@2@@std@@QAE?AV?$_String_iterator@V?$_String_val@U?$_Simple_types@_W@std@@@std@@@2@XZ 10067bf0 f i libcpmtd:wlocale.obj
 0001:00066c70       ?eof@?$_WChar_traits@G@std@@SAGXZ 10067c70 f i libcpmtd:wlocale.obj
 0001:00066c80       ?eof@?$_WChar_traits@_W@std@@SAGXZ 10067c80 f i libcpmtd:wlocale.obj
 0001:00066c90       ?eq_int_type@?$_WChar_traits@G@std@@SA_NABG0@Z 10067c90 f i libcpmtd:wlocale.obj
 0001:00066cc0       ?eq_int_type@?$_WChar_traits@_W@std@@SA_NABG0@Z 10067cc0 f i libcpmtd:wlocale.obj
 0001:00066cf0       ?equal@?$istreambuf_iterator@GU?$char_traits@G@std@@@std@@QBE_NABV12@@Z 10067cf0 f i libcpmtd:wlocale.obj
 0001:00066d60       ?equal@?$istreambuf_iterator@_WU?$char_traits@_W@std@@@std@@QBE_NABV12@@Z 10067d60 f i libcpmtd:wlocale.obj
 0001:00066dd0       ?erase@?$basic_string@GU?$char_traits@G@std@@V?$allocator@G@2@@std@@QAEAAV12@I@Z 10067dd0 f i libcpmtd:wlocale.obj
 0001:00066e10       ?erase@?$basic_string@_WU?$char_traits@_W@std@@V?$allocator@_W@2@@std@@QAEAAV12@I@Z 10067e10 f i libcpmtd:wlocale.obj
 0001:00066e50       ?falsename@?$numpunct@G@std@@QBE?AV?$basic_string@GU?$char_traits@G@std@@V?$allocator@G@2@@2@XZ 10067e50 f i libcpmtd:wlocale.obj
 0001:00066ea0       ?falsename@?$numpunct@_W@std@@QBE?AV?$basic_string@_WU?$char_traits@_W@std@@V?$allocator@_W@2@@2@XZ 10067ea0 f i libcpmtd:wlocale.obj
 0001:00066ef0       ?frac_digits@?$_Mpunct@G@std@@QBEHXZ 10067ef0 f i libcpmtd:wlocale.obj
 0001:00066f20       ?frac_digits@?$_Mpunct@_W@std@@QBEHXZ 10067f20 f i libcpmtd:wlocale.obj
 0001:00066f50       ?get_monthname@?$time_get@GV?$istreambuf_iterator@GU?$char_traits@G@std@@@std@@@std@@QBE?AV?$istreambuf_iterator@GU?$char_traits@G@std@@@2@V32@0AAVios_base@2@AAHPAUtm@@@Z 10067f50 f i libcpmtd:wlocale.obj
 0001:00066fb0       ?get_monthname@?$time_get@_WV?$istreambuf_iterator@_WU?$char_traits@_W@std@@@std@@@std@@QBE?AV?$istreambuf_iterator@_WU?$char_traits@_W@std@@@2@V32@0AAVios_base@2@AAHPAUtm@@@Z 10067fb0 f i libcpmtd:wlocale.obj
 0001:00067010       ?get_weekday@?$time_get@GV?$istreambuf_iterator@GU?$char_traits@G@std@@@std@@@std@@QBE?AV?$istreambuf_iterator@GU?$char_traits@G@std@@@2@V32@0AAVios_base@2@AAHPAUtm@@@Z 10068010 f i libcpmtd:wlocale.obj
 0001:00067070       ?get_weekday@?$time_get@_WV?$istreambuf_iterator@_WU?$char_traits@_W@std@@@std@@@std@@QBE?AV?$istreambuf_iterator@_WU?$char_traits@_W@std@@@2@V32@0AAVios_base@2@AAHPAUtm@@@Z 10068070 f i libcpmtd:wlocale.obj
 0001:000670d0       ?get_year@?$time_get@GV?$istreambuf_iterator@GU?$char_traits@G@std@@@std@@@std@@QBE?AV?$istreambuf_iterator@GU?$char_traits@G@std@@@2@V32@0AAVios_base@2@AAHPAUtm@@@Z 100680d0 f i libcpmtd:wlocale.obj
 0001:00067130       ?get_year@?$time_get@_WV?$istreambuf_iterator@_WU?$char_traits@_W@std@@@std@@@std@@QBE?AV?$istreambuf_iterator@_WU?$char_traits@_W@std@@@2@V32@0AAVios_base@2@AAHPAUtm@@@Z 10068130 f i libcpmtd:wlocale.obj
 0001:00067190       ?gptr@?$basic_streambuf@GU?$char_traits@G@std@@@std@@IBEPAGXZ 10068190 f i libcpmtd:wlocale.obj
 0001:000671b0       ?gptr@?$basic_streambuf@_WU?$char_traits@_W@std@@@std@@IBEPA_WXZ 100681b0 f i libcpmtd:wlocale.obj
 0001:000671d0       ?grouping@?$_Mpunct@G@std@@QBE?AV?$basic_string@DU?$char_traits@D@std@@V?$allocator@D@2@@2@XZ 100681d0 f i libcpmtd:wlocale.obj
 0001:00067220       ?grouping@?$_Mpunct@_W@std@@QBE?AV?$basic_string@DU?$char_traits@D@std@@V?$allocator@D@2@@2@XZ 10068220 f i libcpmtd:wlocale.obj
 0001:00067270       ?grouping@?$numpunct@G@std@@QBE?AV?$basic_string@DU?$char_traits@D@std@@V?$allocator@D@2@@2@XZ 10068270 f i libcpmtd:wlocale.obj
 0001:000672c0       ?grouping@?$numpunct@_W@std@@QBE?AV?$basic_string@DU?$char_traits@D@std@@V?$allocator@D@2@@2@XZ 100682c0 f i libcpmtd:wlocale.obj
 0001:00067310       ?insert@?$basic_string@GU?$char_traits@G@std@@V?$allocator@G@2@@std@@QAEAAV12@IIG@Z 10068310 f i libcpmtd:wlocale.obj
 0001:000673d0       ?insert@?$basic_string@_WU?$char_traits@_W@std@@V?$allocator@_W@2@@std@@QAEAAV12@II_W@Z 100683d0 f i libcpmtd:wlocale.obj
 0001:00067490       ?is@?$ctype@G@std@@QBE_NFG@Z 10068490 f i libcpmtd:wlocale.obj
 0001:000674d0       ?is@?$ctype@_W@std@@QBE_NF_W@Z 100684d0 f i libcpmtd:wlocale.obj
 0001:00067510       ?length@?$_Char_traits@GG@std@@SAIPBG@Z 10068510 f i libcpmtd:wlocale.obj
 0001:00067540       ?length@?$_WChar_traits@G@std@@SAIPBG@Z 10068540 f i libcpmtd:wlocale.obj
 0001:00067560       ?length@?$_WChar_traits@_W@std@@SAIPB_W@Z 10068560 f i libcpmtd:wlocale.obj
 0001:000675a0       ?max_size@?$_Default_allocator_traits@V?$allocator@G@std@@@std@@SAIABV?$allocator@G@2@@Z 100685a0 f i libcpmtd:wlocale.obj
 0001:000675b0       ?max_size@?$basic_string@GU?$char_traits@G@std@@V?$allocator@G@2@@std@@QBEIXZ 100685b0 f i libcpmtd:wlocale.obj
 0001:00067610       ?move@?$_WChar_traits@G@std@@SAPAGQAGQBGI@Z 10068610 f i libcpmtd:wlocale.obj
 0001:00067630       ?move@?$_WChar_traits@_W@std@@SAPA_WQA_WQB_WI@Z 10068630 f i libcpmtd:wlocale.obj
 0001:00067650       ?name@locale@std@@QBE?AV?$basic_string@DU?$char_traits@D@std@@V?$allocator@D@2@@2@XZ 10068650 f i libcpmtd:wlocale.obj
 0001:00067750       ?narrow@?$ctype@G@std@@QBEDGD@Z 10068750 f i libcpmtd:wlocale.obj
 0001:00067790       ?narrow@?$ctype@_W@std@@QBED_WD@Z 10068790 f i libcpmtd:wlocale.obj
 0001:000677d0       ?neg_format@?$_Mpunct@G@std@@QBE?AUpattern@money_base@2@XZ 100687d0 f i libcpmtd:wlocale.obj
 0001:00067810       ?neg_format@?$_Mpunct@_W@std@@QBE?AUpattern@money_base@2@XZ 10068810 f i libcpmtd:wlocale.obj
 0001:00067850       ?negative_sign@?$_Mpunct@G@std@@QBE?AV?$basic_string@GU?$char_traits@G@std@@V?$allocator@G@2@@2@XZ 10068850 f i libcpmtd:wlocale.obj
 0001:000678a0       ?negative_sign@?$_Mpunct@_W@std@@QBE?AV?$basic_string@_WU?$char_traits@_W@std@@V?$allocator@_W@2@@2@XZ 100688a0 f i libcpmtd:wlocale.obj
 0001:000678f0       ?pos_format@?$_Mpunct@G@std@@QBE?AUpattern@money_base@2@XZ 100688f0 f i libcpmtd:wlocale.obj
 0001:00067930       ?pos_format@?$_Mpunct@_W@std@@QBE?AUpattern@money_base@2@XZ 10068930 f i libcpmtd:wlocale.obj
 0001:00067970       ?positive_sign@?$_Mpunct@G@std@@QBE?AV?$basic_string@GU?$char_traits@G@std@@V?$allocator@G@2@@2@XZ 10068970 f i libcpmtd:wlocale.obj
 0001:000679c0       ?positive_sign@?$_Mpunct@_W@std@@QBE?AV?$basic_string@_WU?$char_traits@_W@std@@V?$allocator@_W@2@@2@XZ 100689c0 f i libcpmtd:wlocale.obj
 0001:00067a10       ?push_back@?$basic_string@GU?$char_traits@G@std@@V?$allocator@G@2@@std@@QAEXG@Z 10068a10 f i libcpmtd:wlocale.obj
 0001:00067ab0       ?push_back@?$basic_string@_WU?$char_traits@_W@std@@V?$allocator@_W@2@@std@@QAEX_W@Z 10068ab0 f i libcpmtd:wlocale.obj
 0001:00067b50       ?resize@?$basic_string@GU?$char_traits@G@std@@V?$allocator@G@2@@std@@QAEXIG@Z 10068b50 f i libcpmtd:wlocale.obj
 0001:00067ba0       ?resize@?$basic_string@_WU?$char_traits@_W@std@@V?$allocator@_W@2@@std@@QAEXI_W@Z 10068ba0 f i libcpmtd:wlocale.obj
 0001:00067bf0       ?sbumpc@?$basic_streambuf@GU?$char_traits@G@std@@@std@@QAEGXZ 10068bf0 f i libcpmtd:wlocale.obj
 0001:00067c60       ?sbumpc@?$basic_streambuf@_WU?$char_traits@_W@std@@@std@@QAEGXZ 10068c60 f i libcpmtd:wlocale.obj
 0001:00067cd0       ?select_on_container_copy_construction@?$_Default_allocator_traits@V?$allocator@G@std@@@std@@SA?AV?$allocator@G@2@ABV32@@Z 10068cd0 f i libcpmtd:wlocale.obj
 0001:00067ce0       ?select_on_container_copy_construction@?$_Default_allocator_traits@V?$allocator@_W@std@@@std@@SA?AV?$allocator@_W@2@ABV32@@Z 10068ce0 f i libcpmtd:wlocale.obj
 0001:00067cf0       ?sgetc@?$basic_streambuf@GU?$char_traits@G@std@@@std@@QAEGXZ 10068cf0 f i libcpmtd:wlocale.obj
 0001:00067d60       ?sgetc@?$basic_streambuf@_WU?$char_traits@_W@std@@@std@@QAEGXZ 10068d60 f i libcpmtd:wlocale.obj
 0001:00067dd0       ?size@?$basic_string@GU?$char_traits@G@std@@V?$allocator@G@2@@std@@QBEIXZ 10068dd0 f i libcpmtd:wlocale.obj
 0001:00067df0       ?size@?$basic_string@_WU?$char_traits@_W@std@@V?$allocator@_W@2@@std@@QBEIXZ 10068df0 f i libcpmtd:wlocale.obj
 0001:00067e10       ?sputc@?$basic_streambuf@GU?$char_traits@G@std@@@std@@QAEGG@Z 10068e10 f i libcpmtd:wlocale.obj
 0001:00067ea0       ?sputc@?$basic_streambuf@_WU?$char_traits@_W@std@@@std@@QAEG_W@Z 10068ea0 f i libcpmtd:wlocale.obj
 0001:00067f30       ?thousands_sep@?$_Mpunct@G@std@@QBEGXZ 10068f30 f i libcpmtd:wlocale.obj
 0001:00067f60       ?thousands_sep@?$_Mpunct@_W@std@@QBE_WXZ 10068f60 f i libcpmtd:wlocale.obj
 0001:00067f90       ?thousands_sep@?$numpunct@G@std@@QBEGXZ 10068f90 f i libcpmtd:wlocale.obj
 0001:00067fc0       ?thousands_sep@?$numpunct@_W@std@@QBE_WXZ 10068fc0 f i libcpmtd:wlocale.obj
 0001:00067ff0       ?to_char_type@?$_WChar_traits@G@std@@SAGABG@Z 10068ff0 f i libcpmtd:wlocale.obj
 0001:00068000       ?to_char_type@?$_WChar_traits@_W@std@@SA_WABG@Z 10069000 f i libcpmtd:wlocale.obj
 0001:00068010       ?to_int_type@?$_WChar_traits@G@std@@SAGABG@Z 10069010 f i libcpmtd:wlocale.obj
 0001:00068020       ?to_int_type@?$_WChar_traits@_W@std@@SAGAB_W@Z 10069020 f i libcpmtd:wlocale.obj
 0001:00068030       ?truename@?$numpunct@G@std@@QBE?AV?$basic_string@GU?$char_traits@G@std@@V?$allocator@G@2@@2@XZ 10069030 f i libcpmtd:wlocale.obj
 0001:00068080       ?truename@?$numpunct@_W@std@@QBE?AV?$basic_string@_WU?$char_traits@_W@std@@V?$allocator@_W@2@@2@XZ 10069080 f i libcpmtd:wlocale.obj
 0001:000680d0       ?widen@?$ctype@G@std@@QBEGD@Z 100690d0 f i libcpmtd:wlocale.obj
 0001:00068110       ?widen@?$ctype@G@std@@QBEPBDPBD0PAG@Z 10069110 f i libcpmtd:wlocale.obj
 0001:00068150       ?widen@?$ctype@_W@std@@QBEPBDPBD0PA_W@Z 10069150 f i libcpmtd:wlocale.obj
 0001:00068190       ?widen@?$ctype@_W@std@@QBE_WD@Z 10069190 f i libcpmtd:wlocale.obj
 0001:000681d0       _wmemcpy                   100691d0 f i libcpmtd:wlocale.obj
 0001:000681f0       _wmemmove                  100691f0 f i libcpmtd:wlocale.obj
 0001:00068210       ??$_Copy_unchecked1@PADV?$ostreambuf_iterator@DU?$char_traits@D@std@@@std@@@std@@YA?AV?$ostreambuf_iterator@DU?$char_traits@D@std@@@0@PAD0V10@U_General_ptr_iterator_tag@0@@Z 10069210 f i libcpmtd:xlocale.obj
 0001:00068260       ??$_Copy_unchecked@PADV?$ostreambuf_iterator@DU?$char_traits@D@std@@@std@@@std@@YA?AV?$ostreambuf_iterator@DU?$char_traits@D@std@@@0@PAD0V10@@Z 10069260 f i libcpmtd:xlocale.obj
 0001:000682a0       ??$_Find_elem@D$0M@@std@@YAIAAY0M@$$CBDD@Z 100692a0 f i libcpmtd:xlocale.obj
 0001:000682c0       ??$_Get_unwrapped@D@std@@YAPADQAD@Z 100692c0 f i libcpmtd:xlocale.obj
 0001:000682d0       ??$_Get_unwrapped_n@V?$ostreambuf_iterator@DU?$char_traits@D@std@@@std@@H$0A@@std@@YAABV?$ostreambuf_iterator@DU?$char_traits@D@std@@@0@ABV10@H@Z 100692d0 f i libcpmtd:xlocale.obj
 0001:000682e0       ??$_Getvals@D@?$_Mpunct@D@std@@IAEXDPBUlconv@@@Z 100692e0 f i libcpmtd:xlocale.obj
 0001:000683f0       ??$_Getvals@D@?$time_get@DV?$istreambuf_iterator@DU?$char_traits@D@std@@@std@@@std@@IAEXDABV_Locinfo@1@@Z 100693f0 f i libcpmtd:xlocale.obj
 0001:000684e0       ??$_Hash_array_representation@D@std@@YAIQBDI@Z 100694e0 f i libcpmtd:xlocale.obj
 0001:00068500       ??$_Idl_distance@PADPAD@std@@YAHABQAD0@Z 10069500 f i libcpmtd:xlocale.obj
 0001:00068510       ??$_LStrcoll@D@std@@YAHPBD000PBU_Collvec@@@Z 10069510 f i libcpmtd:xlocale.obj
 0001:00068540       ??$_LStrxfrm@D@std@@YAIPAD0PBD1PBU_Collvec@@@Z 10069540 f i libcpmtd:xlocale.obj
 0001:00068570       ??$_Ptr_copy_cat@PADV?$ostreambuf_iterator@DU?$char_traits@D@std@@@std@@@std@@YA?AU_General_ptr_iterator_tag@0@ABQADABV?$ostreambuf_iterator@DU?$char_traits@D@std@@@0@@Z 10069570 f i libcpmtd:xlocale.obj
 0001:00068b10       ??$_Refancy@PAD$0A@@std@@YAPADPAD@Z 10069b10 f i libcpmtd:xlocale.obj
 0001:00068b20       ??$_Seek_wrapped@V?$ostreambuf_iterator@DU?$char_traits@D@std@@@std@@V12@@std@@YAXAAV?$ostreambuf_iterator@DU?$char_traits@D@std@@@0@ABV10@@Z 10069b20 f i libcpmtd:xlocale.obj
 0001:00068b40       ??$_Unfancy@$$CBD@std@@YAPBDPBD@Z 10069b40 f i libcpmtd:xlocale.obj
 0001:00068b50       ??$addressof@$$CBV?$moneypunct@D$00@std@@@std@@YAPBV?$moneypunct@D$00@0@ABV10@@Z 10069b50 f i libcpmtd:xlocale.obj
 0001:00068b60       ??$addressof@$$CBV?$moneypunct@D$0A@@std@@@std@@YAPBV?$moneypunct@D$0A@@0@ABV10@@Z 10069b60 f i libcpmtd:xlocale.obj
 0001:00068b70       ??$copy@PADV?$ostreambuf_iterator@DU?$char_traits@D@std@@@std@@@std@@YA?AV?$ostreambuf_iterator@DU?$char_traits@D@std@@@0@PAD0V10@@Z 10069b70 f i libcpmtd:xlocale.obj
 0001:00068c10       ??$use_facet@V?$collate@D@std@@@std@@YAABV?$collate@D@0@ABVlocale@0@@Z 10069c10 f i libcpmtd:xlocale.obj
 0001:00068d40       ??$use_facet@V?$messages@D@std@@@std@@YAABV?$messages@D@0@ABVlocale@0@@Z 10069d40 f i libcpmtd:xlocale.obj
 0001:00068e70       ??$use_facet@V?$money_get@DV?$istreambuf_iterator@DU?$char_traits@D@std@@@std@@@std@@@std@@YAABV?$money_get@DV?$istreambuf_iterator@DU?$char_traits@D@std@@@std@@@0@ABVlocale@0@@Z 10069e70 f i libcpmtd:xlocale.obj
 0001:00068fa0       ??$use_facet@V?$money_put@DV?$ostreambuf_iterator@DU?$char_traits@D@std@@@std@@@std@@@std@@YAABV?$money_put@DV?$ostreambuf_iterator@DU?$char_traits@D@std@@@std@@@0@ABVlocale@0@@Z 10069fa0 f i libcpmtd:xlocale.obj
 0001:000690d0       ??$use_facet@V?$moneypunct@D$00@std@@@std@@YAABV?$moneypunct@D$00@0@ABVlocale@0@@Z 1006a0d0 f i libcpmtd:xlocale.obj
 0001:00069200       ??$use_facet@V?$moneypunct@D$0A@@std@@@std@@YAABV?$moneypunct@D$0A@@0@ABVlocale@0@@Z 1006a200 f i libcpmtd:xlocale.obj
 0001:00069330       ??$use_facet@V?$time_get@DV?$istreambuf_iterator@DU?$char_traits@D@std@@@std@@@std@@@std@@YAABV?$time_get@DV?$istreambuf_iterator@DU?$char_traits@D@std@@@std@@@0@ABVlocale@0@@Z 1006a330 f i libcpmtd:xlocale.obj
 0001:00069460       ??$use_facet@V?$time_put@DV?$ostreambuf_iterator@DU?$char_traits@D@std@@@std@@@std@@@std@@YAABV?$time_put@DV?$ostreambuf_iterator@DU?$char_traits@D@std@@@std@@@0@ABVlocale@0@@Z 1006a460 f i libcpmtd:xlocale.obj
 0001:00069590       ??0?$_Mpunct@D@std@@QAE@ABV_Locinfo@1@I_N1@Z 1006a590 f i libcpmtd:xlocale.obj
 0001:00069610       ??0?$_String_const_iterator@V?$_String_val@U?$_Simple_types@D@std@@@std@@@std@@QAE@$$QAV01@@Z 1006a610 f i libcpmtd:xlocale.obj
 0001:00069640       ??0?$_String_const_iterator@V?$_String_val@U?$_Simple_types@D@std@@@std@@@std@@QAE@ABV01@@Z 1006a640 f i libcpmtd:xlocale.obj
 0001:00069670       ??0?$_String_const_iterator@V?$_String_val@U?$_Simple_types@D@std@@@std@@@std@@QAE@PBDPBU_Container_base12@1@@Z 1006a670 f i libcpmtd:xlocale.obj
 0001:000696a0       ??0?$_String_const_iterator@V?$_String_val@U?$_Simple_types@D@std@@@std@@@std@@QAE@XZ 1006a6a0 f i libcpmtd:xlocale.obj
 0001:000696c0       ??0?$_String_iterator@V?$_String_val@U?$_Simple_types@D@std@@@std@@@std@@QAE@ABV01@@Z 1006a6c0 f i libcpmtd:xlocale.obj
 0001:000696e0       ??0?$_String_iterator@V?$_String_val@U?$_Simple_types@D@std@@@std@@@std@@QAE@PADPBU_Container_base12@1@@Z 1006a6e0 f i libcpmtd:xlocale.obj
 0001:00069700       ??0?$basic_string@DU?$char_traits@D@std@@V?$allocator@D@2@@std@@QAE@QBDI@Z 1006a700 f i libcpmtd:xlocale.obj
 0001:00069770       ??0?$collate@D@std@@QAE@ABV_Locinfo@1@I@Z 1006a770 f i libcpmtd:xlocale.obj
 0001:000697e0       ??0?$messages@D@std@@QAE@ABV_Locinfo@1@I@Z 1006a7e0 f i libcpmtd:xlocale.obj
 0001:00069850       ??0?$money_get@DV?$istreambuf_iterator@DU?$char_traits@D@std@@@std@@@std@@QAE@ABV_Locinfo@1@I@Z 1006a850 f i libcpmtd:xlocale.obj
 0001:000698c0       ??0?$money_put@DV?$ostreambuf_iterator@DU?$char_traits@D@std@@@std@@@std@@QAE@ABV_Locinfo@1@I@Z 1006a8c0 f i libcpmtd:xlocale.obj
 0001:00069930       ??0?$moneypunct@D$00@std@@QAE@ABV_Locinfo@1@I_N@Z 1006a930 f i libcpmtd:xlocale.obj
 0001:00069960       ??0?$moneypunct@D$0A@@std@@QAE@ABV_Locinfo@1@I_N@Z 1006a960 f i libcpmtd:xlocale.obj
 0001:00069990       ??0?$time_get@DV?$istreambuf_iterator@DU?$char_traits@D@std@@@std@@@std@@QAE@ABV_Locinfo@1@I@Z 1006a990 f i libcpmtd:xlocale.obj
 0001:00069a00       ??0?$time_put@DV?$ostreambuf_iterator@DU?$char_traits@D@std@@@std@@@std@@QAE@ABV_Locinfo@1@I@Z 1006aa00 f i libcpmtd:xlocale.obj
 0001:00069a90       ??1?$_Mpunct@D@std@@MAE@XZ 1006aa90 f i libcpmtd:xlocale.obj
 0001:00069ae0       ??1?$_String_const_iterator@V?$_String_val@U?$_Simple_types@D@std@@@std@@@std@@QAE@XZ 1006aae0 f i libcpmtd:xlocale.obj
 0001:00069b00       ??1?$_String_iterator@V?$_String_val@U?$_Simple_types@D@std@@@std@@@std@@QAE@XZ 1006ab00 f i libcpmtd:xlocale.obj
 0001:00069b20       ??1?$collate@D@std@@MAE@XZ 1006ab20 f i libcpmtd:xlocale.obj
 0001:00069b50       ??1?$messages@D@std@@MAE@XZ 1006ab50 f i libcpmtd:xlocale.obj
 0001:00069b70       ??1?$money_get@DV?$istreambuf_iterator@DU?$char_traits@D@std@@@std@@@std@@MAE@XZ 1006ab70 f i libcpmtd:xlocale.obj
 0001:00069b90       ??1?$money_put@DV?$ostreambuf_iterator@DU?$char_traits@D@std@@@std@@@std@@MAE@XZ 1006ab90 f i libcpmtd:xlocale.obj
 0001:00069bb0       ??1?$moneypunct@D$00@std@@MAE@XZ 1006abb0 f i libcpmtd:xlocale.obj
 0001:00069bd0       ??1?$moneypunct@D$0A@@std@@MAE@XZ 1006abd0 f i libcpmtd:xlocale.obj
 0001:00069bf0       ??1?$time_get@DV?$istreambuf_iterator@DU?$char_traits@D@std@@@std@@@std@@MAE@XZ 1006abf0 f i libcpmtd:xlocale.obj
 0001:00069c40       ??1?$time_put@DV?$ostreambuf_iterator@DU?$char_traits@D@std@@@std@@@std@@MAE@XZ 1006ac40 f i libcpmtd:xlocale.obj
 0001:00069c70       ??4?$_String_const_iterator@V?$_String_val@U?$_Simple_types@D@std@@@std@@@std@@QAEAAV01@$$QAV01@@Z 1006ac70 f i libcpmtd:xlocale.obj
 0001:00069ca0       ??8?$_String_const_iterator@V?$_String_val@U?$_Simple_types@D@std@@@std@@@std@@QBE_NABV01@@Z 1006aca0 f i libcpmtd:xlocale.obj
 0001:00069ce0       ??9?$_String_const_iterator@V?$_String_val@U?$_Simple_types@D@std@@@std@@@std@@QBE_NABV01@@Z 1006ace0 f i libcpmtd:xlocale.obj
 0001:00069d20       ??D?$_String_const_iterator@V?$_String_val@U?$_Simple_types@D@std@@@std@@@std@@QBEABDXZ 1006ad20 f i libcpmtd:xlocale.obj
 0001:00069e70       ??D?$_String_iterator@V?$_String_val@U?$_Simple_types@D@std@@@std@@@std@@QBEAADXZ 1006ae70 f i libcpmtd:xlocale.obj
 0001:00069e90       ??E?$_String_const_iterator@V?$_String_val@U?$_Simple_types@D@std@@@std@@@std@@QAEAAV01@XZ 1006ae90 f i libcpmtd:xlocale.obj
 0001:00069fe0       ??E?$_String_iterator@V?$_String_val@U?$_Simple_types@D@std@@@std@@@std@@QAEAAV01@XZ 1006afe0 f i libcpmtd:xlocale.obj
 0001:0006a000       ??E?$ostreambuf_iterator@DU?$char_traits@D@std@@@std@@QAEAAV01@H@Z 1006b000 f i libcpmtd:xlocale.obj
 0001:0006a010       ??G?$_String_iterator@V?$_String_val@U?$_Simple_types@D@std@@@std@@@std@@QBE?AV01@H@Z 1006b010 f i libcpmtd:xlocale.obj
 0001:0006a0a0       ??H?$_String_iterator@V?$_String_val@U?$_Simple_types@D@std@@@std@@@std@@QBE?AV01@H@Z 1006b0a0 f i libcpmtd:xlocale.obj
 0001:0006a2d0       ??Y?$_String_const_iterator@V?$_String_val@U?$_Simple_types@D@std@@@std@@@std@@QAEAAV01@H@Z 1006b2d0 f i libcpmtd:xlocale.obj
 0001:0006a300       ??Y?$_String_iterator@V?$_String_val@U?$_Simple_types@D@std@@@std@@@std@@QAEAAV01@H@Z 1006b300 f i libcpmtd:xlocale.obj
 0001:0006a320       ??Z?$_String_iterator@V?$_String_val@U?$_Simple_types@D@std@@@std@@@std@@QAEAAV01@H@Z 1006b320 f i libcpmtd:xlocale.obj
 0001:0006a340       ??_E?$_Mpunct@D@std@@MAEPAXI@Z 1006b340 f i libcpmtd:xlocale.obj
 0001:0006a340       ??_G?$_Mpunct@D@std@@MAEPAXI@Z 1006b340 f i libcpmtd:xlocale.obj
 0001:0006a390       ??_E?$collate@D@std@@MAEPAXI@Z 1006b390 f i libcpmtd:xlocale.obj
 0001:0006a390       ??_G?$collate@D@std@@MAEPAXI@Z 1006b390 f i libcpmtd:xlocale.obj
 0001:0006a3e0       ??_G?$messages@D@std@@MAEPAXI@Z 1006b3e0 f i libcpmtd:xlocale.obj
 0001:0006a3e0       ??_E?$messages@D@std@@MAEPAXI@Z 1006b3e0 f i libcpmtd:xlocale.obj
 0001:0006a430       ??_E?$money_get@DV?$istreambuf_iterator@DU?$char_traits@D@std@@@std@@@std@@MAEPAXI@Z 1006b430 f i libcpmtd:xlocale.obj
 0001:0006a430       ??_G?$money_get@DV?$istreambuf_iterator@DU?$char_traits@D@std@@@std@@@std@@MAEPAXI@Z 1006b430 f i libcpmtd:xlocale.obj
 0001:0006a480       ??_E?$money_put@DV?$ostreambuf_iterator@DU?$char_traits@D@std@@@std@@@std@@MAEPAXI@Z 1006b480 f i libcpmtd:xlocale.obj
 0001:0006a480       ??_G?$money_put@DV?$ostreambuf_iterator@DU?$char_traits@D@std@@@std@@@std@@MAEPAXI@Z 1006b480 f i libcpmtd:xlocale.obj
 0001:0006a4d0       ??_E?$moneypunct@D$00@std@@MAEPAXI@Z 1006b4d0 f i libcpmtd:xlocale.obj
 0001:0006a4d0       ??_G?$moneypunct@D$00@std@@MAEPAXI@Z 1006b4d0 f i libcpmtd:xlocale.obj
 0001:0006a520       ??_G?$moneypunct@D$0A@@std@@MAEPAXI@Z 1006b520 f i libcpmtd:xlocale.obj
 0001:0006a520       ??_E?$moneypunct@D$0A@@std@@MAEPAXI@Z 1006b520 f i libcpmtd:xlocale.obj
 0001:0006a570       ??_G?$time_get@DV?$istreambuf_iterator@DU?$char_traits@D@std@@@std@@@std@@MAEPAXI@Z 1006b570 f i libcpmtd:xlocale.obj
 0001:0006a570       ??_E?$time_get@DV?$istreambuf_iterator@DU?$char_traits@D@std@@@std@@@std@@MAEPAXI@Z 1006b570 f i libcpmtd:xlocale.obj
 0001:0006a5c0       ??_G?$time_put@DV?$ostreambuf_iterator@DU?$char_traits@D@std@@@std@@@std@@MAEPAXI@Z 1006b5c0 f i libcpmtd:xlocale.obj
 0001:0006a5c0       ??_E?$time_put@DV?$ostreambuf_iterator@DU?$char_traits@D@std@@@std@@@std@@MAEPAXI@Z 1006b5c0 f i libcpmtd:xlocale.obj
 0001:0006a610       ?_Compat@?$_String_const_iterator@V?$_String_val@U?$_Simple_types@D@std@@@std@@@std@@QBEXABV12@@Z 1006b610 f i libcpmtd:xlocale.obj
 0001:0006a690       ?_Getcat@?$collate@D@std@@SAIPAPBVfacet@locale@2@PBV42@@Z 1006b690 f i libcpmtd:xlocale.obj
 0001:0006a7c0       ?_Getcat@?$messages@D@std@@SAIPAPBVfacet@locale@2@PBV42@@Z 1006b7c0 f i libcpmtd:xlocale.obj
 0001:0006a8b0       ?_Getcat@?$money_get@DV?$istreambuf_iterator@DU?$char_traits@D@std@@@std@@@std@@SAIPAPBVfacet@locale@2@PBV42@@Z 1006b8b0 f i libcpmtd:xlocale.obj
 0001:0006a9a0       ?_Getcat@?$money_put@DV?$ostreambuf_iterator@DU?$char_traits@D@std@@@std@@@std@@SAIPAPBVfacet@locale@2@PBV42@@Z 1006b9a0 f i libcpmtd:xlocale.obj
 0001:0006aa90       ?_Getcat@?$moneypunct@D$00@std@@SAIPAPBVfacet@locale@2@PBV42@@Z 1006ba90 f i libcpmtd:xlocale.obj
 0001:0006ab80       ?_Getcat@?$moneypunct@D$0A@@std@@SAIPAPBVfacet@locale@2@PBV42@@Z 1006bb80 f i libcpmtd:xlocale.obj
 0001:0006ac70       ?_Getcat@?$time_get@DV?$istreambuf_iterator@DU?$char_traits@D@std@@@std@@@std@@SAIPAPBVfacet@locale@2@PBV42@@Z 1006bc70 f i libcpmtd:xlocale.obj
 0001:0006ad60       ?_Getcat@?$time_put@DV?$ostreambuf_iterator@DU?$char_traits@D@std@@@std@@@std@@SAIPAPBVfacet@locale@2@PBV42@@Z 1006bd60 f i libcpmtd:xlocale.obj
 0001:0006ae50       ?_Getfmt@?$time_get@DV?$istreambuf_iterator@DU?$char_traits@D@std@@@std@@@std@@IBE?AV?$istreambuf_iterator@DU?$char_traits@D@std@@@2@V32@0AAVios_base@2@AAHPAUtm@@PBD@Z 1006be50 f i libcpmtd:xlocale.obj
 0001:0006b010       ?_Getint@?$time_get@DV?$istreambuf_iterator@DU?$char_traits@D@std@@@std@@@std@@ABAHAAV?$istreambuf_iterator@DU?$char_traits@D@std@@@2@0HHAAHABV?$ctype@D@2@@Z 1006c010 f i libcpmtd:xlocale.obj
 0001:0006b210       ?_Getmfld@?$money_get@DV?$istreambuf_iterator@DU?$char_traits@D@std@@@std@@@std@@ABE?AV?$basic_string@DU?$char_traits@D@std@@V?$allocator@D@2@@2@AAV?$istreambuf_iterator@DU?$char_traits@D@std@@@2@0_NAAVios_base@2@AAY0M@D@Z 1006c210 f i libcpmtd:xlocale.obj
 0001:0006c230       ?_Gettnames@_Locinfo@std@@QBE?AV_Timevec@2@XZ 1006d230 f i libcpmtd:xlocale.obj
 0001:0006c260       ?_Init@?$_Mpunct@D@std@@IAEXABV_Locinfo@2@_N@Z 1006d260 f i libcpmtd:xlocale.obj
 0001:0006c430       ?_Init@?$collate@D@std@@IAEXABV_Locinfo@2@@Z 1006d430 f i libcpmtd:xlocale.obj
 0001:0006c460       ?_Init@?$messages@D@std@@IAEXABV_Locinfo@2@@Z 1006d460 f i libcpmtd:xlocale.obj
 0001:0006c470       ?_Init@?$money_get@DV?$istreambuf_iterator@DU?$char_traits@D@std@@@std@@@std@@IAEXABV_Locinfo@2@@Z 1006d470 f i libcpmtd:xlocale.obj
 0001:0006c480       ?_Init@?$money_put@DV?$ostreambuf_iterator@DU?$char_traits@D@std@@@std@@@std@@IAEXABV_Locinfo@2@@Z 1006d480 f i libcpmtd:xlocale.obj
 0001:0006c490       ?_Init@?$time_get@DV?$istreambuf_iterator@DU?$char_traits@D@std@@@std@@@std@@IAEXABV_Locinfo@2@@Z 1006d490 f i libcpmtd:xlocale.obj
 0001:0006c550       ?_Init@?$time_put@DV?$ostreambuf_iterator@DU?$char_traits@D@std@@@std@@@std@@IAEXABV_Locinfo@2@@Z 1006d550 f i libcpmtd:xlocale.obj
 0001:0006c5d0       ?_Makexloc@_Locimp@locale@std@@CAXABV_Locinfo@3@HPAV123@PBV23@@Z 1006d5d0 f   libcpmtd:xlocale.obj
 0001:0006cbb0       ?_Makpat@?$_Mpunct@D@std@@AAEXAAUpattern@money_base@2@III@Z 1006dbb0 f i libcpmtd:xlocale.obj
 0001:0006cc20       ?_Put@?$money_put@DV?$ostreambuf_iterator@DU?$char_traits@D@std@@@std@@@std@@CA?AV?$ostreambuf_iterator@DU?$char_traits@D@std@@@2@V32@V?$_String_const_iterator@V?$_String_val@U?$_Simple_types@D@std@@@std@@@2@I@Z 1006dc20 f i libcpmtd:xlocale.obj
 0001:0006ccd0       ?_Putmfld@?$money_put@DV?$ostreambuf_iterator@DU?$char_traits@D@std@@@std@@@std@@ABE?AV?$ostreambuf_iterator@DU?$char_traits@D@std@@@2@V32@_NAAVios_base@2@D1V?$basic_string@DU?$char_traits@D@std@@V?$allocator@D@2@@2@D@Z 1006dcd0 f i libcpmtd:xlocale.obj
 0001:0006da20       ?_Rep@?$money_put@DV?$ostreambuf_iterator@DU?$char_traits@D@std@@@std@@@std@@CA?AV?$ostreambuf_iterator@DU?$char_traits@D@std@@@2@V32@DI@Z 1006ea20 f i libcpmtd:xlocale.obj
 0001:0006da70       ?_Tidy@?$_Mpunct@D@std@@AAEXXZ 1006ea70 f i libcpmtd:xlocale.obj
 0001:0006dac0       ?_Tidy@?$time_get@DV?$istreambuf_iterator@DU?$char_traits@D@std@@@std@@@std@@AAEXXZ 1006eac0 f i libcpmtd:xlocale.obj
 0001:0006db00       ?_Verify_offset@?$_String_const_iterator@V?$_String_val@U?$_Simple_types@D@std@@@std@@@std@@QBEXH@Z 1006eb00 f i libcpmtd:xlocale.obj
 0001:0006dcf0       ?begin@?$basic_string@DU?$char_traits@D@std@@V?$allocator@D@2@@std@@QAE?AV?$_String_iterator@V?$_String_val@U?$_Simple_types@D@std@@@std@@@2@XZ 1006ecf0 f i libcpmtd:xlocale.obj
 0001:0006dd60       ?curr_symbol@?$_Mpunct@D@std@@QBE?AV?$basic_string@DU?$char_traits@D@std@@V?$allocator@D@2@@2@XZ 1006ed60 f i libcpmtd:xlocale.obj
 0001:0006ddb0       ?date_order@?$time_get@DV?$istreambuf_iterator@DU?$char_traits@D@std@@@std@@@std@@QBE?AW4dateorder@time_base@2@XZ 1006edb0 f i libcpmtd:xlocale.obj
 0001:0006dde0       ?decimal_point@?$_Mpunct@D@std@@QBEDXZ 1006ede0 f i libcpmtd:xlocale.obj
 0001:0006de10       ?do_close@?$messages@D@std@@MBEXH@Z 1006ee10 f i libcpmtd:xlocale.obj
 0001:0006de20       ?do_compare@?$collate@D@std@@MBEHPBD000@Z 1006ee20 f i libcpmtd:xlocale.obj
 0001:0006dea0       ?do_curr_symbol@?$_Mpunct@D@std@@MBE?AV?$basic_string@DU?$char_traits@D@std@@V?$allocator@D@2@@2@XZ 1006eea0 f i libcpmtd:xlocale.obj
 0001:0006dee0       ?do_date_order@?$time_get@DV?$istreambuf_iterator@DU?$char_traits@D@std@@@std@@@std@@MBE?AW4dateorder@time_base@2@XZ 1006eee0 f i libcpmtd:xlocale.obj
 0001:0006df00       ?do_decimal_point@?$_Mpunct@D@std@@MBEDXZ 1006ef00 f i libcpmtd:xlocale.obj
 0001:0006df20       ?do_frac_digits@?$_Mpunct@D@std@@MBEHXZ 1006ef20 f i libcpmtd:xlocale.obj
 0001:0006df40       ?do_get@?$messages@D@std@@MBE?AV?$basic_string@DU?$char_traits@D@std@@V?$allocator@D@2@@2@HHHABV32@@Z 1006ef40 f i libcpmtd:xlocale.obj
 0001:0006df70       ?do_get@?$money_get@DV?$istreambuf_iterator@DU?$char_traits@D@std@@@std@@@std@@MBE?AV?$istreambuf_iterator@DU?$char_traits@D@std@@@2@V32@0_NAAVios_base@2@AAHAAO@Z 1006ef70 f i libcpmtd:xlocale.obj
 0001:0006e090       ?do_get@?$money_get@DV?$istreambuf_iterator@DU?$char_traits@D@std@@@std@@@std@@MBE?AV?$istreambuf_iterator@DU?$char_traits@D@std@@@2@V32@0_NAAVios_base@2@AAHAAV?$basic_string@DU?$char_traits@D@std@@V?$allocator@D@2@@2@@Z 1006f090 f i libcpmtd:xlocale.obj
 0001:0006e200       ?do_get@?$time_get@DV?$istreambuf_iterator@DU?$char_traits@D@std@@@std@@@std@@MBE?AV?$istreambuf_iterator@DU?$char_traits@D@std@@@2@V32@0AAVios_base@2@AAHPAUtm@@DD@Z 1006f200 f i libcpmtd:xlocale.obj
 0001:0006e950       ?do_get_date@?$time_get@DV?$istreambuf_iterator@DU?$char_traits@D@std@@@std@@@std@@MBE?AV?$istreambuf_iterator@DU?$char_traits@D@std@@@2@V32@0AAVios_base@2@AAHPAUtm@@@Z 1006f950 f i libcpmtd:xlocale.obj
 0001:0006ef40       ?do_get_monthname@?$time_get@DV?$istreambuf_iterator@DU?$char_traits@D@std@@@std@@@std@@MBE?AV?$istreambuf_iterator@DU?$char_traits@D@std@@@2@V32@0AAVios_base@2@AAHPAUtm@@@Z 1006ff40 f i libcpmtd:xlocale.obj
 0001:0006efa0       ?do_get_time@?$time_get@DV?$istreambuf_iterator@DU?$char_traits@D@std@@@std@@@std@@MBE?AV?$istreambuf_iterator@DU?$char_traits@D@std@@@2@V32@0AAVios_base@2@AAHPAUtm@@@Z 1006ffa0 f i libcpmtd:xlocale.obj
 0001:0006f130       ?do_get_weekday@?$time_get@DV?$istreambuf_iterator@DU?$char_traits@D@std@@@std@@@std@@MBE?AV?$istreambuf_iterator@DU?$char_traits@D@std@@@2@V32@0AAVios_base@2@AAHPAUtm@@@Z 10070130 f i libcpmtd:xlocale.obj
 0001:0006f190       ?do_get_year@?$time_get@DV?$istreambuf_iterator@DU?$char_traits@D@std@@@std@@@std@@MBE?AV?$istreambuf_iterator@DU?$char_traits@D@std@@@2@V32@0AAVios_base@2@AAHPAUtm@@@Z 10070190 f i libcpmtd:xlocale.obj
 0001:0006f290       ?do_grouping@?$_Mpunct@D@std@@MBE?AV?$basic_string@DU?$char_traits@D@std@@V?$allocator@D@2@@2@XZ 10070290 f i libcpmtd:xlocale.obj
 0001:0006f2d0       ?do_hash@?$collate@D@std@@MBEJPBD0@Z 100702d0 f i libcpmtd:xlocale.obj
 0001:0006f300       ?do_neg_format@?$_Mpunct@D@std@@MBE?AUpattern@money_base@2@XZ 10070300 f i libcpmtd:xlocale.obj
 0001:0006f320       ?do_negative_sign@?$_Mpunct@D@std@@MBE?AV?$basic_string@DU?$char_traits@D@std@@V?$allocator@D@2@@2@XZ 10070320 f i libcpmtd:xlocale.obj
 0001:0006f360       ?do_open@?$messages@D@std@@MBEHABV?$basic_string@DU?$char_traits@D@std@@V?$allocator@D@2@@2@ABVlocale@2@@Z 10070360 f i libcpmtd:xlocale.obj
 0001:0006f370       ?do_pos_format@?$_Mpunct@D@std@@MBE?AUpattern@money_base@2@XZ 10070370 f i libcpmtd:xlocale.obj
 0001:0006f390       ?do_positive_sign@?$_Mpunct@D@std@@MBE?AV?$basic_string@DU?$char_traits@D@std@@V?$allocator@D@2@@2@XZ 10070390 f i libcpmtd:xlocale.obj
 0001:0006f3d0       ?do_put@?$money_put@DV?$ostreambuf_iterator@DU?$char_traits@D@std@@@std@@@std@@MBE?AV?$ostreambuf_iterator@DU?$char_traits@D@std@@@2@V32@_NAAVios_base@2@DABV?$basic_string@DU?$char_traits@D@std@@V?$allocator@D@2@@2@@Z 100703d0 f i libcpmtd:xlocale.obj
 0001:0006f5b0       ?do_put@?$money_put@DV?$ostreambuf_iterator@DU?$char_traits@D@std@@@std@@@std@@MBE?AV?$ostreambuf_iterator@DU?$char_traits@D@std@@@2@V32@_NAAVios_base@2@DO@Z 100705b0 f i libcpmtd:xlocale.obj
 0001:0006f770       ?do_put@?$time_put@DV?$ostreambuf_iterator@DU?$char_traits@D@std@@@std@@@std@@MBE?AV?$ostreambuf_iterator@DU?$char_traits@D@std@@@2@V32@AAVios_base@2@DPBUtm@@DD@Z 10070770 f i libcpmtd:xlocale.obj
 0001:0006f8f0       ?do_thousands_sep@?$_Mpunct@D@std@@MBEDXZ 100708f0 f i libcpmtd:xlocale.obj
 0001:0006f910       ?do_transform@?$collate@D@std@@MBE?AV?$basic_string@DU?$char_traits@D@std@@V?$allocator@D@2@@2@PBD0@Z 10070910 f i libcpmtd:xlocale.obj
 0001:0006fa90       ?end@?$basic_string@DU?$char_traits@D@std@@V?$allocator@D@2@@std@@QAE?AV?$_String_iterator@V?$_String_val@U?$_Simple_types@D@std@@@std@@@2@XZ 10070a90 f i libcpmtd:xlocale.obj
 0001:0006fb10       ?frac_digits@?$_Mpunct@D@std@@QBEHXZ 10070b10 f i libcpmtd:xlocale.obj
 0001:0006fb40       ?get_monthname@?$time_get@DV?$istreambuf_iterator@DU?$char_traits@D@std@@@std@@@std@@QBE?AV?$istreambuf_iterator@DU?$char_traits@D@std@@@2@V32@0AAVios_base@2@AAHPAUtm@@@Z 10070b40 f i libcpmtd:xlocale.obj
 0001:0006fba0       ?get_weekday@?$time_get@DV?$istreambuf_iterator@DU?$char_traits@D@std@@@std@@@std@@QBE?AV?$istreambuf_iterator@DU?$char_traits@D@std@@@2@V32@0AAVios_base@2@AAHPAUtm@@@Z 10070ba0 f i libcpmtd:xlocale.obj
 0001:0006fc00       ?get_year@?$time_get@DV?$istreambuf_iterator@DU?$char_traits@D@std@@@std@@@std@@QBE?AV?$istreambuf_iterator@DU?$char_traits@D@std@@@2@V32@0AAVios_base@2@AAHPAUtm@@@Z 10070c00 f i libcpmtd:xlocale.obj
 0001:0006fc60       ?grouping@?$_Mpunct@D@std@@QBE?AV?$basic_string@DU?$char_traits@D@std@@V?$allocator@D@2@@2@XZ 10070c60 f i libcpmtd:xlocale.obj
 0001:0006fcb0       ?narrow@?$ctype@D@std@@QBEDDD@Z 10070cb0 f i libcpmtd:xlocale.obj
 0001:0006fcf0       ?neg_format@?$_Mpunct@D@std@@QBE?AUpattern@money_base@2@XZ 10070cf0 f i libcpmtd:xlocale.obj
 0001:0006fd30       ?negative_sign@?$_Mpunct@D@std@@QBE?AV?$basic_string@DU?$char_traits@D@std@@V?$allocator@D@2@@2@XZ 10070d30 f i libcpmtd:xlocale.obj
 0001:0006fd80       ?pos_format@?$_Mpunct@D@std@@QBE?AUpattern@money_base@2@XZ 10070d80 f i libcpmtd:xlocale.obj
 0001:0006fdc0       ?positive_sign@?$_Mpunct@D@std@@QBE?AV?$basic_string@DU?$char_traits@D@std@@V?$allocator@D@2@@2@XZ 10070dc0 f i libcpmtd:xlocale.obj
 0001:0006fe10       ?thousands_sep@?$_Mpunct@D@std@@QBEDXZ 10070e10 f i libcpmtd:xlocale.obj
 0001:0006fe40       __Stolx                    10070e40 f   libcpmtd:xstol.obj
 0001:0006ff70       __Stoul                    10070f70 f   libcpmtd:xstoul.obj
 0001:0006ff90       __Stoulx                   10070f90 f   libcpmtd:xstoul.obj
 0001:00070210       __Stoll                    10071210 f   libcpmtd:xstoll.obj
 0001:00070230       __Stollx                   10071230 f   libcpmtd:xstoll.obj
 0001:00070390       __Stoull                   10071390 f   libcpmtd:xstoull.obj
 0001:000703b0       __Stoullx                  100713b0 f   libcpmtd:xstoull.obj
 0001:000706b0       __Getcoll                  100716b0 f   libcpmtd:xstrcoll.obj
 0001:00070700       __Strcoll                  10071700 f   libcpmtd:xstrcoll.obj
 0001:00070820       __Getdateorder             10071820 f   libcpmtd:xdateord.obj
 0001:00070900       __Mbrtowc                  10071900 f   libcpmtd:xmbtowc.obj
 0001:00070bf0       __Wcscoll                  10071bf0 f   libcpmtd:xwcscoll.obj
 0001:00070d00       _wmemcmp                   10071d00 f i libcpmtd:xwcscoll.obj
 0001:00070d70       __Wcsxfrm                  10071d70 f   libcpmtd:xwcsxfrm.obj
 0001:00070ec0       __Getwctype                10071ec0 f   libcpmtd:xgetwctype.obj
 0001:00070f00       __Getwctypes               10071f00 f   libcpmtd:xgetwctype.obj
 0001:00070f30       __Towlower                 10071f30 f   libcpmtd:xtowlower.obj
 0001:00070fb0       __Towupper                 10071fb0 f   libcpmtd:xtowupper.obj
 0001:00071030       __Strxfrm                  10072030 f   libcpmtd:xstrxfrm.obj
 0001:00071120       ___crtCompareStringA       10072120 f   libcpmtd:StlCompareStringA.obj
 0001:000715a0       ___crtCompareStringW       100725a0 f   libcpmtd:StlCompareStringW.obj
 0001:00071640       ___crtLCMapStringW         10072640 f   libcpmtd:StlLCMapStringW.obj
 0001:0007169a       _bind@12                   1007269a f   ws2_32:WS2_32.dll
 0001:000716a0       _closesocket@4             100726a0 f   ws2_32:WS2_32.dll
 0001:000716a6       _htonl@4                   100726a6 f   ws2_32:WS2_32.dll
 0001:000716ac       _htons@4                   100726ac f   ws2_32:WS2_32.dll
 0001:000716b2       _inet_addr@4               100726b2 f   ws2_32:WS2_32.dll
 0001:000716b8       _recvfrom@24               100726b8 f   ws2_32:WS2_32.dll
 0001:000716be       _sendto@24                 100726be f   ws2_32:WS2_32.dll
 0001:000716c4       _socket@12                 100726c4 f   ws2_32:WS2_32.dll
 0001:000716ca       _WSAStartup@8              100726ca f   ws2_32:WS2_32.dll
 0001:000716d0       _WSACleanup@0              100726d0 f   ws2_32:WS2_32.dll
 0001:000716e0       ??2@YAPAXI@Z               100726e0 f   LIBCMTD:new_scalar.obj
 0001:00071730       ??3@YAXPAXI@Z              10072730 f   LIBCMTD:delete_scalar_size.obj
 0001:00071750       ??$__crt_fast_decode_pointer@PAP6AXXZ@@YAPAP6AXXZQAP6AXXZ@Z 10072750 f i LIBCMTD:utility.obj
 0001:00071780       ??$__crt_fast_encode_pointer@PAP6AXXZ@@YAPAP6AXXZQAP6AXXZ@Z 10072780 f i LIBCMTD:utility.obj
 0001:000717b0       ?__crt_rotate_pointer_value@@YAIIH@Z 100727b0 f i LIBCMTD:utility.obj
 0001:000717c0       ?configure_argv@__scrt_narrow_argv_policy@@SAHXZ 100727c0 f i LIBCMTD:utility.obj
 0001:00071870       ?initialize_environment@__scrt_narrow_environment_policy@@SAHXZ 10072870 f i LIBCMTD:utility.obj
 0001:000718f0       _NtCurrentTeb              100728f0 f i LIBCMTD:utility.obj
 0001:00071900       ___scrt_acquire_startup_lock 10072900 f   LIBCMTD:utility.obj
 0001:00071950       ___scrt_dllmain_after_initialize_c 10072950 f   LIBCMTD:utility.obj
 0001:00071980       ___scrt_dllmain_before_initialize_c 10072980 f   LIBCMTD:utility.obj
 0001:000719a0       ___scrt_dllmain_crt_thread_attach 100729a0 f   LIBCMTD:utility.obj
 0001:000719d0       ___scrt_dllmain_crt_thread_detach 100729d0 f   LIBCMTD:utility.obj
 0001:000719f0       ___scrt_dllmain_exception_filter 100729f0 f   LIBCMTD:utility.obj
 0001:00071a40       ___scrt_dllmain_uninitialize_c 10072a40 f   LIBCMTD:utility.obj
 0001:00071a70       ___scrt_dllmain_uninitialize_critical 10072a70 f   LIBCMTD:utility.obj
 0001:00071a90       ___scrt_initialize_crt     10072a90 f   LIBCMTD:utility.obj
 0001:00071ae0       ___scrt_initialize_onexit_tables 10072ae0 f   LIBCMTD:utility.obj
 0001:00071bc0       ___scrt_is_nonwritable_in_current_image 10072bc0 f   LIBCMTD:utility.obj
 0001:00071cf0       ___scrt_release_startup_lock 10072cf0 f   LIBCMTD:utility.obj
 0001:00071d20       ___scrt_uninitialize_crt   10072d20 f   LIBCMTD:utility.obj
 0001:00071d60       __onexit                   10072d60 f   LIBCMTD:utility.obj
 0001:00071dd0       _at_quick_exit             10072dd0 f   LIBCMTD:utility.obj
 0001:00071e20       _atexit                    10072e20 f   LIBCMTD:utility.obj
 0001:00071e50       @__security_check_cookie@4 10072e50 f   LIBCMTD:secchk.obj
 0001:00071e70       ??1type_info@@UAE@XZ       10072e70 f   LIBCMTD:std_type_info_static.obj
 0001:00071e90       ??_Gtype_info@@UAEPAXI@Z   10072e90 f i LIBCMTD:std_type_info_static.obj
 0001:00071e90       ??_Etype_info@@UAEPAXI@Z   10072e90 f i LIBCMTD:std_type_info_static.obj
 0001:00072370       __CRT_INIT@12              10073370 f   LIBCMTD:dll_dllmain.obj
 0001:00072390       __DllMainCRTStartup@12     10073390 f   LIBCMTD:dll_dllmain.obj
 0001:000723c0       ??_L@YGXPAXIHP6EX0@Z1@Z    100733c0 f   LIBCMTD:ehvecctr.obj
 0001:000723e0       ??_L@YGXPAXIIP6EX0@Z1@Z    100733e0 f   LIBCMTD:ehvecctr.obj
 0001:000724a0       ??_M@YGXPAXIHP6EX0@Z@Z     100734a0 f   LIBCMTD:ehvecdtr.obj
 0001:000724c0       ??_M@YGXPAXIIP6EX0@Z@Z     100734c0 f   LIBCMTD:ehvecdtr.obj
 0001:000725c0       ?__ArrayUnwind@@YGXPAXIIP6EX0@Z@Z 100735c0 f   LIBCMTD:ehvecdtr.obj
 0001:00072670       ??_U@YAPAXI@Z              10073670 f   LIBCMTD:new_array.obj
 0001:00072690       ??_V@YAXPAXI@Z             10073690 f   LIBCMTD:delete_array_size.obj
 0001:000726f0       ??$__crt_fast_decode_pointer@P6GHPAU_RTL_CONDITION_VARIABLE@@PAU_RTL_CRITICAL_SECTION@@K@Z@@YAP6GHPAU_RTL_CONDITION_VARIABLE@@PAU_RTL_CRITICAL_SECTION@@K@ZQ6GH01K@Z@Z 100736f0 f i LIBCMTD:thread_safe_statics.obj
 0001:00072720       ??$__crt_fast_decode_pointer@P6GXPAU_RTL_CONDITION_VARIABLE@@@Z@@YAP6GXPAU_RTL_CONDITION_VARIABLE@@@ZQ6GX0@Z@Z 10073720 f i LIBCMTD:thread_safe_statics.obj
 0001:00072750       ??$__crt_fast_encode_pointer@P6GHPAU_RTL_CONDITION_VARIABLE@@PAU_RTL_CRITICAL_SECTION@@K@Z@@YAP6GHPAU_RTL_CONDITION_VARIABLE@@PAU_RTL_CRITICAL_SECTION@@K@ZQ6GH01K@Z@Z 10073750 f i LIBCMTD:thread_safe_statics.obj
 0001:00072780       ??$__crt_fast_encode_pointer@P6GXPAU_RTL_CONDITION_VARIABLE@@@Z@@YAP6GXPAU_RTL_CONDITION_VARIABLE@@@ZQ6GX0@Z@Z 10073780 f i LIBCMTD:thread_safe_statics.obj
 0001:000728e0       ?__scrt_is_event_api_used@@YA_NQAX@Z 100738e0 f i LIBCMTD:thread_safe_statics.obj
 0001:00072970       __Init_thread_abort        10073970 f   LIBCMTD:thread_safe_statics.obj
 0001:00072990       __Init_thread_footer       10073990 f   LIBCMTD:thread_safe_statics.obj
 0001:000729e0       __Init_thread_header       100739e0 f   LIBCMTD:thread_safe_statics.obj
 0001:00072a50       __Init_thread_lock         10073a50 f   LIBCMTD:thread_safe_statics.obj
 0001:00072a60       __Init_thread_notify       10073a60 f   LIBCMTD:thread_safe_statics.obj
 0001:00072ad0       __Init_thread_unlock       10073ad0 f   LIBCMTD:thread_safe_statics.obj
 0001:00072ae0       __Init_thread_wait         10073ae0 f   LIBCMTD:thread_safe_statics.obj
 0001:00072b80       @_RTC_AllocaHelper@12      10073b80 f   LIBCMTD:stack.obj
 0001:00072bc0       @_RTC_CheckStackVars2@12   10073bc0 f   LIBCMTD:stack.obj
 0001:00072ca0       @_RTC_CheckStackVars@8     10073ca0 f   LIBCMTD:stack.obj
 0001:00072d10       __RTC_CheckEsp             10073d10 f   LIBCMTD:stack.obj
 0001:00072d50       __CRT_RTC_INIT             10073d50 f   LIBCMTD:init.obj
 0001:00072d60       __CRT_RTC_INITW            10073d60 f   LIBCMTD:init.obj
 0001:00072d70       __RTC_InitBase             10073d70 f   LIBCMTD:init.obj
 0001:00072da0       __RTC_Shutdown             10073da0 f   LIBCMTD:init.obj
 0001:00072dc0       __ftoui3                   10073dc0 f   LIBCMTD:ftol3.obj
 0001:00072dcf       __ftoul3                   10073dcf f   LIBCMTD:ftol3.obj
 0001:00072dde       __ftol3                    10073dde f   LIBCMTD:ftol3.obj
 0001:00072deb       __ftol3_NaN                10073deb f   LIBCMTD:ftol3.obj
 0001:00072e03       __ftol3_work               10073e03 f   LIBCMTD:ftol3.obj
 0001:00072e89       __ftol3_common             10073e89 f   LIBCMTD:ftol3.obj
 0001:00072f4b       __ftol3_arg_error          10073f4b f   LIBCMTD:ftol3.obj
 0001:00072f5d       __ftol3_except             10073f5d f   LIBCMTD:ftol3.obj
 0001:00072fa1       __dtoui3                   10073fa1 f   LIBCMTD:ftol3.obj
 0001:00072fb0       __dtoul3                   10073fb0 f   LIBCMTD:ftol3.obj
 0001:00072fbf       __dtol3                    10073fbf f   LIBCMTD:ftol3.obj
 0001:00072fcc       __dtol3_NaN                10073fcc f   LIBCMTD:ftol3.obj
 0001:00072fe9       __dtol3_work               10073fe9 f   LIBCMTD:ftol3.obj
 0001:000730d0       __ultod3                   100740d0 f   LIBCMTD:ftol3.obj
 0001:00073110       __ltod3                    10074110 f   LIBCMTD:ftol3.obj
 0001:00073140       ??_V@YAXPAX@Z              10074140 f   LIBCMTD:delete_array.obj
 0001:00073160       ___raise_securityfailure   10074160 f   LIBCMTD:gs_report.obj
 0001:00073190       ___report_gsfailure        10074190 f   LIBCMTD:gs_report.obj
 0001:000732a0       ___report_rangecheckfailure 100742a0 f   LIBCMTD:gs_report.obj
 0001:000732b0       ___report_securityfailure  100742b0 f   LIBCMTD:gs_report.obj
 0001:00073390       ___report_securityfailureEx 10074390 f   LIBCMTD:gs_report.obj
 0001:000734c0       @_guard_check_icall_nop@4  100744c0 f i LIBCMTD:guard_support.obj
 0001:000734d0       _ReadNoFence               100744d0 f i LIBCMTD:guard_support.obj
 0001:000734f0       _ReadPointerNoFence        100744f0 f i LIBCMTD:guard_support.obj
 0001:00073510       __guard_icall_checks_enforced 10074510 f i LIBCMTD:guard_support.obj
 0001:00073540       __allmul                   10074540 f   LIBCMTD:llmul.obj
 0001:00073580       __aulldiv                  10074580 f   LIBCMTD:ulldiv.obj
 0001:000735f0       ??0bad_alloc@std@@AAE@QBD@Z 100745f0 f i LIBCMTD:throw_bad_alloc.obj
 0001:00073620       ??0bad_array_new_length@std@@QAE@ABV01@@Z 10074620 f i LIBCMTD:throw_bad_alloc.obj
 0001:00073650       ??0bad_array_new_length@std@@QAE@XZ 10074650 f i LIBCMTD:throw_bad_alloc.obj
 0001:00073680       ??1bad_array_new_length@std@@UAE@XZ 10074680 f i LIBCMTD:throw_bad_alloc.obj
 0001:000736a0       ??_Gbad_array_new_length@std@@UAEPAXI@Z 100746a0 f i LIBCMTD:throw_bad_alloc.obj
 0001:000736a0       ??_Ebad_array_new_length@std@@UAEPAXI@Z 100746a0 f i LIBCMTD:throw_bad_alloc.obj
 0001:000736d0       ?__scrt_throw_std_bad_alloc@@YAXXZ 100746d0 f   LIBCMTD:throw_bad_alloc.obj
 0001:000736f0       ?__scrt_throw_std_bad_array_new_length@@YAXXZ 100746f0 f   LIBCMTD:throw_bad_alloc.obj
 0001:00073710       ??3@YAXPAX@Z               10074710 f   LIBCMTD:delete_scalar.obj
 0001:00073730       ___isa_available_init      10074730 f   LIBCMTD:cpu_disp.obj
 0001:00073a10       __get_startup_argv_mode    10074a10 f   LIBCMTD:argv_mode.obj
 0001:00073a20       ___scrt_is_ucrt_dll_in_use 10074a20 f   LIBCMTD:ucrt_detection.obj
 0001:00073a50       ___scrt_fastfail           10074a50 f   LIBCMTD:utility_desktop.obj
 0001:00073b90       ___scrt_get_show_window_mode 10074b90 f   LIBCMTD:utility_desktop.obj
 0001:00073bd0       ___scrt_initialize_mta     10074bd0 f   LIBCMTD:utility_desktop.obj
 0001:00073be0       ___scrt_initialize_winrt   10074be0 f   LIBCMTD:utility_desktop.obj
 0001:00073bf0       ___scrt_is_managed_app     10074bf0 f   LIBCMTD:utility_desktop.obj
 0001:00073c80       ___scrt_set_unhandled_exception_filter 10074c80 f   LIBCMTD:utility_desktop.obj
 0001:00073c90       ___scrt_exe_initialize_mta 10074c90 f   LIBCMTD:utility_desktop.obj
 0001:00073c90       ___scrt_stub_for_initialize_mta 10074c90 f   LIBCMTD:utility_desktop.obj
 0001:00073ca0       ___scrt_unhandled_exception_filter@4 10074ca0 f   LIBCMTD:utility_desktop.obj
 0001:00073d00       __crt_debugger_hook        10074d00 f   LIBCMTD:utility_desktop.obj
 0001:00073d80       ___security_init_cookie    10074d80 f   LIBCMTD:gs_support.obj
 0001:00073e00       _DllMain@12                10074e00 f   LIBCMTD:dll_dllmain_stub.obj
 0001:00073e10       ?__scrt_initialize_type_info@@YAXXZ 10074e10 f   LIBCMTD:tncleanup.obj
 0001:00073e20       ?__scrt_uninitialize_type_info@@YAXXZ 10074e20 f   LIBCMTD:tncleanup.obj
 0001:00073e40       ___scrt_initialize_default_local_stdio_options 10074e40 f   LIBCMTD:default_local_stdio_options.obj
 0001:00073e80       ___scrt_get_dyn_tls_init_callback 10074e80 f   LIBCMTD:dyn_tls_init.obj
 0001:00073e90       __RTC_Initialize           10074e90 f   LIBCMTD:initsect.obj
 0001:00073ec0       __RTC_Terminate            10074ec0 f   LIBCMTD:initsect.obj
 0001:00073f80       ?_RTC_AllocaFailure@@YAXPAXPAU_RTC_ALLOCA_NODE@@H@Z 10074f80 f   LIBCMTD:error.obj
 0001:00074070       ?_RTC_Failure@@YAXPAXH@Z   10075070 f   LIBCMTD:error.obj
 0001:000740c0       ?_RTC_StackFailure@@YAXPAXPBD@Z 100750c0 f   LIBCMTD:error.obj
 0001:00074480       __RTC_UninitUse            10075480 f   LIBCMTD:error.obj
 0001:00074530       ?_RTC_GetErrorFunc@@YAP6AHHPBDH00ZZPBX@Z 10075530 f   LIBCMTD:userapi.obj
 0001:00074540       ?_RTC_GetErrorFuncW@@YAP6AHHPB_WH00ZZPBX@Z 10075540 f   LIBCMTD:userapi.obj
 0001:00074550       __RTC_GetErrDesc           10075550 f   LIBCMTD:userapi.obj
 0001:00074570       __RTC_NumErrors            10075570 f   LIBCMTD:userapi.obj
 0001:00074580       __RTC_SetErrorFunc         10075580 f   LIBCMTD:userapi.obj
 0001:000745a0       __RTC_SetErrorFuncW        100755a0 f   LIBCMTD:userapi.obj
 0001:000745c0       __RTC_SetErrorType         100755c0 f   LIBCMTD:userapi.obj
 0001:00074a70       ?_RTC_GetSrcLine@@YAHPAEPA_WKPAH1K@Z 10075a70 f   LIBCMTD:pdblkup.obj
 0001:00074e00       __except_handler4_noexcept 10075e00 f   LIBCMTD:chandler4_noexcept.obj
 0001:00074e50       _memcpy                    10075e50 f   libvcruntimed:memcpy.obj
 0001:000753d0       _memmove                   100763d0 f   libvcruntimed:memmove.obj
 0001:00075950       __CxxThrowException@8      10076950 f   libvcruntimed:throw.obj
 0001:00075a10       ??$?0AAViterator@TryBlockMap@__FrameHandler3@@AAV012@$0A@@?$pair@Viterator@TryBlockMap@__FrameHandler3@@V123@@std@@QAE@AAViterator@TryBlockMap@__FrameHandler3@@0@Z 10076a10 f i libvcruntimed:trnsctrl.obj
 0001:00075a60       ??$forward@AAViterator@TryBlockMap@__FrameHandler3@@@std@@YAAAViterator@TryBlockMap@__FrameHandler3@@AAV123@@Z 10076a60 f i libvcruntimed:trnsctrl.obj
 0001:00075a70       ??0iterator@TryBlockMap@__FrameHandler3@@QAE@AAV12@I@Z 10076a70 f i libvcruntimed:trnsctrl.obj
 0001:00075aa0       ?GetRangeOfTrysToCheck@__FrameHandler3@@SA?AU?$pair@Viterator@TryBlockMap@__FrameHandler3@@V123@@std@@AAVTryBlockMap@1@HH@Z 10076aa0 f   libvcruntimed:trnsctrl.obj
 0001:00075b90       ?_CallCatchBlock2@@YAPAXPAUEHRegistrationNode@@PBU_s_FuncInfo@@PAXHK@Z 10076b90 f   libvcruntimed:trnsctrl.obj
 0001:00075c00       ?_CallSETranslator@@YAHPAUEHExceptionRecord@@PAUEHRegistrationNode@@PAX2PBU_s_FuncInfo@@H1@Z 10076c00 f   libvcruntimed:trnsctrl.obj
 0001:00075cf0       ?_JumpToContinuation@@YGXPAXPAUEHRegistrationNode@@@Z 10076cf0 f   libvcruntimed:trnsctrl.obj
 0001:00075d30       ?_UnwindNestedFrames@@YGXPAUEHRegistrationNode@@PAUEHExceptionRecord@@@Z 10076d30 f   libvcruntimed:trnsctrl.obj
 0001:00075d90       ?getFuncInfo@TryBlockMap@__FrameHandler3@@QAEPBU_s_FuncInfo@@XZ 10076d90 f i libvcruntimed:trnsctrl.obj
 0001:00075da0       __CatchGuardHandler        10076da0 f   libvcruntimed:trnsctrl.obj
 0001:00075df0       __CreateFrameInfo          10076df0 f   libvcruntimed:trnsctrl.obj
 0001:00075e20       __FindAndUnlinkFrame       10076e20 f   libvcruntimed:trnsctrl.obj
 0001:00075e90       __TranslatorGuardHandler   10076e90 f   libvcruntimed:trnsctrl.obj
 0001:00075f40       ___CxxFrameHandler         10076f40 f   libvcruntimed:trnsctrl.obj
 0001:00075f80       ___CxxFrameHandler2        10076f80 f   libvcruntimed:trnsctrl.obj
 0001:00075fc0       ___CxxFrameHandler3        10076fc0 f   libvcruntimed:trnsctrl.obj
 0001:00076000       ___CxxLongjmpUnwind@4      10077000 f   libvcruntimed:trnsctrl.obj
 0001:00076040       ??$__crt_fast_decode_pointer@P6AXXZ@@YAP6AXXZQ6AXXZ@Z 10077040 f i libvcruntimed:purevirt.obj
 0001:00076070       ??$__crt_fast_encode_pointer@P6AXXZ@@YAP6AXXZQ6AXXZ@Z 10077070 f i libvcruntimed:purevirt.obj
 0001:000760a0       ??$__crt_interlocked_exchange_pointer@$$A6AXXZP6AXXZ@@YAP6AXXZPDS6AXXZQ6AXXZ@Z 100770a0 f i libvcruntimed:purevirt.obj
 0001:000760b0       ??$__crt_interlocked_read_pointer@$$A6AXXZ@@YAP6AXXZPDS6AXXZ@Z 100770b0 f i libvcruntimed:purevirt.obj
 0001:000760d0       ?__crt_interlocked_read_32@@YAHPDH@Z 100770d0 f i libvcruntimed:purevirt.obj
 0001:000760f0       __get_purecall_handler     100770f0 f   libvcruntimed:purevirt.obj
 0001:00076110       __purecall                 10077110 f   libvcruntimed:purevirt.obj
 0001:00076140       __set_purecall_handler     10077140 f   libvcruntimed:purevirt.obj
 0001:00076170       _strchr                    10077170 f   libvcruntimed:strchr.obj
 0001:000761de       ___from_strstr_to_strchr   100771de     libvcruntimed:strchr.obj
 0001:000762a0       ??$?RD@__crt_public_free_policy@@QBEXQBD@Z 100772a0 f i libvcruntimed:std_exception.obj
 0001:000762c0       ??0?$__crt_unique_heap_ptr@DU__crt_public_free_policy@@@@QAE@QAD@Z 100772c0 f i libvcruntimed:std_exception.obj
 0001:000762e0       ??1?$__crt_unique_heap_ptr@DU__crt_public_free_policy@@@@QAE@XZ 100772e0 f i libvcruntimed:std_exception.obj
 0001:00076300       ??B?$__crt_unique_heap_ptr@DU__crt_public_free_policy@@@@QBE_NXZ 10077300 f i libvcruntimed:std_exception.obj
 0001:00076320       ?detach@?$__crt_unique_heap_ptr@DU__crt_public_free_policy@@@@QAEPADXZ 10077320 f i libvcruntimed:std_exception.obj
 0001:00076350       ?get@?$__crt_unique_heap_ptr@DU__crt_public_free_policy@@@@QBEPADXZ 10077350 f i libvcruntimed:std_exception.obj
 0001:00076360       ?is_valid@?$__crt_unique_heap_ptr@DU__crt_public_free_policy@@@@QBE_NXZ 10077360 f i libvcruntimed:std_exception.obj
 0001:00076390       ?release@?$__crt_unique_heap_ptr@DU__crt_public_free_policy@@@@QAEXXZ 10077390 f i libvcruntimed:std_exception.obj
 0001:000763c0       ___std_exception_copy      100773c0 f   libvcruntimed:std_exception.obj
 0001:000764a0       ___std_exception_destroy   100774a0 f   libvcruntimed:std_exception.obj
 0001:000764d0       _memset                    100774d0 f   libvcruntimed:memset.obj
 0001:00076630       ___uncaught_exception      10077630 f   libvcruntimed:uncaught_exception.obj
 0001:00076680       _memchr                    10077680 f   libvcruntimed:memchr.obj
 0001:000768e0       _memcmp                    100778e0 f   libvcruntimed:memcmp.obj
 0001:000771b0       ___vcrt_initialize         100781b0 f   libvcruntimed:initialization.obj
 0001:000771f0       ___vcrt_thread_attach      100781f0 f   libvcruntimed:initialization.obj
 0001:00077210       ___vcrt_thread_detach      10078210 f   libvcruntimed:initialization.obj
 0001:00077230       ___vcrt_uninitialize       10078230 f   libvcruntimed:initialization.obj
 0001:00077250       ___vcrt_uninitialize_critical 10078250 f   libvcruntimed:initialization.obj
 0001:000772d0       __except_handler4          100782d0 f   libvcruntimed:chandler4.obj
 0001:000774c0       ??$?RD@__crt_internal_free_policy@@QBEXQBD@Z 100784c0 f i libvcruntimed:std_type_info.obj
